	.section	__TEXT,__text,regular,pure_instructions
	.macosx_version_min 10, 10
	.globl	_main
	.align	4, 0x90
_main:                                  ## @main
Lfunc_begin0:
	.cfi_startproc
	.cfi_personality 155, ___gxx_personality_v0
	.cfi_lsda 16, Lexception0
## BB#0:
	pushq	%rbp
Ltmp57:
	.cfi_def_cfa_offset 16
Ltmp58:
	.cfi_offset %rbp, -16
	movq	%rsp, %rbp
Ltmp59:
	.cfi_def_cfa_register %rbp
	subq	$1040, %rsp             ## imm = 0x410
	movl	$0, -620(%rbp)
	leaq	-648(%rbp), %rax
	movq	%rax, -616(%rbp)
	movq	%rax, -600(%rbp)
	leaq	-608(%rbp), %rsi
	movq	%rax, %rdi
	movq	%rax, -776(%rbp)        ## 8-byte Spill
	callq	__ZNSt3__16__treeIiNS_4lessIiEENS_9allocatorIiEEEC1ERKS2_
	movl	$43, -652(%rbp)
	movq	-776(%rbp), %rax        ## 8-byte Reload
	movq	%rax, -576(%rbp)
	leaq	-652(%rbp), %rsi
	movq	%rsi, -584(%rbp)
	movq	-576(%rbp), %rdi
	movq	%rsi, -560(%rbp)
Ltmp0:
	callq	__ZNSt3__16__treeIiNS_4lessIiEENS_9allocatorIiEEE14__insert_multiIiEENS_15__tree_iteratorIiPNS_11__tree_nodeIiPvEElEEOT_
Ltmp1:
	movq	%rax, -784(%rbp)        ## 8-byte Spill
	jmp	LBB0_1
LBB0_1:                                 ## %_ZNSt3__18multisetIiNS_4lessIiEENS_9allocatorIiEEE6insertEOi.exit
	leaq	-568(%rbp), %rax
	movq	-784(%rbp), %rcx        ## 8-byte Reload
	movq	%rcx, -592(%rbp)
	movq	-592(%rbp), %rdx
	movq	%rdx, -544(%rbp)
	movq	%rax, -552(%rbp)
	movq	-552(%rbp), %rax
	movq	-544(%rbp), %rdx
	movq	%rdx, -528(%rbp)
	movq	%rax, -536(%rbp)
	movq	-536(%rbp), %rax
	movq	-528(%rbp), %rdx
	movq	%rdx, (%rax)
	movq	-568(%rbp), %rax
	movq	%rax, -792(%rbp)        ## 8-byte Spill
## BB#2:
	movq	-792(%rbp), %rax        ## 8-byte Reload
	movq	%rax, -680(%rbp)
	movl	$78, -684(%rbp)
	leaq	-648(%rbp), %rcx
	movq	%rcx, -504(%rbp)
	leaq	-684(%rbp), %rcx
	movq	%rcx, -512(%rbp)
	movq	-504(%rbp), %rdi
	movq	%rcx, -488(%rbp)
Ltmp2:
	movq	%rcx, %rsi
	callq	__ZNSt3__16__treeIiNS_4lessIiEENS_9allocatorIiEEE14__insert_multiIiEENS_15__tree_iteratorIiPNS_11__tree_nodeIiPvEElEEOT_
Ltmp3:
	movq	%rax, -800(%rbp)        ## 8-byte Spill
	jmp	LBB0_3
LBB0_3:                                 ## %_ZNSt3__18multisetIiNS_4lessIiEENS_9allocatorIiEEE6insertEOi.exit3
	leaq	-496(%rbp), %rax
	movq	-800(%rbp), %rcx        ## 8-byte Reload
	movq	%rcx, -520(%rbp)
	movq	-520(%rbp), %rdx
	movq	%rdx, -472(%rbp)
	movq	%rax, -480(%rbp)
	movq	-480(%rbp), %rax
	movq	-472(%rbp), %rdx
	movq	%rdx, -456(%rbp)
	movq	%rax, -464(%rbp)
	movq	-464(%rbp), %rax
	movq	-456(%rbp), %rdx
	movq	%rdx, (%rax)
	movq	-496(%rbp), %rax
	movq	%rax, -808(%rbp)        ## 8-byte Spill
## BB#4:
	movq	-808(%rbp), %rax        ## 8-byte Reload
	movq	%rax, -696(%rbp)
	movl	$78, -700(%rbp)
	leaq	-648(%rbp), %rcx
	movq	%rcx, -432(%rbp)
	leaq	-700(%rbp), %rcx
	movq	%rcx, -440(%rbp)
	movq	-432(%rbp), %rdi
	movq	%rcx, -416(%rbp)
Ltmp4:
	movq	%rcx, %rsi
	callq	__ZNSt3__16__treeIiNS_4lessIiEENS_9allocatorIiEEE14__insert_multiIiEENS_15__tree_iteratorIiPNS_11__tree_nodeIiPvEElEEOT_
Ltmp5:
	movq	%rax, -816(%rbp)        ## 8-byte Spill
	jmp	LBB0_5
LBB0_5:                                 ## %_ZNSt3__18multisetIiNS_4lessIiEENS_9allocatorIiEEE6insertEOi.exit6
	leaq	-424(%rbp), %rax
	movq	-816(%rbp), %rcx        ## 8-byte Reload
	movq	%rcx, -448(%rbp)
	movq	-448(%rbp), %rdx
	movq	%rdx, -400(%rbp)
	movq	%rax, -408(%rbp)
	movq	-408(%rbp), %rax
	movq	-400(%rbp), %rdx
	movq	%rdx, -384(%rbp)
	movq	%rax, -392(%rbp)
	movq	-392(%rbp), %rax
	movq	-384(%rbp), %rdx
	movq	%rdx, (%rax)
	movq	-424(%rbp), %rax
	movq	%rax, -824(%rbp)        ## 8-byte Spill
## BB#6:
	movq	-824(%rbp), %rax        ## 8-byte Reload
	movq	%rax, -712(%rbp)
	movl	$-1, -716(%rbp)
	leaq	-648(%rbp), %rcx
	movq	%rcx, -360(%rbp)
	leaq	-716(%rbp), %rcx
	movq	%rcx, -368(%rbp)
	movq	-360(%rbp), %rdi
	movq	%rcx, -344(%rbp)
Ltmp6:
	movq	%rcx, %rsi
	callq	__ZNSt3__16__treeIiNS_4lessIiEENS_9allocatorIiEEE14__insert_multiIiEENS_15__tree_iteratorIiPNS_11__tree_nodeIiPvEElEEOT_
Ltmp7:
	movq	%rax, -832(%rbp)        ## 8-byte Spill
	jmp	LBB0_7
LBB0_7:                                 ## %_ZNSt3__18multisetIiNS_4lessIiEENS_9allocatorIiEEE6insertEOi.exit9
	leaq	-352(%rbp), %rax
	movq	-832(%rbp), %rcx        ## 8-byte Reload
	movq	%rcx, -376(%rbp)
	movq	-376(%rbp), %rdx
	movq	%rdx, -328(%rbp)
	movq	%rax, -336(%rbp)
	movq	-336(%rbp), %rax
	movq	-328(%rbp), %rdx
	movq	%rdx, -312(%rbp)
	movq	%rax, -320(%rbp)
	movq	-320(%rbp), %rax
	movq	-312(%rbp), %rdx
	movq	%rdx, (%rax)
	movq	-352(%rbp), %rax
	movq	%rax, -840(%rbp)        ## 8-byte Spill
## BB#8:
	movq	-840(%rbp), %rax        ## 8-byte Reload
	movq	%rax, -728(%rbp)
	movl	$124, -732(%rbp)
	leaq	-648(%rbp), %rcx
	movq	%rcx, -288(%rbp)
	leaq	-732(%rbp), %rcx
	movq	%rcx, -296(%rbp)
	movq	-288(%rbp), %rdi
	movq	%rcx, -272(%rbp)
Ltmp8:
	movq	%rcx, %rsi
	callq	__ZNSt3__16__treeIiNS_4lessIiEENS_9allocatorIiEEE14__insert_multiIiEENS_15__tree_iteratorIiPNS_11__tree_nodeIiPvEElEEOT_
Ltmp9:
	movq	%rax, -848(%rbp)        ## 8-byte Spill
	jmp	LBB0_9
LBB0_9:                                 ## %_ZNSt3__18multisetIiNS_4lessIiEENS_9allocatorIiEEE6insertEOi.exit12
	leaq	-280(%rbp), %rax
	movq	-848(%rbp), %rcx        ## 8-byte Reload
	movq	%rcx, -304(%rbp)
	movq	-304(%rbp), %rdx
	movq	%rdx, -256(%rbp)
	movq	%rax, -264(%rbp)
	movq	-264(%rbp), %rax
	movq	-256(%rbp), %rdx
	movq	%rdx, -240(%rbp)
	movq	%rax, -248(%rbp)
	movq	-248(%rbp), %rax
	movq	-240(%rbp), %rdx
	movq	%rdx, (%rax)
	movq	-280(%rbp), %rax
	movq	%rax, -856(%rbp)        ## 8-byte Spill
## BB#10:
	movq	-856(%rbp), %rax        ## 8-byte Reload
	movq	%rax, -744(%rbp)
	movl	$124, -748(%rbp)
	leaq	-648(%rbp), %rcx
	movq	%rcx, -216(%rbp)
	leaq	-748(%rbp), %rcx
	movq	%rcx, -224(%rbp)
	movq	-216(%rbp), %rdi
	movq	%rcx, -200(%rbp)
Ltmp10:
	movq	%rcx, %rsi
	callq	__ZNSt3__16__treeIiNS_4lessIiEENS_9allocatorIiEEE14__insert_multiIiEENS_15__tree_iteratorIiPNS_11__tree_nodeIiPvEElEEOT_
Ltmp11:
	movq	%rax, -864(%rbp)        ## 8-byte Spill
	jmp	LBB0_11
LBB0_11:                                ## %_ZNSt3__18multisetIiNS_4lessIiEENS_9allocatorIiEEE6insertEOi.exit15
	leaq	-208(%rbp), %rax
	movq	-864(%rbp), %rcx        ## 8-byte Reload
	movq	%rcx, -232(%rbp)
	movq	-232(%rbp), %rdx
	movq	%rdx, -184(%rbp)
	movq	%rax, -192(%rbp)
	movq	-192(%rbp), %rax
	movq	-184(%rbp), %rdx
	movq	%rdx, -168(%rbp)
	movq	%rax, -176(%rbp)
	movq	-176(%rbp), %rax
	movq	-168(%rbp), %rdx
	movq	%rdx, (%rax)
	movq	-208(%rbp), %rax
	movq	%rax, -872(%rbp)        ## 8-byte Spill
## BB#12:
	movq	-872(%rbp), %rax        ## 8-byte Reload
	movq	%rax, -760(%rbp)
Ltmp12:
	movq	__ZNSt3__14coutE@GOTPCREL(%rip), %rdi
	leaq	L_.str(%rip), %rsi
	callq	__ZNSt3__1lsINS_11char_traitsIcEEEERNS_13basic_ostreamIcT_EES6_PKc
Ltmp13:
	movq	%rax, -880(%rbp)        ## 8-byte Spill
	jmp	LBB0_13
LBB0_13:
	leaq	-648(%rbp), %rax
	movq	%rax, -160(%rbp)
	movq	%rax, -152(%rbp)
	leaq	-632(%rbp), %rax
	movq	%rax, -144(%rbp)
	movq	%rax, -136(%rbp)
	movq	-632(%rbp), %rsi
Ltmp14:
	movq	-880(%rbp), %rdi        ## 8-byte Reload
	callq	__ZNSt3__113basic_ostreamIcNS_11char_traitsIcEEElsEm
Ltmp15:
	movq	%rax, -888(%rbp)        ## 8-byte Spill
	jmp	LBB0_14
LBB0_14:
Ltmp16:
	leaq	L_.str1(%rip), %rsi
	movq	-888(%rbp), %rdi        ## 8-byte Reload
	callq	__ZNSt3__1lsINS_11char_traitsIcEEEERNS_13basic_ostreamIcT_EES6_PKc
Ltmp17:
	movq	%rax, -896(%rbp)        ## 8-byte Spill
	jmp	LBB0_15
LBB0_15:
Ltmp18:
	movq	__ZNSt3__14coutE@GOTPCREL(%rip), %rdi
	leaq	L_.str2(%rip), %rsi
	callq	__ZNSt3__1lsINS_11char_traitsIcEEEERNS_13basic_ostreamIcT_EES6_PKc
Ltmp19:
	movq	%rax, -904(%rbp)        ## 8-byte Spill
	jmp	LBB0_16
LBB0_16:
	movq	-904(%rbp), %rax        ## 8-byte Reload
	movq	%rax, -120(%rbp)
	leaq	__ZNSt3__14endlIcNS_11char_traitsIcEEEERNS_13basic_ostreamIT_T0_EES7_(%rip), %rcx
	movq	%rcx, -128(%rbp)
	movq	-120(%rbp), %rdi
Ltmp20:
	callq	*%rcx
Ltmp21:
	movq	%rax, -912(%rbp)        ## 8-byte Spill
	jmp	LBB0_17
LBB0_17:                                ## %_ZNSt3__113basic_ostreamIcNS_11char_traitsIcEEElsEPFRS3_S4_E.exit
	jmp	LBB0_18
LBB0_18:
Ltmp22:
	leaq	-648(%rbp), %rdi
	callq	__Z15DisplayContentsINSt3__18multisetIiNS0_4lessIiEENS0_9allocatorIiEEEEEvRKT_
Ltmp23:
	jmp	LBB0_19
LBB0_19:
Ltmp24:
	movq	__ZNSt3__14coutE@GOTPCREL(%rip), %rdi
	leaq	L_.str3(%rip), %rsi
	callq	__ZNSt3__1lsINS_11char_traitsIcEEEERNS_13basic_ostreamIcT_EES6_PKc
Ltmp25:
	movq	%rax, -920(%rbp)        ## 8-byte Spill
	jmp	LBB0_20
LBB0_20:
	movq	-920(%rbp), %rax        ## 8-byte Reload
	movq	%rax, -104(%rbp)
	leaq	__ZNSt3__14endlIcNS_11char_traitsIcEEEERNS_13basic_ostreamIT_T0_EES7_(%rip), %rcx
	movq	%rcx, -112(%rbp)
	movq	-104(%rbp), %rdi
Ltmp26:
	callq	*%rcx
Ltmp27:
	movq	%rax, -928(%rbp)        ## 8-byte Spill
	jmp	LBB0_21
LBB0_21:                                ## %_ZNSt3__113basic_ostreamIcNS_11char_traitsIcEEElsEPFRS3_S4_E.exit16
	jmp	LBB0_22
LBB0_22:
	movl	$0, -764(%rbp)
Ltmp28:
	movq	__ZNSt3__13cinE@GOTPCREL(%rip), %rdi
	leaq	-764(%rbp), %rsi
	callq	__ZNSt3__113basic_istreamIcNS_11char_traitsIcEEErsERi
Ltmp29:
	movq	%rax, -936(%rbp)        ## 8-byte Spill
	jmp	LBB0_23
LBB0_23:
Ltmp30:
	movq	__ZNSt3__14coutE@GOTPCREL(%rip), %rdi
	leaq	L_.str4(%rip), %rsi
	callq	__ZNSt3__1lsINS_11char_traitsIcEEEERNS_13basic_ostreamIcT_EES6_PKc
Ltmp31:
	movq	%rax, -944(%rbp)        ## 8-byte Spill
	jmp	LBB0_24
LBB0_24:
	leaq	-648(%rbp), %rax
	movq	%rax, -88(%rbp)
	leaq	-764(%rbp), %rax
	movq	%rax, -96(%rbp)
	movq	-88(%rbp), %rdi
Ltmp32:
	movq	%rax, %rsi
	callq	__ZNKSt3__16__treeIiNS_4lessIiEENS_9allocatorIiEEE13__count_multiIiEEmRKT_
Ltmp33:
	movq	%rax, -952(%rbp)        ## 8-byte Spill
	jmp	LBB0_25
LBB0_25:                                ## %_ZNKSt3__18multisetIiNS_4lessIiEENS_9allocatorIiEEE5countERKi.exit
	jmp	LBB0_26
LBB0_26:
Ltmp34:
	movq	-944(%rbp), %rdi        ## 8-byte Reload
	movq	-952(%rbp), %rsi        ## 8-byte Reload
	callq	__ZNSt3__113basic_ostreamIcNS_11char_traitsIcEEElsEm
Ltmp35:
	movq	%rax, -960(%rbp)        ## 8-byte Spill
	jmp	LBB0_27
LBB0_27:
Ltmp36:
	movq	__ZNSt3__14coutE@GOTPCREL(%rip), %rdi
	leaq	L_.str5(%rip), %rsi
	callq	__ZNSt3__1lsINS_11char_traitsIcEEEERNS_13basic_ostreamIcT_EES6_PKc
Ltmp37:
	movq	%rax, -968(%rbp)        ## 8-byte Spill
	jmp	LBB0_28
LBB0_28:
	movl	-764(%rbp), %esi
Ltmp38:
	movq	-968(%rbp), %rdi        ## 8-byte Reload
	callq	__ZNSt3__113basic_ostreamIcNS_11char_traitsIcEEElsEi
Ltmp39:
	movq	%rax, -976(%rbp)        ## 8-byte Spill
	jmp	LBB0_29
LBB0_29:
	movq	-976(%rbp), %rax        ## 8-byte Reload
	movq	%rax, -72(%rbp)
	leaq	__ZNSt3__14endlIcNS_11char_traitsIcEEEERNS_13basic_ostreamIT_T0_EES7_(%rip), %rcx
	movq	%rcx, -80(%rbp)
	movq	-72(%rbp), %rdi
Ltmp40:
	callq	*%rcx
Ltmp41:
	movq	%rax, -984(%rbp)        ## 8-byte Spill
	jmp	LBB0_30
LBB0_30:                                ## %_ZNSt3__113basic_ostreamIcNS_11char_traitsIcEEElsEPFRS3_S4_E.exit17
	jmp	LBB0_31
LBB0_31:
	leaq	-648(%rbp), %rax
	movq	%rax, -56(%rbp)
	leaq	-764(%rbp), %rax
	movq	%rax, -64(%rbp)
	movq	-56(%rbp), %rdi
Ltmp42:
	movq	%rax, %rsi
	callq	__ZNSt3__16__treeIiNS_4lessIiEENS_9allocatorIiEEE13__erase_multiIiEEmRKT_
Ltmp43:
	movq	%rax, -992(%rbp)        ## 8-byte Spill
	jmp	LBB0_32
LBB0_32:                                ## %_ZNSt3__18multisetIiNS_4lessIiEENS_9allocatorIiEEE5eraseERKi.exit
	jmp	LBB0_33
LBB0_33:
Ltmp44:
	movq	__ZNSt3__14coutE@GOTPCREL(%rip), %rdi
	leaq	L_.str6(%rip), %rsi
	callq	__ZNSt3__1lsINS_11char_traitsIcEEEERNS_13basic_ostreamIcT_EES6_PKc
Ltmp45:
	movq	%rax, -1000(%rbp)       ## 8-byte Spill
	jmp	LBB0_34
LBB0_34:
	leaq	-648(%rbp), %rax
	movq	%rax, -48(%rbp)
	movq	%rax, -40(%rbp)
	leaq	-632(%rbp), %rax
	movq	%rax, -32(%rbp)
	movq	%rax, -24(%rbp)
	movq	-632(%rbp), %rsi
Ltmp46:
	movq	-1000(%rbp), %rdi       ## 8-byte Reload
	callq	__ZNSt3__113basic_ostreamIcNS_11char_traitsIcEEElsEm
Ltmp47:
	movq	%rax, -1008(%rbp)       ## 8-byte Spill
	jmp	LBB0_35
LBB0_35:
Ltmp48:
	leaq	L_.str1(%rip), %rsi
	movq	-1008(%rbp), %rdi       ## 8-byte Reload
	callq	__ZNSt3__1lsINS_11char_traitsIcEEEERNS_13basic_ostreamIcT_EES6_PKc
Ltmp49:
	movq	%rax, -1016(%rbp)       ## 8-byte Spill
	jmp	LBB0_36
LBB0_36:
Ltmp50:
	movq	__ZNSt3__14coutE@GOTPCREL(%rip), %rdi
	leaq	L_.str7(%rip), %rsi
	callq	__ZNSt3__1lsINS_11char_traitsIcEEEERNS_13basic_ostreamIcT_EES6_PKc
Ltmp51:
	movq	%rax, -1024(%rbp)       ## 8-byte Spill
	jmp	LBB0_37
LBB0_37:
	movq	-1024(%rbp), %rax       ## 8-byte Reload
	movq	%rax, -8(%rbp)
	leaq	__ZNSt3__14endlIcNS_11char_traitsIcEEEERNS_13basic_ostreamIT_T0_EES7_(%rip), %rcx
	movq	%rcx, -16(%rbp)
	movq	-8(%rbp), %rdi
Ltmp52:
	callq	*%rcx
Ltmp53:
	movq	%rax, -1032(%rbp)       ## 8-byte Spill
	jmp	LBB0_38
LBB0_38:                                ## %_ZNSt3__113basic_ostreamIcNS_11char_traitsIcEEElsEPFRS3_S4_E.exit18
	jmp	LBB0_39
LBB0_39:
Ltmp54:
	leaq	-648(%rbp), %rdi
	callq	__Z15DisplayContentsINSt3__18multisetIiNS0_4lessIiEENS0_9allocatorIiEEEEEvRKT_
Ltmp55:
	jmp	LBB0_40
LBB0_40:
	leaq	-648(%rbp), %rdi
	movl	$0, -620(%rbp)
	movl	$1, -768(%rbp)
	callq	__ZNSt3__18multisetIiNS_4lessIiEENS_9allocatorIiEEED1Ev
	movl	-620(%rbp), %eax
	addq	$1040, %rsp             ## imm = 0x410
	popq	%rbp
	retq
LBB0_41:
Ltmp56:
	leaq	-648(%rbp), %rdi
	movl	%edx, %ecx
	movq	%rax, -664(%rbp)
	movl	%ecx, -668(%rbp)
	callq	__ZNSt3__18multisetIiNS_4lessIiEENS_9allocatorIiEEED1Ev
## BB#42:
	movq	-664(%rbp), %rdi
	callq	__Unwind_Resume
Lfunc_end0:
	.cfi_endproc
	.section	__TEXT,__gcc_except_tab
	.align	2
GCC_except_table0:
Lexception0:
	.byte	255                     ## @LPStart Encoding = omit
	.byte	155                     ## @TType Encoding = indirect pcrel sdata4
	.asciz	"\234"                  ## @TType base offset
	.byte	3                       ## Call site Encoding = udata4
	.byte	26                      ## Call site table length
Lset0 = Ltmp0-Lfunc_begin0              ## >> Call Site 1 <<
	.long	Lset0
Lset1 = Ltmp55-Ltmp0                    ##   Call between Ltmp0 and Ltmp55
	.long	Lset1
Lset2 = Ltmp56-Lfunc_begin0             ##     jumps to Ltmp56
	.long	Lset2
	.byte	0                       ##   On action: cleanup
Lset3 = Ltmp55-Lfunc_begin0             ## >> Call Site 2 <<
	.long	Lset3
Lset4 = Lfunc_end0-Ltmp55               ##   Call between Ltmp55 and Lfunc_end0
	.long	Lset4
	.long	0                       ##     has no landing pad
	.byte	0                       ##   On action: cleanup
	.align	2

	.section	__TEXT,__textcoal_nt,coalesced,pure_instructions
	.globl	__ZNSt3__1lsINS_11char_traitsIcEEEERNS_13basic_ostreamIcT_EES6_PKc
	.weak_def_can_be_hidden	__ZNSt3__1lsINS_11char_traitsIcEEEERNS_13basic_ostreamIcT_EES6_PKc
	.align	4, 0x90
__ZNSt3__1lsINS_11char_traitsIcEEEERNS_13basic_ostreamIcT_EES6_PKc: ## @_ZNSt3__1lsINS_11char_traitsIcEEEERNS_13basic_ostreamIcT_EES6_PKc
	.cfi_startproc
## BB#0:
	pushq	%rbp
Ltmp60:
	.cfi_def_cfa_offset 16
Ltmp61:
	.cfi_offset %rbp, -16
	movq	%rsp, %rbp
Ltmp62:
	.cfi_def_cfa_register %rbp
	subq	$32, %rsp
	movq	%rdi, -8(%rbp)
	movq	%rsi, -16(%rbp)
	movq	-8(%rbp), %rdi
	movq	-16(%rbp), %rsi
	movq	-16(%rbp), %rax
	movq	%rdi, -24(%rbp)         ## 8-byte Spill
	movq	%rax, %rdi
	movq	%rsi, -32(%rbp)         ## 8-byte Spill
	callq	__ZNSt3__111char_traitsIcE6lengthEPKc
	movq	-24(%rbp), %rdi         ## 8-byte Reload
	movq	-32(%rbp), %rsi         ## 8-byte Reload
	movq	%rax, %rdx
	callq	__ZNSt3__124__put_character_sequenceIcNS_11char_traitsIcEEEERNS_13basic_ostreamIT_T0_EES7_PKS4_m
	addq	$32, %rsp
	popq	%rbp
	retq
	.cfi_endproc

	.private_extern	__ZNSt3__14endlIcNS_11char_traitsIcEEEERNS_13basic_ostreamIT_T0_EES7_
	.globl	__ZNSt3__14endlIcNS_11char_traitsIcEEEERNS_13basic_ostreamIT_T0_EES7_
	.weak_definition	__ZNSt3__14endlIcNS_11char_traitsIcEEEERNS_13basic_ostreamIT_T0_EES7_
	.align	4, 0x90
__ZNSt3__14endlIcNS_11char_traitsIcEEEERNS_13basic_ostreamIT_T0_EES7_: ## @_ZNSt3__14endlIcNS_11char_traitsIcEEEERNS_13basic_ostreamIT_T0_EES7_
Lfunc_begin2:
	.cfi_startproc
	.cfi_personality 155, ___gxx_personality_v0
	.cfi_lsda 16, Lexception2
## BB#0:
	pushq	%rbp
Ltmp68:
	.cfi_def_cfa_offset 16
Ltmp69:
	.cfi_offset %rbp, -16
	movq	%rsp, %rbp
Ltmp70:
	.cfi_def_cfa_register %rbp
	subq	$144, %rsp
	movq	%rdi, -72(%rbp)
	movq	%rdi, %rax
	movq	(%rdi), %rcx
	movq	-24(%rcx), %rcx
	addq	%rcx, %rdi
	movq	%rdi, -32(%rbp)
	movb	$10, -33(%rbp)
	movq	-32(%rbp), %rsi
	leaq	-48(%rbp), %rcx
	movq	%rcx, %rdi
	movq	%rax, -80(%rbp)         ## 8-byte Spill
	movq	%rcx, -88(%rbp)         ## 8-byte Spill
	callq	__ZNKSt3__18ios_base6getlocEv
	movq	-88(%rbp), %rax         ## 8-byte Reload
	movq	%rax, -24(%rbp)
Ltmp63:
	movq	__ZNSt3__15ctypeIcE2idE@GOTPCREL(%rip), %rsi
	movq	%rax, %rdi
	callq	__ZNKSt3__16locale9use_facetERNS0_2idE
Ltmp64:
	movq	%rax, -96(%rbp)         ## 8-byte Spill
	jmp	LBB2_1
LBB2_1:                                 ## %_ZNSt3__19use_facetINS_5ctypeIcEEEERKT_RKNS_6localeE.exit.i
	movb	-33(%rbp), %al
	movq	-96(%rbp), %rcx         ## 8-byte Reload
	movq	%rcx, -8(%rbp)
	movb	%al, -9(%rbp)
	movq	-8(%rbp), %rdx
	movq	(%rdx), %rsi
	movq	56(%rsi), %rsi
	movsbl	-9(%rbp), %edi
Ltmp65:
	movl	%edi, -100(%rbp)        ## 4-byte Spill
	movq	%rdx, %rdi
	movl	-100(%rbp), %r8d        ## 4-byte Reload
	movq	%rsi, -112(%rbp)        ## 8-byte Spill
	movl	%r8d, %esi
	movq	-112(%rbp), %rdx        ## 8-byte Reload
	callq	*%rdx
Ltmp66:
	movb	%al, -113(%rbp)         ## 1-byte Spill
	jmp	LBB2_3
LBB2_2:
Ltmp67:
	leaq	-48(%rbp), %rdi
	movl	%edx, %ecx
	movq	%rax, -56(%rbp)
	movl	%ecx, -60(%rbp)
	callq	__ZNSt3__16localeD1Ev
	movq	-56(%rbp), %rdi
	callq	__Unwind_Resume
LBB2_3:                                 ## %_ZNKSt3__19basic_iosIcNS_11char_traitsIcEEE5widenEc.exit
	leaq	-48(%rbp), %rdi
	callq	__ZNSt3__16localeD1Ev
	movq	-80(%rbp), %rdi         ## 8-byte Reload
	movb	-113(%rbp), %al         ## 1-byte Reload
	movsbl	%al, %esi
	callq	__ZNSt3__113basic_ostreamIcNS_11char_traitsIcEEE3putEc
	movq	-72(%rbp), %rdi
	movq	%rax, -128(%rbp)        ## 8-byte Spill
	callq	__ZNSt3__113basic_ostreamIcNS_11char_traitsIcEEE5flushEv
	movq	-72(%rbp), %rdi
	movq	%rax, -136(%rbp)        ## 8-byte Spill
	movq	%rdi, %rax
	addq	$144, %rsp
	popq	%rbp
	retq
Lfunc_end2:
	.cfi_endproc
	.section	__TEXT,__gcc_except_tab
	.align	2
GCC_except_table2:
Lexception2:
	.byte	255                     ## @LPStart Encoding = omit
	.byte	155                     ## @TType Encoding = indirect pcrel sdata4
	.byte	41                      ## @TType base offset
	.byte	3                       ## Call site Encoding = udata4
	.byte	39                      ## Call site table length
Lset5 = Lfunc_begin2-Lfunc_begin2       ## >> Call Site 1 <<
	.long	Lset5
Lset6 = Ltmp63-Lfunc_begin2             ##   Call between Lfunc_begin2 and Ltmp63
	.long	Lset6
	.long	0                       ##     has no landing pad
	.byte	0                       ##   On action: cleanup
Lset7 = Ltmp63-Lfunc_begin2             ## >> Call Site 2 <<
	.long	Lset7
Lset8 = Ltmp66-Ltmp63                   ##   Call between Ltmp63 and Ltmp66
	.long	Lset8
Lset9 = Ltmp67-Lfunc_begin2             ##     jumps to Ltmp67
	.long	Lset9
	.byte	0                       ##   On action: cleanup
Lset10 = Ltmp66-Lfunc_begin2            ## >> Call Site 3 <<
	.long	Lset10
Lset11 = Lfunc_end2-Ltmp66              ##   Call between Ltmp66 and Lfunc_end2
	.long	Lset11
	.long	0                       ##     has no landing pad
	.byte	0                       ##   On action: cleanup
	.align	2

	.section	__TEXT,__textcoal_nt,coalesced,pure_instructions
	.globl	__Z15DisplayContentsINSt3__18multisetIiNS0_4lessIiEENS0_9allocatorIiEEEEEvRKT_
	.weak_def_can_be_hidden	__Z15DisplayContentsINSt3__18multisetIiNS0_4lessIiEENS0_9allocatorIiEEEEEvRKT_
	.align	4, 0x90
__Z15DisplayContentsINSt3__18multisetIiNS0_4lessIiEENS0_9allocatorIiEEEEEvRKT_: ## @_Z15DisplayContentsINSt3__18multisetIiNS0_4lessIiEENS0_9allocatorIiEEEEEvRKT_
	.cfi_startproc
## BB#0:
	pushq	%rbp
Ltmp71:
	.cfi_def_cfa_offset 16
Ltmp72:
	.cfi_offset %rbp, -16
	movq	%rsp, %rbp
Ltmp73:
	.cfi_def_cfa_register %rbp
	subq	$320, %rsp              ## imm = 0x140
	leaq	-232(%rbp), %rax
	movq	%rdi, -280(%rbp)
	movq	-280(%rbp), %rdi
	movq	%rdi, -272(%rbp)
	movq	-272(%rbp), %rdi
	movq	%rdi, -256(%rbp)
	movq	-256(%rbp), %rdi
	movq	%rdi, -240(%rbp)
	movq	-240(%rbp), %rdi
	movq	%rdi, -224(%rbp)
	movq	-224(%rbp), %rdi
	movq	(%rdi), %rdi
	movq	%rax, -208(%rbp)
	movq	%rdi, -216(%rbp)
	movq	-208(%rbp), %rax
	movq	-216(%rbp), %rdi
	movq	%rax, -192(%rbp)
	movq	%rdi, -200(%rbp)
	movq	-192(%rbp), %rax
	movq	-200(%rbp), %rdi
	movq	%rdi, (%rax)
	movq	-232(%rbp), %rax
	movq	%rax, -248(%rbp)
	movq	-248(%rbp), %rax
	movq	%rax, -264(%rbp)
	movq	-264(%rbp), %rax
	movq	%rax, -288(%rbp)
LBB3_1:                                 ## =>This Inner Loop Header: Depth=1
	leaq	-296(%rbp), %rax
	leaq	-288(%rbp), %rcx
	leaq	-128(%rbp), %rdx
	movq	-280(%rbp), %rsi
	movq	%rsi, -168(%rbp)
	movq	-168(%rbp), %rsi
	movq	%rsi, -152(%rbp)
	movq	-152(%rbp), %rsi
	movq	%rsi, -136(%rbp)
	movq	-136(%rbp), %rsi
	movq	%rsi, -120(%rbp)
	movq	-120(%rbp), %rsi
	addq	$8, %rsi
	movq	%rsi, -112(%rbp)
	movq	-112(%rbp), %rsi
	movq	%rsi, -104(%rbp)
	movq	-104(%rbp), %rsi
	movq	%rsi, -96(%rbp)
	movq	-96(%rbp), %rsi
	movq	%rsi, -88(%rbp)
	movq	-88(%rbp), %rsi
	movq	%rdx, -72(%rbp)
	movq	%rsi, -80(%rbp)
	movq	-72(%rbp), %rdx
	movq	-80(%rbp), %rsi
	movq	%rdx, -56(%rbp)
	movq	%rsi, -64(%rbp)
	movq	-56(%rbp), %rdx
	movq	-64(%rbp), %rsi
	movq	%rsi, (%rdx)
	movq	-128(%rbp), %rdx
	movq	%rdx, -144(%rbp)
	movq	-144(%rbp), %rdx
	movq	%rdx, -160(%rbp)
	movq	-160(%rbp), %rdx
	movq	%rdx, -296(%rbp)
	movq	%rcx, -32(%rbp)
	movq	%rax, -40(%rbp)
	movq	-32(%rbp), %rax
	movq	-40(%rbp), %rcx
	movq	%rax, -16(%rbp)
	movq	%rcx, -24(%rbp)
	movq	-16(%rbp), %rax
	movq	(%rax), %rax
	movq	-24(%rbp), %rcx
	cmpq	(%rcx), %rax
	sete	%dil
	xorb	$1, %dil
	testb	$1, %dil
	jne	LBB3_2
	jmp	LBB3_4
LBB3_2:                                 ##   in Loop: Header=BB3_1 Depth=1
	movq	__ZNSt3__14coutE@GOTPCREL(%rip), %rdi
	leaq	-288(%rbp), %rax
	movq	%rax, -8(%rbp)
	movq	-8(%rbp), %rax
	movq	(%rax), %rax
	movl	28(%rax), %esi
	callq	__ZNSt3__113basic_ostreamIcNS_11char_traitsIcEEElsEi
	movl	$32, %esi
	movq	%rax, %rdi
	callq	__ZNSt3__1lsINS_11char_traitsIcEEEERNS_13basic_ostreamIcT_EES6_c
	movq	%rax, -304(%rbp)        ## 8-byte Spill
## BB#3:                                ##   in Loop: Header=BB3_1 Depth=1
	leaq	-288(%rbp), %rax
	movq	%rax, -48(%rbp)
	movq	-48(%rbp), %rax
	movq	(%rax), %rcx
	movq	%rcx, %rdi
	movq	%rax, -312(%rbp)        ## 8-byte Spill
	callq	__ZNSt3__111__tree_nextIPNS_16__tree_node_baseIPvEEEET_S5_
	movq	-312(%rbp), %rcx        ## 8-byte Reload
	movq	%rax, (%rcx)
	jmp	LBB3_1
LBB3_4:
	leaq	__ZNSt3__14endlIcNS_11char_traitsIcEEEERNS_13basic_ostreamIT_T0_EES7_(%rip), %rax
	movq	__ZNSt3__14coutE@GOTPCREL(%rip), %rcx
	movq	%rcx, -176(%rbp)
	movq	%rax, -184(%rbp)
	movq	-176(%rbp), %rdi
	callq	*-184(%rbp)
	movq	%rax, -320(%rbp)        ## 8-byte Spill
	addq	$320, %rsp              ## imm = 0x140
	popq	%rbp
	retq
	.cfi_endproc

	.globl	__ZNSt3__18multisetIiNS_4lessIiEENS_9allocatorIiEEED1Ev
	.weak_def_can_be_hidden	__ZNSt3__18multisetIiNS_4lessIiEENS_9allocatorIiEEED1Ev
	.align	4, 0x90
__ZNSt3__18multisetIiNS_4lessIiEENS_9allocatorIiEEED1Ev: ## @_ZNSt3__18multisetIiNS_4lessIiEENS_9allocatorIiEEED1Ev
	.cfi_startproc
## BB#0:
	pushq	%rbp
Ltmp74:
	.cfi_def_cfa_offset 16
Ltmp75:
	.cfi_offset %rbp, -16
	movq	%rsp, %rbp
Ltmp76:
	.cfi_def_cfa_register %rbp
	subq	$16, %rsp
	movq	%rdi, -8(%rbp)
	movq	-8(%rbp), %rdi
	callq	__ZNSt3__18multisetIiNS_4lessIiEENS_9allocatorIiEEED2Ev
	addq	$16, %rsp
	popq	%rbp
	retq
	.cfi_endproc

	.globl	__ZNSt3__18multisetIiNS_4lessIiEENS_9allocatorIiEEED2Ev
	.weak_def_can_be_hidden	__ZNSt3__18multisetIiNS_4lessIiEENS_9allocatorIiEEED2Ev
	.align	4, 0x90
__ZNSt3__18multisetIiNS_4lessIiEENS_9allocatorIiEEED2Ev: ## @_ZNSt3__18multisetIiNS_4lessIiEENS_9allocatorIiEEED2Ev
	.cfi_startproc
## BB#0:
	pushq	%rbp
Ltmp77:
	.cfi_def_cfa_offset 16
Ltmp78:
	.cfi_offset %rbp, -16
	movq	%rsp, %rbp
Ltmp79:
	.cfi_def_cfa_register %rbp
	subq	$16, %rsp
	movq	%rdi, -8(%rbp)
	movq	-8(%rbp), %rdi
	callq	__ZNSt3__16__treeIiNS_4lessIiEENS_9allocatorIiEEED1Ev
	addq	$16, %rsp
	popq	%rbp
	retq
	.cfi_endproc

	.globl	__ZNSt3__16__treeIiNS_4lessIiEENS_9allocatorIiEEED1Ev
	.weak_def_can_be_hidden	__ZNSt3__16__treeIiNS_4lessIiEENS_9allocatorIiEEED1Ev
	.align	4, 0x90
__ZNSt3__16__treeIiNS_4lessIiEENS_9allocatorIiEEED1Ev: ## @_ZNSt3__16__treeIiNS_4lessIiEENS_9allocatorIiEEED1Ev
	.cfi_startproc
## BB#0:
	pushq	%rbp
Ltmp80:
	.cfi_def_cfa_offset 16
Ltmp81:
	.cfi_offset %rbp, -16
	movq	%rsp, %rbp
Ltmp82:
	.cfi_def_cfa_register %rbp
	subq	$16, %rsp
	movq	%rdi, -8(%rbp)
	movq	-8(%rbp), %rdi
	callq	__ZNSt3__16__treeIiNS_4lessIiEENS_9allocatorIiEEED2Ev
	addq	$16, %rsp
	popq	%rbp
	retq
	.cfi_endproc

	.globl	__ZNSt3__16__treeIiNS_4lessIiEENS_9allocatorIiEEED2Ev
	.weak_def_can_be_hidden	__ZNSt3__16__treeIiNS_4lessIiEENS_9allocatorIiEEED2Ev
	.align	4, 0x90
__ZNSt3__16__treeIiNS_4lessIiEENS_9allocatorIiEEED2Ev: ## @_ZNSt3__16__treeIiNS_4lessIiEENS_9allocatorIiEEED2Ev
	.cfi_startproc
## BB#0:
	pushq	%rbp
Ltmp83:
	.cfi_def_cfa_offset 16
Ltmp84:
	.cfi_offset %rbp, -16
	movq	%rsp, %rbp
Ltmp85:
	.cfi_def_cfa_register %rbp
	subq	$64, %rsp
	movq	%rdi, -56(%rbp)
	movq	-56(%rbp), %rdi
	movq	%rdi, -48(%rbp)
	movq	-48(%rbp), %rax
	movq	%rax, -40(%rbp)
	movq	-40(%rbp), %rax
	addq	$8, %rax
	movq	%rax, -32(%rbp)
	movq	-32(%rbp), %rax
	movq	%rax, -24(%rbp)
	movq	-24(%rbp), %rax
	movq	%rax, -16(%rbp)
	movq	-16(%rbp), %rax
	movq	%rax, -8(%rbp)
	movq	-8(%rbp), %rax
	movq	(%rax), %rax
	movq	%rax, %rsi
	callq	__ZNSt3__16__treeIiNS_4lessIiEENS_9allocatorIiEEE7destroyEPNS_11__tree_nodeIiPvEE
	addq	$64, %rsp
	popq	%rbp
	retq
	.cfi_endproc

	.globl	__ZNSt3__16__treeIiNS_4lessIiEENS_9allocatorIiEEE7destroyEPNS_11__tree_nodeIiPvEE
	.weak_def_can_be_hidden	__ZNSt3__16__treeIiNS_4lessIiEENS_9allocatorIiEEE7destroyEPNS_11__tree_nodeIiPvEE
	.align	4, 0x90
__ZNSt3__16__treeIiNS_4lessIiEENS_9allocatorIiEEE7destroyEPNS_11__tree_nodeIiPvEE: ## @_ZNSt3__16__treeIiNS_4lessIiEENS_9allocatorIiEEE7destroyEPNS_11__tree_nodeIiPvEE
	.cfi_startproc
## BB#0:
	pushq	%rbp
Ltmp86:
	.cfi_def_cfa_offset 16
Ltmp87:
	.cfi_offset %rbp, -16
	movq	%rsp, %rbp
Ltmp88:
	.cfi_def_cfa_register %rbp
	subq	$176, %rsp
	movq	%rdi, -144(%rbp)
	movq	%rsi, -152(%rbp)
	movq	-144(%rbp), %rsi
	cmpq	$0, -152(%rbp)
	movq	%rsi, -168(%rbp)        ## 8-byte Spill
	je	LBB8_3
## BB#1:
	movq	-152(%rbp), %rax
	movq	(%rax), %rax
	movq	-168(%rbp), %rdi        ## 8-byte Reload
	movq	%rax, %rsi
	callq	__ZNSt3__16__treeIiNS_4lessIiEENS_9allocatorIiEEE7destroyEPNS_11__tree_nodeIiPvEE
	movq	-152(%rbp), %rax
	movq	8(%rax), %rax
	movq	-168(%rbp), %rdi        ## 8-byte Reload
	movq	%rax, %rsi
	callq	__ZNSt3__16__treeIiNS_4lessIiEENS_9allocatorIiEEE7destroyEPNS_11__tree_nodeIiPvEE
	movq	-168(%rbp), %rax        ## 8-byte Reload
	movq	%rax, -80(%rbp)
	movq	-80(%rbp), %rsi
	addq	$8, %rsi
	movq	%rsi, -72(%rbp)
	movq	-72(%rbp), %rsi
	movq	%rsi, -64(%rbp)
	movq	-64(%rbp), %rsi
	movq	%rsi, -160(%rbp)
	movq	-160(%rbp), %rsi
	movq	-152(%rbp), %rdi
	addq	$28, %rdi
	movq	%rdi, -56(%rbp)
	movq	-56(%rbp), %rdi
	movq	%rsi, -24(%rbp)
	movq	%rdi, -32(%rbp)
	movq	-24(%rbp), %rsi
	movq	-32(%rbp), %rdi
	movq	%rsi, -8(%rbp)
	movq	%rdi, -16(%rbp)
## BB#2:
	movq	-160(%rbp), %rax
	movq	-152(%rbp), %rcx
	movq	%rax, -120(%rbp)
	movq	%rcx, -128(%rbp)
	movq	$1, -136(%rbp)
	movq	-120(%rbp), %rax
	movq	-128(%rbp), %rcx
	movq	-136(%rbp), %rdx
	movq	%rax, -96(%rbp)
	movq	%rcx, -104(%rbp)
	movq	%rdx, -112(%rbp)
	movq	-104(%rbp), %rax
	movq	%rax, -88(%rbp)
	movq	-88(%rbp), %rdi
	callq	__ZdlPv
LBB8_3:
	addq	$176, %rsp
	popq	%rbp
	retq
	.cfi_endproc

	.private_extern	___clang_call_terminate
	.globl	___clang_call_terminate
	.weak_def_can_be_hidden	___clang_call_terminate
	.align	4, 0x90
___clang_call_terminate:                ## @__clang_call_terminate
## BB#0:
	pushq	%rbp
	movq	%rsp, %rbp
	subq	$16, %rsp
	callq	___cxa_begin_catch
	movq	%rax, -8(%rbp)          ## 8-byte Spill
	callq	__ZSt9terminatev

	.globl	__ZNSt3__16__treeIiNS_4lessIiEENS_9allocatorIiEEEC1ERKS2_
	.weak_def_can_be_hidden	__ZNSt3__16__treeIiNS_4lessIiEENS_9allocatorIiEEEC1ERKS2_
	.align	4, 0x90
__ZNSt3__16__treeIiNS_4lessIiEENS_9allocatorIiEEEC1ERKS2_: ## @_ZNSt3__16__treeIiNS_4lessIiEENS_9allocatorIiEEEC1ERKS2_
	.cfi_startproc
## BB#0:
	pushq	%rbp
Ltmp89:
	.cfi_def_cfa_offset 16
Ltmp90:
	.cfi_offset %rbp, -16
	movq	%rsp, %rbp
Ltmp91:
	.cfi_def_cfa_register %rbp
	subq	$16, %rsp
	movq	%rdi, -8(%rbp)
	movq	%rsi, -16(%rbp)
	movq	-8(%rbp), %rdi
	movq	-16(%rbp), %rsi
	callq	__ZNSt3__16__treeIiNS_4lessIiEENS_9allocatorIiEEEC2ERKS2_
	addq	$16, %rsp
	popq	%rbp
	retq
	.cfi_endproc

	.globl	__ZNSt3__16__treeIiNS_4lessIiEENS_9allocatorIiEEEC2ERKS2_
	.weak_def_can_be_hidden	__ZNSt3__16__treeIiNS_4lessIiEENS_9allocatorIiEEEC2ERKS2_
	.align	4, 0x90
__ZNSt3__16__treeIiNS_4lessIiEENS_9allocatorIiEEEC2ERKS2_: ## @_ZNSt3__16__treeIiNS_4lessIiEENS_9allocatorIiEEEC2ERKS2_
	.cfi_startproc
## BB#0:
	pushq	%rbp
Ltmp92:
	.cfi_def_cfa_offset 16
Ltmp93:
	.cfi_offset %rbp, -16
	movq	%rsp, %rbp
Ltmp94:
	.cfi_def_cfa_register %rbp
	subq	$112, %rsp
	movq	%rdi, -216(%rbp)
	movq	%rsi, -224(%rbp)
	movq	-216(%rbp), %rsi
	movq	%rsi, %rdi
	addq	$8, %rdi
	movq	%rdi, -208(%rbp)
	movq	-208(%rbp), %rdi
	movq	%rdi, -200(%rbp)
	movq	-200(%rbp), %rdi
	movq	%rdi, -192(%rbp)
	movq	-192(%rbp), %rdi
	movq	%rdi, %rax
	movq	%rax, -184(%rbp)
	movq	%rdi, -176(%rbp)
	movq	-176(%rbp), %rax
	movq	%rax, -168(%rbp)
	movq	-168(%rbp), %rax
	movq	$0, (%rax)
	movq	%rsi, -240(%rbp)        ## 8-byte Spill
## BB#1:
	leaq	-96(%rbp), %rax
	leaq	-80(%rbp), %rcx
	leaq	-112(%rbp), %rdx
	leaq	-128(%rbp), %rsi
	movq	-240(%rbp), %rdi        ## 8-byte Reload
	addq	$16, %rdi
	movq	%rdi, -152(%rbp)
	movq	$0, -160(%rbp)
	movq	-152(%rbp), %rdi
	movq	-160(%rbp), %r8
	movq	%rdi, -120(%rbp)
	movq	%r8, -128(%rbp)
	movq	-120(%rbp), %rdi
	movq	%rsi, -104(%rbp)
	movq	-104(%rbp), %rsi
	movq	(%rsi), %rsi
	movq	%rdx, -56(%rbp)
	movq	%rdi, -88(%rbp)
	movq	%rsi, -96(%rbp)
	movq	-88(%rbp), %rdx
	movq	%rcx, -72(%rbp)
	movq	%rax, -64(%rbp)
	movq	-64(%rbp), %rax
	movq	(%rax), %rax
	movq	%rax, (%rdx)
## BB#2:
	movq	-240(%rbp), %rax        ## 8-byte Reload
	movq	%rax, -40(%rbp)
	movq	-40(%rbp), %rcx
	addq	$8, %rcx
	movq	%rcx, -32(%rbp)
	movq	-32(%rbp), %rcx
	movq	%rcx, -24(%rbp)
	movq	-24(%rbp), %rcx
	movq	%rcx, -16(%rbp)
	movq	-16(%rbp), %rcx
	movq	%rcx, -8(%rbp)
	movq	-8(%rbp), %rcx
	movq	%rax, -48(%rbp)
	movq	-48(%rbp), %rdx
	movq	%rcx, (%rdx)
	addq	$112, %rsp
	popq	%rbp
	retq
	.cfi_endproc

	.globl	__ZNSt3__16__treeIiNS_4lessIiEENS_9allocatorIiEEE14__insert_multiIiEENS_15__tree_iteratorIiPNS_11__tree_nodeIiPvEElEEOT_
	.weak_def_can_be_hidden	__ZNSt3__16__treeIiNS_4lessIiEENS_9allocatorIiEEE14__insert_multiIiEENS_15__tree_iteratorIiPNS_11__tree_nodeIiPvEElEEOT_
	.align	4, 0x90
__ZNSt3__16__treeIiNS_4lessIiEENS_9allocatorIiEEE14__insert_multiIiEENS_15__tree_iteratorIiPNS_11__tree_nodeIiPvEElEEOT_: ## @_ZNSt3__16__treeIiNS_4lessIiEENS_9allocatorIiEEE14__insert_multiIiEENS_15__tree_iteratorIiPNS_11__tree_nodeIiPvEElEEOT_
Lfunc_begin12:
	.cfi_startproc
	.cfi_personality 155, ___gxx_personality_v0
	.cfi_lsda 16, Lexception12
## BB#0:
	pushq	%rbp
Ltmp100:
	.cfi_def_cfa_offset 16
Ltmp101:
	.cfi_offset %rbp, -16
	movq	%rsp, %rbp
Ltmp102:
	.cfi_def_cfa_register %rbp
	subq	$720, %rsp              ## imm = 0x2D0
	movq	%rdi, -584(%rbp)
	movq	%rsi, -592(%rbp)
	movq	-584(%rbp), %rdi
	movq	%rsi, -568(%rbp)
	leaq	-616(%rbp), %rax
	movq	%rdi, -656(%rbp)        ## 8-byte Spill
	movq	%rax, %rdi
	movq	-656(%rbp), %rcx        ## 8-byte Reload
	movq	%rsi, -664(%rbp)        ## 8-byte Spill
	movq	%rcx, %rsi
	movq	-664(%rbp), %rdx        ## 8-byte Reload
	movq	%rax, -672(%rbp)        ## 8-byte Spill
	callq	__ZNSt3__16__treeIiNS_4lessIiEENS_9allocatorIiEEE16__construct_nodeIJiEEENS_10unique_ptrINS_11__tree_nodeIiPvEENS_22__tree_node_destructorINS3_ISA_EEEEEEDpOT_
	movq	-672(%rbp), %rax        ## 8-byte Reload
	movq	%rax, -344(%rbp)
	movq	%rax, -336(%rbp)
	movq	%rax, -328(%rbp)
	movq	-616(%rbp), %rcx
	addq	$28, %rcx
Ltmp95:
	leaq	-624(%rbp), %rsi
	movq	-656(%rbp), %rdi        ## 8-byte Reload
	movq	%rcx, %rdx
	callq	__ZNSt3__16__treeIiNS_4lessIiEENS_9allocatorIiEEE16__find_leaf_highERPNS_16__tree_node_baseIPvEERKi
Ltmp96:
	movq	%rax, -680(%rbp)        ## 8-byte Spill
	jmp	LBB12_1
LBB12_1:
	movq	-680(%rbp), %rax        ## 8-byte Reload
	movq	%rax, -632(%rbp)
	movq	-624(%rbp), %rsi
	leaq	-616(%rbp), %rcx
	movq	%rcx, -104(%rbp)
	movq	%rcx, -96(%rbp)
	movq	%rcx, -88(%rbp)
	movq	-616(%rbp), %rcx
Ltmp97:
	movq	-656(%rbp), %rdi        ## 8-byte Reload
	movq	%rax, %rdx
	callq	__ZNSt3__16__treeIiNS_4lessIiEENS_9allocatorIiEEE16__insert_node_atEPNS_16__tree_node_baseIPvEERS9_S9_
Ltmp98:
	jmp	LBB12_2
LBB12_2:
	leaq	-616(%rbp), %rax
	leaq	-576(%rbp), %rcx
	movq	%rax, -40(%rbp)
	movq	-40(%rbp), %rdx
	movq	%rdx, -32(%rbp)
	movq	-32(%rbp), %rsi
	movq	%rsi, -24(%rbp)
	movq	-24(%rbp), %rsi
	movq	(%rsi), %rsi
	movq	%rsi, -48(%rbp)
	movq	%rdx, -16(%rbp)
	movq	-16(%rbp), %rdx
	movq	%rdx, -8(%rbp)
	movq	-8(%rbp), %rdx
	movq	$0, (%rdx)
	movq	-48(%rbp), %rdx
	movq	%rcx, -72(%rbp)
	movq	%rdx, -80(%rbp)
	movq	-72(%rbp), %rcx
	movq	-80(%rbp), %rdx
	movq	%rcx, -56(%rbp)
	movq	%rdx, -64(%rbp)
	movq	-56(%rbp), %rcx
	movq	-64(%rbp), %rdx
	movq	%rdx, (%rcx)
	movl	$1, -648(%rbp)
	movq	%rax, -320(%rbp)
	movq	-320(%rbp), %rax
	movq	%rax, -312(%rbp)
	movq	-312(%rbp), %rax
	movq	%rax, -288(%rbp)
	movq	$0, -296(%rbp)
	movq	-288(%rbp), %rax
	movq	%rax, -280(%rbp)
	movq	-280(%rbp), %rcx
	movq	%rcx, -272(%rbp)
	movq	-272(%rbp), %rcx
	movq	(%rcx), %rcx
	movq	%rcx, -304(%rbp)
	movq	-296(%rbp), %rcx
	movq	%rax, -136(%rbp)
	movq	-136(%rbp), %rdx
	movq	%rdx, -128(%rbp)
	movq	-128(%rbp), %rdx
	movq	%rcx, (%rdx)
	cmpq	$0, -304(%rbp)
	movq	%rax, -688(%rbp)        ## 8-byte Spill
	je	LBB12_8
## BB#3:
	movq	-688(%rbp), %rax        ## 8-byte Reload
	movq	%rax, -120(%rbp)
	movq	-120(%rbp), %rcx
	movq	%rcx, -112(%rbp)
	movq	-112(%rbp), %rcx
	addq	$8, %rcx
	movq	-304(%rbp), %rdx
	movq	%rcx, -256(%rbp)
	movq	%rdx, -264(%rbp)
	movq	-256(%rbp), %rcx
	testb	$1, 8(%rcx)
	movq	%rcx, -696(%rbp)        ## 8-byte Spill
	je	LBB12_5
## BB#4:
	movq	-696(%rbp), %rax        ## 8-byte Reload
	movq	(%rax), %rcx
	movq	-264(%rbp), %rdx
	addq	$28, %rdx
	movq	%rdx, -248(%rbp)
	movq	-248(%rbp), %rdx
	movq	%rcx, -216(%rbp)
	movq	%rdx, -224(%rbp)
	movq	-216(%rbp), %rcx
	movq	-224(%rbp), %rdx
	movq	%rcx, -200(%rbp)
	movq	%rdx, -208(%rbp)
LBB12_5:
	cmpq	$0, -264(%rbp)
	je	LBB12_7
## BB#6:
	movq	-696(%rbp), %rax        ## 8-byte Reload
	movq	(%rax), %rcx
	movq	-264(%rbp), %rdx
	movq	%rcx, -176(%rbp)
	movq	%rdx, -184(%rbp)
	movq	$1, -192(%rbp)
	movq	-176(%rbp), %rcx
	movq	-184(%rbp), %rdx
	movq	-192(%rbp), %rsi
	movq	%rcx, -152(%rbp)
	movq	%rdx, -160(%rbp)
	movq	%rsi, -168(%rbp)
	movq	-160(%rbp), %rcx
	movq	%rcx, -144(%rbp)
	movq	-144(%rbp), %rdi
	callq	__ZdlPv
LBB12_7:                                ## %_ZNSt3__122__tree_node_destructorINS_9allocatorINS_11__tree_nodeIiPvEEEEEclEPS4_.exit.i.i.i2
	jmp	LBB12_8
LBB12_8:                                ## %_ZNSt3__110unique_ptrINS_11__tree_nodeIiPvEENS_22__tree_node_destructorINS_9allocatorIS3_EEEEED1Ev.exit3
	movq	-576(%rbp), %rax
	addq	$720, %rsp              ## imm = 0x2D0
	popq	%rbp
	retq
LBB12_9:
Ltmp99:
	leaq	-616(%rbp), %rcx
	movl	%edx, %esi
	movq	%rax, -640(%rbp)
	movl	%esi, -644(%rbp)
	movq	%rcx, -560(%rbp)
	movq	-560(%rbp), %rax
	movq	%rax, -552(%rbp)
	movq	-552(%rbp), %rax
	movq	%rax, -528(%rbp)
	movq	$0, -536(%rbp)
	movq	-528(%rbp), %rax
	movq	%rax, -520(%rbp)
	movq	-520(%rbp), %rcx
	movq	%rcx, -512(%rbp)
	movq	-512(%rbp), %rcx
	movq	(%rcx), %rcx
	movq	%rcx, -544(%rbp)
	movq	-536(%rbp), %rcx
	movq	%rax, -376(%rbp)
	movq	-376(%rbp), %rdx
	movq	%rdx, -368(%rbp)
	movq	-368(%rbp), %rdx
	movq	%rcx, (%rdx)
	cmpq	$0, -544(%rbp)
	movq	%rax, -704(%rbp)        ## 8-byte Spill
	je	LBB12_15
## BB#10:
	movq	-704(%rbp), %rax        ## 8-byte Reload
	movq	%rax, -360(%rbp)
	movq	-360(%rbp), %rcx
	movq	%rcx, -352(%rbp)
	movq	-352(%rbp), %rcx
	addq	$8, %rcx
	movq	-544(%rbp), %rdx
	movq	%rcx, -496(%rbp)
	movq	%rdx, -504(%rbp)
	movq	-496(%rbp), %rcx
	testb	$1, 8(%rcx)
	movq	%rcx, -712(%rbp)        ## 8-byte Spill
	je	LBB12_12
## BB#11:
	movq	-712(%rbp), %rax        ## 8-byte Reload
	movq	(%rax), %rcx
	movq	-504(%rbp), %rdx
	addq	$28, %rdx
	movq	%rdx, -488(%rbp)
	movq	-488(%rbp), %rdx
	movq	%rcx, -456(%rbp)
	movq	%rdx, -464(%rbp)
	movq	-456(%rbp), %rcx
	movq	-464(%rbp), %rdx
	movq	%rcx, -440(%rbp)
	movq	%rdx, -448(%rbp)
LBB12_12:
	cmpq	$0, -504(%rbp)
	je	LBB12_14
## BB#13:
	movq	-712(%rbp), %rax        ## 8-byte Reload
	movq	(%rax), %rcx
	movq	-504(%rbp), %rdx
	movq	%rcx, -416(%rbp)
	movq	%rdx, -424(%rbp)
	movq	$1, -432(%rbp)
	movq	-416(%rbp), %rcx
	movq	-424(%rbp), %rdx
	movq	-432(%rbp), %rsi
	movq	%rcx, -392(%rbp)
	movq	%rdx, -400(%rbp)
	movq	%rsi, -408(%rbp)
	movq	-400(%rbp), %rcx
	movq	%rcx, -384(%rbp)
	movq	-384(%rbp), %rdi
	callq	__ZdlPv
LBB12_14:                               ## %_ZNSt3__122__tree_node_destructorINS_9allocatorINS_11__tree_nodeIiPvEEEEEclEPS4_.exit.i.i.i
	jmp	LBB12_15
LBB12_15:                               ## %_ZNSt3__110unique_ptrINS_11__tree_nodeIiPvEENS_22__tree_node_destructorINS_9allocatorIS3_EEEEED1Ev.exit
	jmp	LBB12_16
LBB12_16:
	movq	-640(%rbp), %rdi
	callq	__Unwind_Resume
Lfunc_end12:
	.cfi_endproc
	.section	__TEXT,__gcc_except_tab
	.align	2
GCC_except_table12:
Lexception12:
	.byte	255                     ## @LPStart Encoding = omit
	.byte	155                     ## @TType Encoding = indirect pcrel sdata4
	.byte	41                      ## @TType base offset
	.byte	3                       ## Call site Encoding = udata4
	.byte	39                      ## Call site table length
Lset12 = Lfunc_begin12-Lfunc_begin12    ## >> Call Site 1 <<
	.long	Lset12
Lset13 = Ltmp95-Lfunc_begin12           ##   Call between Lfunc_begin12 and Ltmp95
	.long	Lset13
	.long	0                       ##     has no landing pad
	.byte	0                       ##   On action: cleanup
Lset14 = Ltmp95-Lfunc_begin12           ## >> Call Site 2 <<
	.long	Lset14
Lset15 = Ltmp98-Ltmp95                  ##   Call between Ltmp95 and Ltmp98
	.long	Lset15
Lset16 = Ltmp99-Lfunc_begin12           ##     jumps to Ltmp99
	.long	Lset16
	.byte	0                       ##   On action: cleanup
Lset17 = Ltmp98-Lfunc_begin12           ## >> Call Site 3 <<
	.long	Lset17
Lset18 = Lfunc_end12-Ltmp98             ##   Call between Ltmp98 and Lfunc_end12
	.long	Lset18
	.long	0                       ##     has no landing pad
	.byte	0                       ##   On action: cleanup
	.align	2

	.section	__TEXT,__textcoal_nt,coalesced,pure_instructions
	.globl	__ZNSt3__16__treeIiNS_4lessIiEENS_9allocatorIiEEE16__construct_nodeIJiEEENS_10unique_ptrINS_11__tree_nodeIiPvEENS_22__tree_node_destructorINS3_ISA_EEEEEEDpOT_
	.weak_def_can_be_hidden	__ZNSt3__16__treeIiNS_4lessIiEENS_9allocatorIiEEE16__construct_nodeIJiEEENS_10unique_ptrINS_11__tree_nodeIiPvEENS_22__tree_node_destructorINS3_ISA_EEEEEEDpOT_
	.align	4, 0x90
__ZNSt3__16__treeIiNS_4lessIiEENS_9allocatorIiEEE16__construct_nodeIJiEEENS_10unique_ptrINS_11__tree_nodeIiPvEENS_22__tree_node_destructorINS3_ISA_EEEEEEDpOT_: ## @_ZNSt3__16__treeIiNS_4lessIiEENS_9allocatorIiEEE16__construct_nodeIJiEEENS_10unique_ptrINS_11__tree_nodeIiPvEENS_22__tree_node_destructorINS3_ISA_EEEEEEDpOT_
	.cfi_startproc
## BB#0:
	pushq	%rbp
Ltmp103:
	.cfi_def_cfa_offset 16
Ltmp104:
	.cfi_offset %rbp, -16
	movq	%rsp, %rbp
Ltmp105:
	.cfi_def_cfa_register %rbp
	pushq	%r14
	pushq	%rbx
	subq	$1056, %rsp             ## imm = 0x420
Ltmp106:
	.cfi_offset %rbx, -32
Ltmp107:
	.cfi_offset %r14, -24
	movq	%rdi, %rax
	movq	%rsi, -976(%rbp)
	movq	%rdx, -984(%rbp)
	movq	-976(%rbp), %rdx
	movq	%rdx, -968(%rbp)
	movq	-968(%rbp), %rdx
	addq	$8, %rdx
	movq	%rdx, -960(%rbp)
	movq	-960(%rbp), %rdx
	movq	%rdx, -952(%rbp)
	movq	-952(%rbp), %rdx
	movq	%rdx, -992(%rbp)
	movb	$0, -993(%rbp)
	movq	-992(%rbp), %rdx
	movq	%rdx, -720(%rbp)
	movq	$1, -728(%rbp)
	movq	-720(%rbp), %rdx
	movq	-728(%rbp), %rsi
	movq	%rdx, -696(%rbp)
	movq	%rsi, -704(%rbp)
	movq	$0, -712(%rbp)
	movq	-704(%rbp), %rdx
	shlq	$5, %rdx
	movq	%rdx, -688(%rbp)
	movq	-688(%rbp), %rdx
	movq	%rdi, -1040(%rbp)       ## 8-byte Spill
	movq	%rdx, %rdi
	movq	%rax, -1048(%rbp)       ## 8-byte Spill
	callq	__Znwm
	leaq	-240(%rbp), %rdx
	leaq	-256(%rbp), %rsi
	leaq	-280(%rbp), %rdi
	leaq	-296(%rbp), %rcx
	leaq	-1016(%rbp), %r8
	movq	-992(%rbp), %r9
	movq	%r8, -664(%rbp)
	movq	%r9, -672(%rbp)
	movb	$0, -673(%rbp)
	movq	-664(%rbp), %r9
	movb	-673(%rbp), %r10b
	movq	-672(%rbp), %r11
	movq	%r9, -640(%rbp)
	movq	%r11, -648(%rbp)
	andb	$1, %r10b
	movb	%r10b, -649(%rbp)
	movq	-640(%rbp), %r9
	movq	-648(%rbp), %r11
	movq	%r11, (%r9)
	movb	-649(%rbp), %r10b
	andb	$1, %r10b
	movb	%r10b, 8(%r9)
	movq	-1040(%rbp), %r9        ## 8-byte Reload
	movq	%r9, -400(%rbp)
	movq	%rax, -408(%rbp)
	movq	%r8, -416(%rbp)
	movq	-400(%rbp), %rax
	movq	-408(%rbp), %r8
	movq	-416(%rbp), %r11
	movq	%rax, -360(%rbp)
	movq	%r8, -368(%rbp)
	movq	%r11, -376(%rbp)
	movq	-360(%rbp), %rax
	movq	-368(%rbp), %r8
	movq	-376(%rbp), %r11
	movq	%r11, -352(%rbp)
	movq	-352(%rbp), %r11
	movq	(%r11), %rbx
	movq	%rbx, -392(%rbp)
	movq	8(%r11), %r11
	movq	%r11, -384(%rbp)
	movq	-392(%rbp), %r11
	movb	-384(%rbp), %r10b
	movq	%r11, -328(%rbp)
	movb	%r10b, -320(%rbp)
	movq	%rax, -336(%rbp)
	movq	%r8, -344(%rbp)
	movq	-336(%rbp), %rax
	movq	-344(%rbp), %r8
	movq	-328(%rbp), %r11
	movb	-320(%rbp), %r10b
	movq	%r11, -280(%rbp)
	movb	%r10b, -272(%rbp)
	movq	%rax, -288(%rbp)
	movq	%r8, -296(%rbp)
	movq	-288(%rbp), %rax
	movq	%rcx, -264(%rbp)
	movq	-264(%rbp), %rcx
	movq	(%rcx), %rcx
	movq	%rdi, -208(%rbp)
	movq	-208(%rbp), %rdi
	movq	(%rdi), %r8
	movq	%r8, -312(%rbp)
	movq	8(%rdi), %rdi
	movq	%rdi, -304(%rbp)
	movq	-312(%rbp), %rdi
	movb	-304(%rbp), %r10b
	movq	%rdi, -240(%rbp)
	movb	%r10b, -232(%rbp)
	movq	%rax, -248(%rbp)
	movq	%rcx, -256(%rbp)
	movq	-248(%rbp), %rax
	movq	%rsi, -224(%rbp)
	movq	-224(%rbp), %rcx
	movq	(%rcx), %rcx
	movq	%rcx, (%rax)
	movq	%rdx, -216(%rbp)
	movq	-216(%rbp), %rcx
	movq	(%rcx), %rdx
	movq	%rdx, 8(%rax)
	movq	8(%rcx), %rcx
	movq	%rcx, 16(%rax)
	movq	-992(%rbp), %rax
	movq	%r9, -40(%rbp)
	movq	-40(%rbp), %rcx
	movq	%rcx, -32(%rbp)
	movq	-32(%rbp), %rcx
	movq	%rcx, -24(%rbp)
	movq	-24(%rbp), %rcx
	movq	(%rcx), %rcx
	addq	$28, %rcx
	movq	%rcx, -48(%rbp)
	movq	-48(%rbp), %rcx
	movq	-984(%rbp), %rdx
	movq	%rdx, -56(%rbp)
	movq	-56(%rbp), %rdx
	movq	%rax, -144(%rbp)
	movq	%rcx, -152(%rbp)
	movq	%rdx, -160(%rbp)
	movq	-144(%rbp), %rax
	movq	-152(%rbp), %rcx
	movq	-160(%rbp), %rdx
	movq	%rdx, -136(%rbp)
	movq	-136(%rbp), %rdx
	movq	%rax, -112(%rbp)
	movq	%rcx, -120(%rbp)
	movq	%rdx, -128(%rbp)
	movq	-112(%rbp), %rax
	movq	-120(%rbp), %rcx
	movq	-128(%rbp), %rdx
	movq	%rdx, -96(%rbp)
	movq	-96(%rbp), %rdx
	movq	%rax, -72(%rbp)
	movq	%rcx, -80(%rbp)
	movq	%rdx, -88(%rbp)
	movq	-80(%rbp), %rax
	movq	-88(%rbp), %rcx
	movq	%rcx, -64(%rbp)
	movq	-64(%rbp), %rcx
	movl	(%rcx), %r14d
	movl	%r14d, (%rax)
## BB#1:
	movq	-1040(%rbp), %rax       ## 8-byte Reload
	movq	%rax, -200(%rbp)
	movq	-200(%rbp), %rcx
	movq	%rcx, -192(%rbp)
	movq	-192(%rbp), %rcx
	movq	%rcx, -184(%rbp)
	movq	-184(%rbp), %rcx
	movb	$1, 16(%rcx)
	movb	$1, -993(%rbp)
	movl	$1, -1032(%rbp)
	testb	$1, -993(%rbp)
	jne	LBB13_9
## BB#2:
	movq	-1040(%rbp), %rax       ## 8-byte Reload
	movq	%rax, -944(%rbp)
	movq	-944(%rbp), %rcx
	movq	%rcx, -936(%rbp)
	movq	-936(%rbp), %rcx
	movq	%rcx, -912(%rbp)
	movq	$0, -920(%rbp)
	movq	-912(%rbp), %rcx
	movq	%rcx, -904(%rbp)
	movq	-904(%rbp), %rdx
	movq	%rdx, -896(%rbp)
	movq	-896(%rbp), %rdx
	movq	(%rdx), %rdx
	movq	%rdx, -928(%rbp)
	movq	-920(%rbp), %rdx
	movq	%rcx, -760(%rbp)
	movq	-760(%rbp), %rsi
	movq	%rsi, -752(%rbp)
	movq	-752(%rbp), %rsi
	movq	%rdx, (%rsi)
	cmpq	$0, -928(%rbp)
	movq	%rcx, -1056(%rbp)       ## 8-byte Spill
	je	LBB13_8
## BB#3:
	movq	-1056(%rbp), %rax       ## 8-byte Reload
	movq	%rax, -744(%rbp)
	movq	-744(%rbp), %rcx
	movq	%rcx, -736(%rbp)
	movq	-736(%rbp), %rcx
	addq	$8, %rcx
	movq	-928(%rbp), %rdx
	movq	%rcx, -880(%rbp)
	movq	%rdx, -888(%rbp)
	movq	-880(%rbp), %rcx
	testb	$1, 8(%rcx)
	movq	%rcx, -1064(%rbp)       ## 8-byte Spill
	je	LBB13_5
## BB#4:
	movq	-1064(%rbp), %rax       ## 8-byte Reload
	movq	(%rax), %rcx
	movq	-888(%rbp), %rdx
	addq	$28, %rdx
	movq	%rdx, -872(%rbp)
	movq	-872(%rbp), %rdx
	movq	%rcx, -840(%rbp)
	movq	%rdx, -848(%rbp)
	movq	-840(%rbp), %rcx
	movq	-848(%rbp), %rdx
	movq	%rcx, -824(%rbp)
	movq	%rdx, -832(%rbp)
LBB13_5:
	cmpq	$0, -888(%rbp)
	je	LBB13_7
## BB#6:
	movq	-1064(%rbp), %rax       ## 8-byte Reload
	movq	(%rax), %rcx
	movq	-888(%rbp), %rdx
	movq	%rcx, -800(%rbp)
	movq	%rdx, -808(%rbp)
	movq	$1, -816(%rbp)
	movq	-800(%rbp), %rcx
	movq	-808(%rbp), %rdx
	movq	-816(%rbp), %rsi
	movq	%rcx, -776(%rbp)
	movq	%rdx, -784(%rbp)
	movq	%rsi, -792(%rbp)
	movq	-784(%rbp), %rcx
	movq	%rcx, -768(%rbp)
	movq	-768(%rbp), %rdi
	callq	__ZdlPv
LBB13_7:                                ## %_ZNSt3__122__tree_node_destructorINS_9allocatorINS_11__tree_nodeIiPvEEEEEclEPS4_.exit.i.i.i
	jmp	LBB13_8
LBB13_8:                                ## %_ZNSt3__110unique_ptrINS_11__tree_nodeIiPvEENS_22__tree_node_destructorINS_9allocatorIS3_EEEEED1Ev.exit
	jmp	LBB13_9
LBB13_9:
	movq	-1048(%rbp), %rax       ## 8-byte Reload
	addq	$1056, %rsp             ## imm = 0x420
	popq	%rbx
	popq	%r14
	popq	%rbp
	retq
	.cfi_endproc

	.globl	__ZNSt3__16__treeIiNS_4lessIiEENS_9allocatorIiEEE16__find_leaf_highERPNS_16__tree_node_baseIPvEERKi
	.weak_def_can_be_hidden	__ZNSt3__16__treeIiNS_4lessIiEENS_9allocatorIiEEE16__find_leaf_highERPNS_16__tree_node_baseIPvEERKi
	.align	4, 0x90
__ZNSt3__16__treeIiNS_4lessIiEENS_9allocatorIiEEE16__find_leaf_highERPNS_16__tree_node_baseIPvEERKi: ## @_ZNSt3__16__treeIiNS_4lessIiEENS_9allocatorIiEEE16__find_leaf_highERPNS_16__tree_node_baseIPvEERKi
	.cfi_startproc
## BB#0:
	pushq	%rbp
Ltmp108:
	.cfi_def_cfa_offset 16
Ltmp109:
	.cfi_offset %rbp, -16
	movq	%rsp, %rbp
Ltmp110:
	.cfi_def_cfa_register %rbp
	subq	$56, %rsp
	movq	%rdi, -152(%rbp)
	movq	%rsi, -160(%rbp)
	movq	%rdx, -168(%rbp)
	movq	-152(%rbp), %rdx
	movq	%rdx, -136(%rbp)
	movq	-136(%rbp), %rsi
	movq	%rsi, -128(%rbp)
	movq	-128(%rbp), %rsi
	addq	$8, %rsi
	movq	%rsi, -120(%rbp)
	movq	-120(%rbp), %rsi
	movq	%rsi, -112(%rbp)
	movq	-112(%rbp), %rsi
	movq	%rsi, -104(%rbp)
	movq	-104(%rbp), %rsi
	movq	%rsi, -96(%rbp)
	movq	-96(%rbp), %rsi
	movq	(%rsi), %rsi
	movq	%rsi, -176(%rbp)
	cmpq	$0, -176(%rbp)
	movq	%rdx, -184(%rbp)        ## 8-byte Spill
	je	LBB14_12
## BB#1:
	jmp	LBB14_2
LBB14_2:                                ## =>This Inner Loop Header: Depth=1
	movq	-184(%rbp), %rax        ## 8-byte Reload
	movq	%rax, -24(%rbp)
	movq	-24(%rbp), %rcx
	addq	$16, %rcx
	movq	%rcx, -16(%rbp)
	movq	-16(%rbp), %rcx
	movq	%rcx, -8(%rbp)
	movq	-8(%rbp), %rcx
	movq	-168(%rbp), %rdx
	movq	-176(%rbp), %rsi
	addq	$28, %rsi
	movq	%rcx, -32(%rbp)
	movq	%rdx, -40(%rbp)
	movq	%rsi, -48(%rbp)
	movq	-40(%rbp), %rcx
	movl	(%rcx), %edi
	movq	-48(%rbp), %rcx
	cmpl	(%rcx), %edi
	jge	LBB14_7
## BB#3:                                ##   in Loop: Header=BB14_2 Depth=1
	movq	-176(%rbp), %rax
	cmpq	$0, (%rax)
	je	LBB14_5
## BB#4:                                ##   in Loop: Header=BB14_2 Depth=1
	movq	-176(%rbp), %rax
	movq	(%rax), %rax
	movq	%rax, -176(%rbp)
	jmp	LBB14_6
LBB14_5:
	movq	-176(%rbp), %rax
	movq	-160(%rbp), %rcx
	movq	%rax, (%rcx)
	movq	-160(%rbp), %rax
	movq	(%rax), %rax
	movq	%rax, -144(%rbp)
	jmp	LBB14_13
LBB14_6:                                ##   in Loop: Header=BB14_2 Depth=1
	jmp	LBB14_11
LBB14_7:                                ##   in Loop: Header=BB14_2 Depth=1
	movq	-176(%rbp), %rax
	cmpq	$0, 8(%rax)
	je	LBB14_9
## BB#8:                                ##   in Loop: Header=BB14_2 Depth=1
	movq	-176(%rbp), %rax
	movq	8(%rax), %rax
	movq	%rax, -176(%rbp)
	jmp	LBB14_10
LBB14_9:
	movq	-176(%rbp), %rax
	movq	-160(%rbp), %rcx
	movq	%rax, (%rcx)
	movq	-160(%rbp), %rax
	movq	(%rax), %rax
	addq	$8, %rax
	movq	%rax, -144(%rbp)
	jmp	LBB14_13
LBB14_10:                               ##   in Loop: Header=BB14_2 Depth=1
	jmp	LBB14_11
LBB14_11:                               ##   in Loop: Header=BB14_2 Depth=1
	jmp	LBB14_2
LBB14_12:
	movq	-184(%rbp), %rax        ## 8-byte Reload
	movq	%rax, -88(%rbp)
	movq	-88(%rbp), %rcx
	addq	$8, %rcx
	movq	%rcx, -80(%rbp)
	movq	-80(%rbp), %rcx
	movq	%rcx, -72(%rbp)
	movq	-72(%rbp), %rcx
	movq	%rcx, -64(%rbp)
	movq	-64(%rbp), %rcx
	movq	%rcx, -56(%rbp)
	movq	-56(%rbp), %rcx
	movq	-160(%rbp), %rdx
	movq	%rcx, (%rdx)
	movq	-160(%rbp), %rcx
	movq	(%rcx), %rcx
	movq	%rcx, -144(%rbp)
LBB14_13:
	movq	-144(%rbp), %rax
	addq	$56, %rsp
	popq	%rbp
	retq
	.cfi_endproc

	.globl	__ZNSt3__16__treeIiNS_4lessIiEENS_9allocatorIiEEE16__insert_node_atEPNS_16__tree_node_baseIPvEERS9_S9_
	.weak_def_can_be_hidden	__ZNSt3__16__treeIiNS_4lessIiEENS_9allocatorIiEEE16__insert_node_atEPNS_16__tree_node_baseIPvEERS9_S9_
	.align	4, 0x90
__ZNSt3__16__treeIiNS_4lessIiEENS_9allocatorIiEEE16__insert_node_atEPNS_16__tree_node_baseIPvEERS9_S9_: ## @_ZNSt3__16__treeIiNS_4lessIiEENS_9allocatorIiEEE16__insert_node_atEPNS_16__tree_node_baseIPvEERS9_S9_
	.cfi_startproc
## BB#0:
	pushq	%rbp
Ltmp111:
	.cfi_def_cfa_offset 16
Ltmp112:
	.cfi_offset %rbp, -16
	movq	%rsp, %rbp
Ltmp113:
	.cfi_def_cfa_register %rbp
	subq	$128, %rsp
	movq	%rdi, -96(%rbp)
	movq	%rsi, -104(%rbp)
	movq	%rdx, -112(%rbp)
	movq	%rcx, -120(%rbp)
	movq	-96(%rbp), %rcx
	movq	-120(%rbp), %rdx
	movq	$0, (%rdx)
	movq	-120(%rbp), %rdx
	movq	$0, 8(%rdx)
	movq	-104(%rbp), %rdx
	movq	-120(%rbp), %rsi
	movq	%rdx, 16(%rsi)
	movq	-120(%rbp), %rdx
	movq	-112(%rbp), %rsi
	movq	%rdx, (%rsi)
	movq	%rcx, -88(%rbp)
	movq	-88(%rbp), %rdx
	movq	(%rdx), %rdx
	cmpq	$0, (%rdx)
	movq	%rcx, -128(%rbp)        ## 8-byte Spill
	je	LBB15_2
## BB#1:
	movq	-128(%rbp), %rax        ## 8-byte Reload
	movq	%rax, -56(%rbp)
	movq	-56(%rbp), %rcx
	movq	(%rcx), %rcx
	movq	(%rcx), %rcx
	movq	%rax, -8(%rbp)
	movq	-8(%rbp), %rdx
	movq	%rcx, (%rdx)
LBB15_2:
	movq	-128(%rbp), %rax        ## 8-byte Reload
	movq	%rax, -48(%rbp)
	movq	-48(%rbp), %rcx
	addq	$8, %rcx
	movq	%rcx, -40(%rbp)
	movq	-40(%rbp), %rcx
	movq	%rcx, -32(%rbp)
	movq	-32(%rbp), %rcx
	movq	%rcx, -24(%rbp)
	movq	-24(%rbp), %rcx
	movq	%rcx, -16(%rbp)
	movq	-16(%rbp), %rcx
	movq	(%rcx), %rdi
	movq	-112(%rbp), %rcx
	movq	(%rcx), %rsi
	callq	__ZNSt3__127__tree_balance_after_insertIPNS_16__tree_node_baseIPvEEEEvT_S5_
	movq	-128(%rbp), %rax        ## 8-byte Reload
	movq	%rax, -80(%rbp)
	movq	-80(%rbp), %rcx
	addq	$16, %rcx
	movq	%rcx, -72(%rbp)
	movq	-72(%rbp), %rcx
	movq	%rcx, -64(%rbp)
	movq	-64(%rbp), %rcx
	movq	(%rcx), %rsi
	addq	$1, %rsi
	movq	%rsi, (%rcx)
	addq	$128, %rsp
	popq	%rbp
	retq
	.cfi_endproc

	.globl	__ZNSt3__127__tree_balance_after_insertIPNS_16__tree_node_baseIPvEEEEvT_S5_
	.weak_def_can_be_hidden	__ZNSt3__127__tree_balance_after_insertIPNS_16__tree_node_baseIPvEEEEvT_S5_
	.align	4, 0x90
__ZNSt3__127__tree_balance_after_insertIPNS_16__tree_node_baseIPvEEEEvT_S5_: ## @_ZNSt3__127__tree_balance_after_insertIPNS_16__tree_node_baseIPvEEEEvT_S5_
	.cfi_startproc
## BB#0:
	pushq	%rbp
Ltmp114:
	.cfi_def_cfa_offset 16
Ltmp115:
	.cfi_offset %rbp, -16
	movq	%rsp, %rbp
Ltmp116:
	.cfi_def_cfa_register %rbp
	subq	$64, %rsp
	movq	%rdi, -32(%rbp)
	movq	%rsi, -40(%rbp)
	movq	-40(%rbp), %rsi
	cmpq	-32(%rbp), %rsi
	sete	%al
	movq	-40(%rbp), %rsi
	andb	$1, %al
	movb	%al, 24(%rsi)
LBB16_1:                                ## =>This Inner Loop Header: Depth=1
	xorl	%eax, %eax
	movb	%al, %cl
	movq	-40(%rbp), %rdx
	cmpq	-32(%rbp), %rdx
	movb	%cl, -57(%rbp)          ## 1-byte Spill
	je	LBB16_3
## BB#2:                                ##   in Loop: Header=BB16_1 Depth=1
	movq	-40(%rbp), %rax
	movq	16(%rax), %rax
	movb	24(%rax), %cl
	xorb	$1, %cl
	movb	%cl, -57(%rbp)          ## 1-byte Spill
LBB16_3:                                ##   in Loop: Header=BB16_1 Depth=1
	movb	-57(%rbp), %al          ## 1-byte Reload
	testb	$1, %al
	jne	LBB16_4
	jmp	LBB16_20
LBB16_4:                                ##   in Loop: Header=BB16_1 Depth=1
	movq	-40(%rbp), %rax
	movq	16(%rax), %rax
	movq	%rax, -24(%rbp)
	movq	-24(%rbp), %rax
	movq	-24(%rbp), %rcx
	movq	16(%rcx), %rcx
	cmpq	(%rcx), %rax
	jne	LBB16_12
## BB#5:                                ##   in Loop: Header=BB16_1 Depth=1
	movq	-40(%rbp), %rax
	movq	16(%rax), %rax
	movq	16(%rax), %rax
	movq	8(%rax), %rax
	movq	%rax, -48(%rbp)
	cmpq	$0, -48(%rbp)
	je	LBB16_8
## BB#6:                                ##   in Loop: Header=BB16_1 Depth=1
	movq	-48(%rbp), %rax
	testb	$1, 24(%rax)
	jne	LBB16_8
## BB#7:                                ##   in Loop: Header=BB16_1 Depth=1
	movq	-40(%rbp), %rax
	movq	16(%rax), %rax
	movq	%rax, -40(%rbp)
	movq	-40(%rbp), %rax
	movb	$1, 24(%rax)
	movq	-40(%rbp), %rax
	movq	16(%rax), %rax
	movq	%rax, -40(%rbp)
	movq	-40(%rbp), %rax
	cmpq	-32(%rbp), %rax
	sete	%cl
	movq	-40(%rbp), %rax
	andb	$1, %cl
	movb	%cl, 24(%rax)
	movq	-48(%rbp), %rax
	movb	$1, 24(%rax)
	jmp	LBB16_11
LBB16_8:
	movq	-40(%rbp), %rax
	movq	%rax, -16(%rbp)
	movq	-16(%rbp), %rax
	movq	-16(%rbp), %rcx
	movq	16(%rcx), %rcx
	cmpq	(%rcx), %rax
	je	LBB16_10
## BB#9:
	movq	-40(%rbp), %rax
	movq	16(%rax), %rax
	movq	%rax, -40(%rbp)
	movq	-40(%rbp), %rdi
	callq	__ZNSt3__118__tree_left_rotateIPNS_16__tree_node_baseIPvEEEEvT_
LBB16_10:
	movq	-40(%rbp), %rax
	movq	16(%rax), %rax
	movq	%rax, -40(%rbp)
	movq	-40(%rbp), %rax
	movb	$1, 24(%rax)
	movq	-40(%rbp), %rax
	movq	16(%rax), %rax
	movq	%rax, -40(%rbp)
	movq	-40(%rbp), %rax
	movb	$0, 24(%rax)
	movq	-40(%rbp), %rdi
	callq	__ZNSt3__119__tree_right_rotateIPNS_16__tree_node_baseIPvEEEEvT_
	jmp	LBB16_20
LBB16_11:                               ##   in Loop: Header=BB16_1 Depth=1
	jmp	LBB16_19
LBB16_12:                               ##   in Loop: Header=BB16_1 Depth=1
	movq	-40(%rbp), %rax
	movq	16(%rax), %rax
	movq	16(%rax), %rax
	movq	(%rax), %rax
	movq	%rax, -56(%rbp)
	cmpq	$0, -56(%rbp)
	je	LBB16_15
## BB#13:                               ##   in Loop: Header=BB16_1 Depth=1
	movq	-56(%rbp), %rax
	testb	$1, 24(%rax)
	jne	LBB16_15
## BB#14:                               ##   in Loop: Header=BB16_1 Depth=1
	movq	-40(%rbp), %rax
	movq	16(%rax), %rax
	movq	%rax, -40(%rbp)
	movq	-40(%rbp), %rax
	movb	$1, 24(%rax)
	movq	-40(%rbp), %rax
	movq	16(%rax), %rax
	movq	%rax, -40(%rbp)
	movq	-40(%rbp), %rax
	cmpq	-32(%rbp), %rax
	sete	%cl
	movq	-40(%rbp), %rax
	andb	$1, %cl
	movb	%cl, 24(%rax)
	movq	-56(%rbp), %rax
	movb	$1, 24(%rax)
	jmp	LBB16_18
LBB16_15:
	movq	-40(%rbp), %rax
	movq	%rax, -8(%rbp)
	movq	-8(%rbp), %rax
	movq	-8(%rbp), %rcx
	movq	16(%rcx), %rcx
	cmpq	(%rcx), %rax
	jne	LBB16_17
## BB#16:
	movq	-40(%rbp), %rax
	movq	16(%rax), %rax
	movq	%rax, -40(%rbp)
	movq	-40(%rbp), %rdi
	callq	__ZNSt3__119__tree_right_rotateIPNS_16__tree_node_baseIPvEEEEvT_
LBB16_17:
	movq	-40(%rbp), %rax
	movq	16(%rax), %rax
	movq	%rax, -40(%rbp)
	movq	-40(%rbp), %rax
	movb	$1, 24(%rax)
	movq	-40(%rbp), %rax
	movq	16(%rax), %rax
	movq	%rax, -40(%rbp)
	movq	-40(%rbp), %rax
	movb	$0, 24(%rax)
	movq	-40(%rbp), %rdi
	callq	__ZNSt3__118__tree_left_rotateIPNS_16__tree_node_baseIPvEEEEvT_
	jmp	LBB16_20
LBB16_18:                               ##   in Loop: Header=BB16_1 Depth=1
	jmp	LBB16_19
LBB16_19:                               ##   in Loop: Header=BB16_1 Depth=1
	jmp	LBB16_1
LBB16_20:
	addq	$64, %rsp
	popq	%rbp
	retq
	.cfi_endproc

	.globl	__ZNSt3__118__tree_left_rotateIPNS_16__tree_node_baseIPvEEEEvT_
	.weak_def_can_be_hidden	__ZNSt3__118__tree_left_rotateIPNS_16__tree_node_baseIPvEEEEvT_
	.align	4, 0x90
__ZNSt3__118__tree_left_rotateIPNS_16__tree_node_baseIPvEEEEvT_: ## @_ZNSt3__118__tree_left_rotateIPNS_16__tree_node_baseIPvEEEEvT_
	.cfi_startproc
## BB#0:
	pushq	%rbp
Ltmp117:
	.cfi_def_cfa_offset 16
Ltmp118:
	.cfi_offset %rbp, -16
	movq	%rsp, %rbp
Ltmp119:
	.cfi_def_cfa_register %rbp
	movq	%rdi, -16(%rbp)
	movq	-16(%rbp), %rdi
	movq	8(%rdi), %rdi
	movq	%rdi, -24(%rbp)
	movq	-24(%rbp), %rdi
	movq	(%rdi), %rdi
	movq	-16(%rbp), %rax
	movq	%rdi, 8(%rax)
	movq	-16(%rbp), %rax
	cmpq	$0, 8(%rax)
	je	LBB17_2
## BB#1:
	movq	-16(%rbp), %rax
	movq	-16(%rbp), %rcx
	movq	8(%rcx), %rcx
	movq	%rax, 16(%rcx)
LBB17_2:
	movq	-16(%rbp), %rax
	movq	16(%rax), %rax
	movq	-24(%rbp), %rcx
	movq	%rax, 16(%rcx)
	movq	-16(%rbp), %rax
	movq	%rax, -8(%rbp)
	movq	-8(%rbp), %rax
	movq	-8(%rbp), %rcx
	movq	16(%rcx), %rcx
	cmpq	(%rcx), %rax
	jne	LBB17_4
## BB#3:
	movq	-24(%rbp), %rax
	movq	-16(%rbp), %rcx
	movq	16(%rcx), %rcx
	movq	%rax, (%rcx)
	jmp	LBB17_5
LBB17_4:
	movq	-24(%rbp), %rax
	movq	-16(%rbp), %rcx
	movq	16(%rcx), %rcx
	movq	%rax, 8(%rcx)
LBB17_5:
	movq	-16(%rbp), %rax
	movq	-24(%rbp), %rcx
	movq	%rax, (%rcx)
	movq	-24(%rbp), %rax
	movq	-16(%rbp), %rcx
	movq	%rax, 16(%rcx)
	popq	%rbp
	retq
	.cfi_endproc

	.globl	__ZNSt3__119__tree_right_rotateIPNS_16__tree_node_baseIPvEEEEvT_
	.weak_def_can_be_hidden	__ZNSt3__119__tree_right_rotateIPNS_16__tree_node_baseIPvEEEEvT_
	.align	4, 0x90
__ZNSt3__119__tree_right_rotateIPNS_16__tree_node_baseIPvEEEEvT_: ## @_ZNSt3__119__tree_right_rotateIPNS_16__tree_node_baseIPvEEEEvT_
	.cfi_startproc
## BB#0:
	pushq	%rbp
Ltmp120:
	.cfi_def_cfa_offset 16
Ltmp121:
	.cfi_offset %rbp, -16
	movq	%rsp, %rbp
Ltmp122:
	.cfi_def_cfa_register %rbp
	movq	%rdi, -16(%rbp)
	movq	-16(%rbp), %rdi
	movq	(%rdi), %rdi
	movq	%rdi, -24(%rbp)
	movq	-24(%rbp), %rdi
	movq	8(%rdi), %rdi
	movq	-16(%rbp), %rax
	movq	%rdi, (%rax)
	movq	-16(%rbp), %rax
	cmpq	$0, (%rax)
	je	LBB18_2
## BB#1:
	movq	-16(%rbp), %rax
	movq	-16(%rbp), %rcx
	movq	(%rcx), %rcx
	movq	%rax, 16(%rcx)
LBB18_2:
	movq	-16(%rbp), %rax
	movq	16(%rax), %rax
	movq	-24(%rbp), %rcx
	movq	%rax, 16(%rcx)
	movq	-16(%rbp), %rax
	movq	%rax, -8(%rbp)
	movq	-8(%rbp), %rax
	movq	-8(%rbp), %rcx
	movq	16(%rcx), %rcx
	cmpq	(%rcx), %rax
	jne	LBB18_4
## BB#3:
	movq	-24(%rbp), %rax
	movq	-16(%rbp), %rcx
	movq	16(%rcx), %rcx
	movq	%rax, (%rcx)
	jmp	LBB18_5
LBB18_4:
	movq	-24(%rbp), %rax
	movq	-16(%rbp), %rcx
	movq	16(%rcx), %rcx
	movq	%rax, 8(%rcx)
LBB18_5:
	movq	-16(%rbp), %rax
	movq	-24(%rbp), %rcx
	movq	%rax, 8(%rcx)
	movq	-24(%rbp), %rax
	movq	-16(%rbp), %rcx
	movq	%rax, 16(%rcx)
	popq	%rbp
	retq
	.cfi_endproc

	.globl	__ZNSt3__124__put_character_sequenceIcNS_11char_traitsIcEEEERNS_13basic_ostreamIT_T0_EES7_PKS4_m
	.weak_def_can_be_hidden	__ZNSt3__124__put_character_sequenceIcNS_11char_traitsIcEEEERNS_13basic_ostreamIT_T0_EES7_PKS4_m
	.align	4, 0x90
__ZNSt3__124__put_character_sequenceIcNS_11char_traitsIcEEEERNS_13basic_ostreamIT_T0_EES7_PKS4_m: ## @_ZNSt3__124__put_character_sequenceIcNS_11char_traitsIcEEEERNS_13basic_ostreamIT_T0_EES7_PKS4_m
Lfunc_begin19:
	.cfi_startproc
	.cfi_personality 155, ___gxx_personality_v0
	.cfi_lsda 16, Lexception19
## BB#0:
	pushq	%rbp
Ltmp144:
	.cfi_def_cfa_offset 16
Ltmp145:
	.cfi_offset %rbp, -16
	movq	%rsp, %rbp
Ltmp146:
	.cfi_def_cfa_register %rbp
	subq	$384, %rsp              ## imm = 0x180
	movq	%rdi, -184(%rbp)
	movq	%rsi, -192(%rbp)
	movq	%rdx, -200(%rbp)
	movq	-184(%rbp), %rsi
Ltmp123:
	leaq	-216(%rbp), %rdi
	callq	__ZNSt3__113basic_ostreamIcNS_11char_traitsIcEEE6sentryC1ERS3_
Ltmp124:
	jmp	LBB19_1
LBB19_1:
	leaq	-216(%rbp), %rax
	movq	%rax, -176(%rbp)
	movq	-176(%rbp), %rax
	movb	(%rax), %cl
	movb	%cl, -249(%rbp)         ## 1-byte Spill
## BB#2:
	movb	-249(%rbp), %al         ## 1-byte Reload
	testb	$1, %al
	jne	LBB19_3
	jmp	LBB19_26
LBB19_3:
	leaq	-240(%rbp), %rax
	movq	-184(%rbp), %rcx
	movq	%rax, -160(%rbp)
	movq	%rcx, -168(%rbp)
	movq	-160(%rbp), %rax
	movq	-168(%rbp), %rcx
	movq	%rax, -144(%rbp)
	movq	%rcx, -152(%rbp)
	movq	-144(%rbp), %rax
	movq	-152(%rbp), %rcx
	movq	(%rcx), %rdx
	movq	-24(%rdx), %rdx
	addq	%rdx, %rcx
	movq	%rcx, -136(%rbp)
	movq	-136(%rbp), %rcx
	movq	%rcx, -128(%rbp)
	movq	-128(%rbp), %rcx
	movq	40(%rcx), %rcx
	movq	%rcx, (%rax)
	movq	-192(%rbp), %rsi
	movq	-184(%rbp), %rax
	movq	(%rax), %rcx
	movq	-24(%rcx), %rcx
	addq	%rcx, %rax
	movq	%rax, -88(%rbp)
	movq	-88(%rbp), %rax
	movl	8(%rax), %edi
	movq	%rsi, -264(%rbp)        ## 8-byte Spill
	movl	%edi, -268(%rbp)        ## 4-byte Spill
## BB#4:
	movl	-268(%rbp), %eax        ## 4-byte Reload
	andl	$176, %eax
	cmpl	$32, %eax
	jne	LBB19_6
## BB#5:
	movq	-192(%rbp), %rax
	addq	-200(%rbp), %rax
	movq	%rax, -280(%rbp)        ## 8-byte Spill
	jmp	LBB19_7
LBB19_6:
	movq	-192(%rbp), %rax
	movq	%rax, -280(%rbp)        ## 8-byte Spill
LBB19_7:
	movq	-280(%rbp), %rax        ## 8-byte Reload
	movq	-192(%rbp), %rcx
	addq	-200(%rbp), %rcx
	movq	-184(%rbp), %rdx
	movq	(%rdx), %rsi
	movq	-24(%rsi), %rsi
	addq	%rsi, %rdx
	movq	-184(%rbp), %rsi
	movq	(%rsi), %rdi
	movq	-24(%rdi), %rdi
	addq	%rdi, %rsi
	movq	%rsi, -72(%rbp)
	movq	-72(%rbp), %rsi
	movq	%rax, -288(%rbp)        ## 8-byte Spill
	movq	%rcx, -296(%rbp)        ## 8-byte Spill
	movq	%rdx, -304(%rbp)        ## 8-byte Spill
	movq	%rsi, -312(%rbp)        ## 8-byte Spill
	callq	__ZNSt3__111char_traitsIcE3eofEv
	movq	-312(%rbp), %rcx        ## 8-byte Reload
	movl	144(%rcx), %esi
	movl	%eax, %edi
	callq	__ZNSt3__111char_traitsIcE11eq_int_typeEii
	testb	$1, %al
	jne	LBB19_8
	jmp	LBB19_13
LBB19_8:
	movq	-312(%rbp), %rax        ## 8-byte Reload
	movq	%rax, -32(%rbp)
	movb	$32, -33(%rbp)
	movq	-32(%rbp), %rsi
Ltmp126:
	leaq	-48(%rbp), %rdi
	callq	__ZNKSt3__18ios_base6getlocEv
Ltmp127:
	jmp	LBB19_9
LBB19_9:                                ## %.noexc
	leaq	-48(%rbp), %rax
	movq	%rax, -24(%rbp)
Ltmp128:
	movq	__ZNSt3__15ctypeIcE2idE@GOTPCREL(%rip), %rsi
	movq	%rax, %rdi
	callq	__ZNKSt3__16locale9use_facetERNS0_2idE
Ltmp129:
	movq	%rax, -320(%rbp)        ## 8-byte Spill
	jmp	LBB19_10
LBB19_10:                               ## %_ZNSt3__19use_facetINS_5ctypeIcEEEERKT_RKNS_6localeE.exit.i.i
	movb	-33(%rbp), %al
	movq	-320(%rbp), %rcx        ## 8-byte Reload
	movq	%rcx, -8(%rbp)
	movb	%al, -9(%rbp)
	movq	-8(%rbp), %rdx
	movq	(%rdx), %rsi
	movq	56(%rsi), %rsi
	movsbl	-9(%rbp), %edi
Ltmp130:
	movl	%edi, -324(%rbp)        ## 4-byte Spill
	movq	%rdx, %rdi
	movl	-324(%rbp), %r8d        ## 4-byte Reload
	movq	%rsi, -336(%rbp)        ## 8-byte Spill
	movl	%r8d, %esi
	movq	-336(%rbp), %rdx        ## 8-byte Reload
	callq	*%rdx
Ltmp131:
	movb	%al, -337(%rbp)         ## 1-byte Spill
	jmp	LBB19_12
LBB19_11:
Ltmp132:
	movl	%edx, %ecx
	movq	%rax, -56(%rbp)
	movl	%ecx, -60(%rbp)
	leaq	-48(%rbp), %rdi
	callq	__ZNSt3__16localeD1Ev
	movq	-56(%rbp), %rax
	movl	-60(%rbp), %ecx
	movq	%rax, -352(%rbp)        ## 8-byte Spill
	movl	%ecx, -356(%rbp)        ## 4-byte Spill
	jmp	LBB19_21
LBB19_12:                               ## %_ZNKSt3__19basic_iosIcNS_11char_traitsIcEEE5widenEc.exit.i
	leaq	-48(%rbp), %rdi
	callq	__ZNSt3__16localeD1Ev
	movb	-337(%rbp), %al         ## 1-byte Reload
	movsbl	%al, %ecx
	movq	-312(%rbp), %rdi        ## 8-byte Reload
	movl	%ecx, 144(%rdi)
LBB19_13:                               ## %_ZNKSt3__19basic_iosIcNS_11char_traitsIcEEE4fillEv.exit
	movq	-312(%rbp), %rax        ## 8-byte Reload
	movl	144(%rax), %ecx
	movb	%cl, %dl
	movb	%dl, -357(%rbp)         ## 1-byte Spill
## BB#14:
	movq	-240(%rbp), %rdi
Ltmp133:
	movb	-357(%rbp), %al         ## 1-byte Reload
	movsbl	%al, %r9d
	movq	-264(%rbp), %rsi        ## 8-byte Reload
	movq	-288(%rbp), %rdx        ## 8-byte Reload
	movq	-296(%rbp), %rcx        ## 8-byte Reload
	movq	-304(%rbp), %r8         ## 8-byte Reload
	callq	__ZNSt3__116__pad_and_outputIcNS_11char_traitsIcEEEENS_19ostreambuf_iteratorIT_T0_EES6_PKS4_S8_S8_RNS_8ios_baseES4_
Ltmp134:
	movq	%rax, -368(%rbp)        ## 8-byte Spill
	jmp	LBB19_15
LBB19_15:
	leaq	-248(%rbp), %rax
	movq	-368(%rbp), %rcx        ## 8-byte Reload
	movq	%rcx, -248(%rbp)
	movq	%rax, -80(%rbp)
	movq	-80(%rbp), %rax
	cmpq	$0, (%rax)
	jne	LBB19_25
## BB#16:
	movq	-184(%rbp), %rax
	movq	(%rax), %rcx
	movq	-24(%rcx), %rcx
	addq	%rcx, %rax
	movq	%rax, -112(%rbp)
	movl	$5, -116(%rbp)
	movq	-112(%rbp), %rax
	movq	%rax, -96(%rbp)
	movl	$5, -100(%rbp)
	movq	-96(%rbp), %rax
	movl	32(%rax), %edx
	orl	$5, %edx
Ltmp135:
	movq	%rax, %rdi
	movl	%edx, %esi
	callq	__ZNSt3__18ios_base5clearEj
Ltmp136:
	jmp	LBB19_17
LBB19_17:                               ## %_ZNSt3__19basic_iosIcNS_11char_traitsIcEEE8setstateEj.exit
	jmp	LBB19_18
LBB19_18:
	jmp	LBB19_25
LBB19_19:
Ltmp125:
	movl	%edx, %ecx
	movq	%rax, -224(%rbp)
	movl	%ecx, -228(%rbp)
	jmp	LBB19_22
LBB19_20:
Ltmp137:
	movl	%edx, %ecx
	movq	%rax, -352(%rbp)        ## 8-byte Spill
	movl	%ecx, -356(%rbp)        ## 4-byte Spill
	jmp	LBB19_21
LBB19_21:                               ## %.body
	movl	-356(%rbp), %eax        ## 4-byte Reload
	movq	-352(%rbp), %rcx        ## 8-byte Reload
	leaq	-216(%rbp), %rdi
	movq	%rcx, -224(%rbp)
	movl	%eax, -228(%rbp)
	callq	__ZNSt3__113basic_ostreamIcNS_11char_traitsIcEEE6sentryD1Ev
LBB19_22:
	movq	-224(%rbp), %rdi
	callq	___cxa_begin_catch
	movq	-184(%rbp), %rdi
	movq	(%rdi), %rcx
	movq	-24(%rcx), %rcx
	addq	%rcx, %rdi
Ltmp138:
	movq	%rax, -376(%rbp)        ## 8-byte Spill
	callq	__ZNSt3__18ios_base33__set_badbit_and_consider_rethrowEv
Ltmp139:
	jmp	LBB19_23
LBB19_23:
	callq	___cxa_end_catch
LBB19_24:
	movq	-184(%rbp), %rax
	addq	$384, %rsp              ## imm = 0x180
	popq	%rbp
	retq
LBB19_25:
	jmp	LBB19_26
LBB19_26:
	leaq	-216(%rbp), %rdi
	callq	__ZNSt3__113basic_ostreamIcNS_11char_traitsIcEEE6sentryD1Ev
	jmp	LBB19_24
LBB19_27:
Ltmp140:
	movl	%edx, %ecx
	movq	%rax, -224(%rbp)
	movl	%ecx, -228(%rbp)
Ltmp141:
	callq	___cxa_end_catch
Ltmp142:
	jmp	LBB19_28
LBB19_28:
	jmp	LBB19_29
LBB19_29:
	movq	-224(%rbp), %rdi
	callq	__Unwind_Resume
LBB19_30:
Ltmp143:
	movl	%edx, %ecx
	movq	%rax, %rdi
	movl	%ecx, -380(%rbp)        ## 4-byte Spill
	callq	___clang_call_terminate
Lfunc_end19:
	.cfi_endproc
	.section	__TEXT,__gcc_except_tab
	.align	2
GCC_except_table19:
Lexception19:
	.byte	255                     ## @LPStart Encoding = omit
	.byte	155                     ## @TType Encoding = indirect pcrel sdata4
	.asciz	"\201\201\200\200"      ## @TType base offset
	.byte	3                       ## Call site Encoding = udata4
	.byte	117                     ## Call site table length
Lset19 = Ltmp123-Lfunc_begin19          ## >> Call Site 1 <<
	.long	Lset19
Lset20 = Ltmp124-Ltmp123                ##   Call between Ltmp123 and Ltmp124
	.long	Lset20
Lset21 = Ltmp125-Lfunc_begin19          ##     jumps to Ltmp125
	.long	Lset21
	.byte	5                       ##   On action: 3
Lset22 = Ltmp126-Lfunc_begin19          ## >> Call Site 2 <<
	.long	Lset22
Lset23 = Ltmp127-Ltmp126                ##   Call between Ltmp126 and Ltmp127
	.long	Lset23
Lset24 = Ltmp137-Lfunc_begin19          ##     jumps to Ltmp137
	.long	Lset24
	.byte	5                       ##   On action: 3
Lset25 = Ltmp128-Lfunc_begin19          ## >> Call Site 3 <<
	.long	Lset25
Lset26 = Ltmp131-Ltmp128                ##   Call between Ltmp128 and Ltmp131
	.long	Lset26
Lset27 = Ltmp132-Lfunc_begin19          ##     jumps to Ltmp132
	.long	Lset27
	.byte	3                       ##   On action: 2
Lset28 = Ltmp133-Lfunc_begin19          ## >> Call Site 4 <<
	.long	Lset28
Lset29 = Ltmp136-Ltmp133                ##   Call between Ltmp133 and Ltmp136
	.long	Lset29
Lset30 = Ltmp137-Lfunc_begin19          ##     jumps to Ltmp137
	.long	Lset30
	.byte	5                       ##   On action: 3
Lset31 = Ltmp136-Lfunc_begin19          ## >> Call Site 5 <<
	.long	Lset31
Lset32 = Ltmp138-Ltmp136                ##   Call between Ltmp136 and Ltmp138
	.long	Lset32
	.long	0                       ##     has no landing pad
	.byte	0                       ##   On action: cleanup
Lset33 = Ltmp138-Lfunc_begin19          ## >> Call Site 6 <<
	.long	Lset33
Lset34 = Ltmp139-Ltmp138                ##   Call between Ltmp138 and Ltmp139
	.long	Lset34
Lset35 = Ltmp140-Lfunc_begin19          ##     jumps to Ltmp140
	.long	Lset35
	.byte	0                       ##   On action: cleanup
Lset36 = Ltmp139-Lfunc_begin19          ## >> Call Site 7 <<
	.long	Lset36
Lset37 = Ltmp141-Ltmp139                ##   Call between Ltmp139 and Ltmp141
	.long	Lset37
	.long	0                       ##     has no landing pad
	.byte	0                       ##   On action: cleanup
Lset38 = Ltmp141-Lfunc_begin19          ## >> Call Site 8 <<
	.long	Lset38
Lset39 = Ltmp142-Ltmp141                ##   Call between Ltmp141 and Ltmp142
	.long	Lset39
Lset40 = Ltmp143-Lfunc_begin19          ##     jumps to Ltmp143
	.long	Lset40
	.byte	5                       ##   On action: 3
Lset41 = Ltmp142-Lfunc_begin19          ## >> Call Site 9 <<
	.long	Lset41
Lset42 = Lfunc_end19-Ltmp142            ##   Call between Ltmp142 and Lfunc_end19
	.long	Lset42
	.long	0                       ##     has no landing pad
	.byte	0                       ##   On action: cleanup
	.byte	0                       ## >> Action Record 1 <<
                                        ##   Cleanup
	.byte	0                       ##   No further actions
	.byte	1                       ## >> Action Record 2 <<
                                        ##   Catch TypeInfo 1
	.byte	125                     ##   Continue to action 1
	.byte	1                       ## >> Action Record 3 <<
                                        ##   Catch TypeInfo 1
	.byte	0                       ##   No further actions
                                        ## >> Catch TypeInfos <<
	.long	0                       ## TypeInfo 1
	.align	2

	.section	__TEXT,__textcoal_nt,coalesced,pure_instructions
	.globl	__ZNSt3__111char_traitsIcE6lengthEPKc
	.weak_def_can_be_hidden	__ZNSt3__111char_traitsIcE6lengthEPKc
	.align	4, 0x90
__ZNSt3__111char_traitsIcE6lengthEPKc:  ## @_ZNSt3__111char_traitsIcE6lengthEPKc
	.cfi_startproc
## BB#0:
	pushq	%rbp
Ltmp147:
	.cfi_def_cfa_offset 16
Ltmp148:
	.cfi_offset %rbp, -16
	movq	%rsp, %rbp
Ltmp149:
	.cfi_def_cfa_register %rbp
	subq	$16, %rsp
	movq	%rdi, -8(%rbp)
	movq	-8(%rbp), %rdi
	callq	_strlen
	addq	$16, %rsp
	popq	%rbp
	retq
	.cfi_endproc

	.private_extern	__ZNSt3__116__pad_and_outputIcNS_11char_traitsIcEEEENS_19ostreambuf_iteratorIT_T0_EES6_PKS4_S8_S8_RNS_8ios_baseES4_
	.globl	__ZNSt3__116__pad_and_outputIcNS_11char_traitsIcEEEENS_19ostreambuf_iteratorIT_T0_EES6_PKS4_S8_S8_RNS_8ios_baseES4_
	.weak_def_can_be_hidden	__ZNSt3__116__pad_and_outputIcNS_11char_traitsIcEEEENS_19ostreambuf_iteratorIT_T0_EES6_PKS4_S8_S8_RNS_8ios_baseES4_
	.align	4, 0x90
__ZNSt3__116__pad_and_outputIcNS_11char_traitsIcEEEENS_19ostreambuf_iteratorIT_T0_EES6_PKS4_S8_S8_RNS_8ios_baseES4_: ## @_ZNSt3__116__pad_and_outputIcNS_11char_traitsIcEEEENS_19ostreambuf_iteratorIT_T0_EES6_PKS4_S8_S8_RNS_8ios_baseES4_
Lfunc_begin21:
	.cfi_startproc
	.cfi_personality 155, ___gxx_personality_v0
	.cfi_lsda 16, Lexception21
## BB#0:
	pushq	%rbp
Ltmp153:
	.cfi_def_cfa_offset 16
Ltmp154:
	.cfi_offset %rbp, -16
	movq	%rsp, %rbp
Ltmp155:
	.cfi_def_cfa_register %rbp
	subq	$480, %rsp              ## imm = 0x1E0
	movb	%r9b, %al
	movq	%rdi, -312(%rbp)
	movq	%rsi, -320(%rbp)
	movq	%rdx, -328(%rbp)
	movq	%rcx, -336(%rbp)
	movq	%r8, -344(%rbp)
	movb	%al, -345(%rbp)
	cmpq	$0, -312(%rbp)
	jne	LBB21_2
## BB#1:
	movq	-312(%rbp), %rax
	movq	%rax, -304(%rbp)
	jmp	LBB21_26
LBB21_2:
	movq	-336(%rbp), %rax
	movq	-320(%rbp), %rcx
	subq	%rcx, %rax
	movq	%rax, -360(%rbp)
	movq	-344(%rbp), %rax
	movq	%rax, -296(%rbp)
	movq	-296(%rbp), %rax
	movq	24(%rax), %rax
	movq	%rax, -368(%rbp)
	movq	-368(%rbp), %rax
	cmpq	-360(%rbp), %rax
	jle	LBB21_4
## BB#3:
	movq	-360(%rbp), %rax
	movq	-368(%rbp), %rcx
	subq	%rax, %rcx
	movq	%rcx, -368(%rbp)
	jmp	LBB21_5
LBB21_4:
	movq	$0, -368(%rbp)
LBB21_5:
	movq	-328(%rbp), %rax
	movq	-320(%rbp), %rcx
	subq	%rcx, %rax
	movq	%rax, -376(%rbp)
	cmpq	$0, -376(%rbp)
	jle	LBB21_9
## BB#6:
	movq	-312(%rbp), %rax
	movq	-320(%rbp), %rcx
	movq	-376(%rbp), %rdx
	movq	%rax, -224(%rbp)
	movq	%rcx, -232(%rbp)
	movq	%rdx, -240(%rbp)
	movq	-224(%rbp), %rax
	movq	(%rax), %rcx
	movq	96(%rcx), %rcx
	movq	-232(%rbp), %rsi
	movq	-240(%rbp), %rdx
	movq	%rax, %rdi
	callq	*%rcx
	cmpq	-376(%rbp), %rax
	je	LBB21_8
## BB#7:
	movq	$0, -312(%rbp)
	movq	-312(%rbp), %rax
	movq	%rax, -304(%rbp)
	jmp	LBB21_26
LBB21_8:
	jmp	LBB21_9
LBB21_9:
	cmpq	$0, -368(%rbp)
	jle	LBB21_21
## BB#10:
	leaq	-400(%rbp), %rax
	movq	-368(%rbp), %rcx
	movb	-345(%rbp), %dl
	movq	%rax, -200(%rbp)
	movq	%rcx, -208(%rbp)
	movb	%dl, -209(%rbp)
	movq	-200(%rbp), %rax
	movq	-208(%rbp), %rcx
	movb	-209(%rbp), %dl
	movq	%rax, -176(%rbp)
	movq	%rcx, -184(%rbp)
	movb	%dl, -185(%rbp)
	movq	-176(%rbp), %rax
	movq	%rax, -168(%rbp)
	movq	-168(%rbp), %rcx
	movq	%rcx, -160(%rbp)
	movq	-160(%rbp), %rcx
	movq	%rcx, -152(%rbp)
	movq	-152(%rbp), %rcx
	movq	%rcx, -144(%rbp)
	movq	-184(%rbp), %rsi
	movq	%rax, %rdi
	movsbl	-185(%rbp), %edx
	callq	__ZNSt3__112basic_stringIcNS_11char_traitsIcEENS_9allocatorIcEEE6__initEmc
	leaq	-400(%rbp), %rax
	movq	-312(%rbp), %rcx
	movq	%rax, -136(%rbp)
	movq	-136(%rbp), %rax
	movq	%rax, -128(%rbp)
	movq	-128(%rbp), %rax
	movq	%rax, -120(%rbp)
	movq	-120(%rbp), %rsi
	movq	%rsi, -112(%rbp)
	movq	-112(%rbp), %rsi
	movq	%rsi, -104(%rbp)
	movq	-104(%rbp), %rsi
	movzbl	(%rsi), %edx
	andl	$1, %edx
	cmpl	$0, %edx
	movq	%rcx, -424(%rbp)        ## 8-byte Spill
	movq	%rax, -432(%rbp)        ## 8-byte Spill
	je	LBB21_12
## BB#11:
	movq	-432(%rbp), %rax        ## 8-byte Reload
	movq	%rax, -56(%rbp)
	movq	-56(%rbp), %rcx
	movq	%rcx, -48(%rbp)
	movq	-48(%rbp), %rcx
	movq	%rcx, -40(%rbp)
	movq	-40(%rbp), %rcx
	movq	16(%rcx), %rcx
	movq	%rcx, -440(%rbp)        ## 8-byte Spill
	jmp	LBB21_13
LBB21_12:
	movq	-432(%rbp), %rax        ## 8-byte Reload
	movq	%rax, -96(%rbp)
	movq	-96(%rbp), %rcx
	movq	%rcx, -88(%rbp)
	movq	-88(%rbp), %rcx
	movq	%rcx, -80(%rbp)
	movq	-80(%rbp), %rcx
	addq	$1, %rcx
	movq	%rcx, -72(%rbp)
	movq	-72(%rbp), %rcx
	movq	%rcx, -64(%rbp)
	movq	-64(%rbp), %rcx
	movq	%rcx, -440(%rbp)        ## 8-byte Spill
LBB21_13:                               ## %_ZNKSt3__112basic_stringIcNS_11char_traitsIcEENS_9allocatorIcEEE4dataEv.exit
	movq	-440(%rbp), %rax        ## 8-byte Reload
	movq	%rax, -32(%rbp)
	movq	-368(%rbp), %rcx
	movq	-424(%rbp), %rdx        ## 8-byte Reload
	movq	%rdx, -8(%rbp)
	movq	%rax, -16(%rbp)
	movq	%rcx, -24(%rbp)
	movq	-8(%rbp), %rax
	movq	(%rax), %rsi
	movq	96(%rsi), %rsi
	movq	-16(%rbp), %rdi
Ltmp150:
	movq	%rdi, -448(%rbp)        ## 8-byte Spill
	movq	%rax, %rdi
	movq	-448(%rbp), %rax        ## 8-byte Reload
	movq	%rsi, -456(%rbp)        ## 8-byte Spill
	movq	%rax, %rsi
	movq	%rcx, %rdx
	movq	-456(%rbp), %rcx        ## 8-byte Reload
	callq	*%rcx
Ltmp151:
	movq	%rax, -464(%rbp)        ## 8-byte Spill
	jmp	LBB21_14
LBB21_14:                               ## %_ZNSt3__115basic_streambufIcNS_11char_traitsIcEEE5sputnEPKcl.exit
	jmp	LBB21_15
LBB21_15:
	movq	-464(%rbp), %rax        ## 8-byte Reload
	cmpq	-368(%rbp), %rax
	je	LBB21_18
## BB#16:
	movq	$0, -312(%rbp)
	movq	-312(%rbp), %rax
	movq	%rax, -304(%rbp)
	movl	$1, -416(%rbp)
	jmp	LBB21_19
LBB21_17:
Ltmp152:
	leaq	-400(%rbp), %rdi
	movl	%edx, %ecx
	movq	%rax, -408(%rbp)
	movl	%ecx, -412(%rbp)
	callq	__ZNSt3__112basic_stringIcNS_11char_traitsIcEENS_9allocatorIcEEED1Ev
	jmp	LBB21_27
LBB21_18:
	movl	$0, -416(%rbp)
LBB21_19:
	leaq	-400(%rbp), %rdi
	callq	__ZNSt3__112basic_stringIcNS_11char_traitsIcEENS_9allocatorIcEEED1Ev
	movl	-416(%rbp), %eax
	subl	$1, %eax
	movl	%eax, -468(%rbp)        ## 4-byte Spill
	je	LBB21_26
	jmp	LBB21_20
LBB21_20:
	jmp	LBB21_21
LBB21_21:
	movq	-336(%rbp), %rax
	movq	-328(%rbp), %rcx
	subq	%rcx, %rax
	movq	%rax, -376(%rbp)
	cmpq	$0, -376(%rbp)
	jle	LBB21_25
## BB#22:
	movq	-312(%rbp), %rax
	movq	-328(%rbp), %rcx
	movq	-376(%rbp), %rdx
	movq	%rax, -248(%rbp)
	movq	%rcx, -256(%rbp)
	movq	%rdx, -264(%rbp)
	movq	-248(%rbp), %rax
	movq	(%rax), %rcx
	movq	96(%rcx), %rcx
	movq	-256(%rbp), %rsi
	movq	-264(%rbp), %rdx
	movq	%rax, %rdi
	callq	*%rcx
	cmpq	-376(%rbp), %rax
	je	LBB21_24
## BB#23:
	movq	$0, -312(%rbp)
	movq	-312(%rbp), %rax
	movq	%rax, -304(%rbp)
	jmp	LBB21_26
LBB21_24:
	jmp	LBB21_25
LBB21_25:
	movq	-344(%rbp), %rax
	movq	%rax, -272(%rbp)
	movq	$0, -280(%rbp)
	movq	-272(%rbp), %rax
	movq	24(%rax), %rcx
	movq	%rcx, -288(%rbp)
	movq	-280(%rbp), %rcx
	movq	%rcx, 24(%rax)
	movq	-312(%rbp), %rax
	movq	%rax, -304(%rbp)
LBB21_26:
	movq	-304(%rbp), %rax
	addq	$480, %rsp              ## imm = 0x1E0
	popq	%rbp
	retq
LBB21_27:
	movq	-408(%rbp), %rdi
	callq	__Unwind_Resume
## BB#28:
Lfunc_end21:
	.cfi_endproc
	.section	__TEXT,__gcc_except_tab
	.align	2
GCC_except_table21:
Lexception21:
	.byte	255                     ## @LPStart Encoding = omit
	.byte	155                     ## @TType Encoding = indirect pcrel sdata4
	.byte	41                      ## @TType base offset
	.byte	3                       ## Call site Encoding = udata4
	.byte	39                      ## Call site table length
Lset43 = Lfunc_begin21-Lfunc_begin21    ## >> Call Site 1 <<
	.long	Lset43
Lset44 = Ltmp150-Lfunc_begin21          ##   Call between Lfunc_begin21 and Ltmp150
	.long	Lset44
	.long	0                       ##     has no landing pad
	.byte	0                       ##   On action: cleanup
Lset45 = Ltmp150-Lfunc_begin21          ## >> Call Site 2 <<
	.long	Lset45
Lset46 = Ltmp151-Ltmp150                ##   Call between Ltmp150 and Ltmp151
	.long	Lset46
Lset47 = Ltmp152-Lfunc_begin21          ##     jumps to Ltmp152
	.long	Lset47
	.byte	0                       ##   On action: cleanup
Lset48 = Ltmp151-Lfunc_begin21          ## >> Call Site 3 <<
	.long	Lset48
Lset49 = Lfunc_end21-Ltmp151            ##   Call between Ltmp151 and Lfunc_end21
	.long	Lset49
	.long	0                       ##     has no landing pad
	.byte	0                       ##   On action: cleanup
	.align	2

	.section	__TEXT,__textcoal_nt,coalesced,pure_instructions
	.globl	__ZNSt3__111char_traitsIcE11eq_int_typeEii
	.weak_def_can_be_hidden	__ZNSt3__111char_traitsIcE11eq_int_typeEii
	.align	4, 0x90
__ZNSt3__111char_traitsIcE11eq_int_typeEii: ## @_ZNSt3__111char_traitsIcE11eq_int_typeEii
	.cfi_startproc
## BB#0:
	pushq	%rbp
Ltmp156:
	.cfi_def_cfa_offset 16
Ltmp157:
	.cfi_offset %rbp, -16
	movq	%rsp, %rbp
Ltmp158:
	.cfi_def_cfa_register %rbp
	movl	%edi, -4(%rbp)
	movl	%esi, -8(%rbp)
	movl	-4(%rbp), %esi
	cmpl	-8(%rbp), %esi
	sete	%al
	andb	$1, %al
	movzbl	%al, %eax
	popq	%rbp
	retq
	.cfi_endproc

	.globl	__ZNSt3__111char_traitsIcE3eofEv
	.weak_def_can_be_hidden	__ZNSt3__111char_traitsIcE3eofEv
	.align	4, 0x90
__ZNSt3__111char_traitsIcE3eofEv:       ## @_ZNSt3__111char_traitsIcE3eofEv
	.cfi_startproc
## BB#0:
	pushq	%rbp
Ltmp159:
	.cfi_def_cfa_offset 16
Ltmp160:
	.cfi_offset %rbp, -16
	movq	%rsp, %rbp
Ltmp161:
	.cfi_def_cfa_register %rbp
	movl	$4294967295, %eax       ## imm = 0xFFFFFFFF
	popq	%rbp
	retq
	.cfi_endproc

	.globl	__ZNSt3__1lsINS_11char_traitsIcEEEERNS_13basic_ostreamIcT_EES6_c
	.weak_def_can_be_hidden	__ZNSt3__1lsINS_11char_traitsIcEEEERNS_13basic_ostreamIcT_EES6_c
	.align	4, 0x90
__ZNSt3__1lsINS_11char_traitsIcEEEERNS_13basic_ostreamIcT_EES6_c: ## @_ZNSt3__1lsINS_11char_traitsIcEEEERNS_13basic_ostreamIcT_EES6_c
	.cfi_startproc
## BB#0:
	pushq	%rbp
Ltmp162:
	.cfi_def_cfa_offset 16
Ltmp163:
	.cfi_offset %rbp, -16
	movq	%rsp, %rbp
Ltmp164:
	.cfi_def_cfa_register %rbp
	subq	$16, %rsp
	movb	%sil, %al
	leaq	-9(%rbp), %rsi
	movl	$1, %ecx
	movl	%ecx, %edx
	movq	%rdi, -8(%rbp)
	movb	%al, -9(%rbp)
	movq	-8(%rbp), %rdi
	callq	__ZNSt3__124__put_character_sequenceIcNS_11char_traitsIcEEEERNS_13basic_ostreamIT_T0_EES7_PKS4_m
	addq	$16, %rsp
	popq	%rbp
	retq
	.cfi_endproc

	.globl	__ZNSt3__111__tree_nextIPNS_16__tree_node_baseIPvEEEET_S5_
	.weak_def_can_be_hidden	__ZNSt3__111__tree_nextIPNS_16__tree_node_baseIPvEEEET_S5_
	.align	4, 0x90
__ZNSt3__111__tree_nextIPNS_16__tree_node_baseIPvEEEET_S5_: ## @_ZNSt3__111__tree_nextIPNS_16__tree_node_baseIPvEEEET_S5_
	.cfi_startproc
## BB#0:
	pushq	%rbp
Ltmp165:
	.cfi_def_cfa_offset 16
Ltmp166:
	.cfi_offset %rbp, -16
	movq	%rsp, %rbp
Ltmp167:
	.cfi_def_cfa_register %rbp
	movq	%rdi, -32(%rbp)
	movq	-32(%rbp), %rdi
	cmpq	$0, 8(%rdi)
	je	LBB25_5
## BB#1:
	movq	-32(%rbp), %rax
	movq	8(%rax), %rax
	movq	%rax, -16(%rbp)
LBB25_2:                                ## =>This Inner Loop Header: Depth=1
	movq	-16(%rbp), %rax
	cmpq	$0, (%rax)
	je	LBB25_4
## BB#3:                                ##   in Loop: Header=BB25_2 Depth=1
	movq	-16(%rbp), %rax
	movq	(%rax), %rax
	movq	%rax, -16(%rbp)
	jmp	LBB25_2
LBB25_4:                                ## %_ZNSt3__110__tree_minIPNS_16__tree_node_baseIPvEEEET_S5_.exit
	movq	-16(%rbp), %rax
	movq	%rax, -24(%rbp)
	jmp	LBB25_9
LBB25_5:
	jmp	LBB25_6
LBB25_6:                                ## =>This Inner Loop Header: Depth=1
	movq	-32(%rbp), %rax
	movq	%rax, -8(%rbp)
	movq	-8(%rbp), %rax
	movq	-8(%rbp), %rcx
	movq	16(%rcx), %rcx
	cmpq	(%rcx), %rax
	sete	%dl
	xorb	$1, %dl
	testb	$1, %dl
	jne	LBB25_7
	jmp	LBB25_8
LBB25_7:                                ##   in Loop: Header=BB25_6 Depth=1
	movq	-32(%rbp), %rax
	movq	16(%rax), %rax
	movq	%rax, -32(%rbp)
	jmp	LBB25_6
LBB25_8:
	movq	-32(%rbp), %rax
	movq	16(%rax), %rax
	movq	%rax, -24(%rbp)
LBB25_9:
	movq	-24(%rbp), %rax
	popq	%rbp
	retq
	.cfi_endproc

	.globl	__ZNKSt3__16__treeIiNS_4lessIiEENS_9allocatorIiEEE13__count_multiIiEEmRKT_
	.weak_def_can_be_hidden	__ZNKSt3__16__treeIiNS_4lessIiEENS_9allocatorIiEEE13__count_multiIiEEmRKT_
	.align	4, 0x90
__ZNKSt3__16__treeIiNS_4lessIiEENS_9allocatorIiEEE13__count_multiIiEEmRKT_: ## @_ZNKSt3__16__treeIiNS_4lessIiEENS_9allocatorIiEEE13__count_multiIiEEmRKT_
	.cfi_startproc
## BB#0:
	pushq	%rbp
Ltmp168:
	.cfi_def_cfa_offset 16
Ltmp169:
	.cfi_offset %rbp, -16
	movq	%rsp, %rbp
Ltmp170:
	.cfi_def_cfa_register %rbp
	subq	$384, %rsp              ## imm = 0x180
	movq	%rdi, -320(%rbp)
	movq	%rsi, -328(%rbp)
	movq	-320(%rbp), %rsi
	movq	%rsi, -304(%rbp)
	movq	-304(%rbp), %rdi
	addq	$8, %rdi
	movq	%rdi, -296(%rbp)
	movq	-296(%rbp), %rdi
	movq	%rdi, -288(%rbp)
	movq	-288(%rbp), %rdi
	movq	%rdi, -280(%rbp)
	movq	-280(%rbp), %rdi
	movq	%rdi, -272(%rbp)
	movq	-272(%rbp), %rdi
	movq	%rdi, -336(%rbp)
	movq	%rsi, -144(%rbp)
	movq	-144(%rbp), %rdi
	movq	%rdi, -136(%rbp)
	movq	-136(%rbp), %rdi
	addq	$8, %rdi
	movq	%rdi, -128(%rbp)
	movq	-128(%rbp), %rdi
	movq	%rdi, -120(%rbp)
	movq	-120(%rbp), %rdi
	movq	%rdi, -112(%rbp)
	movq	-112(%rbp), %rdi
	movq	%rdi, -104(%rbp)
	movq	-104(%rbp), %rdi
	movq	(%rdi), %rdi
	movq	%rdi, -344(%rbp)
	movq	%rsi, -368(%rbp)        ## 8-byte Spill
LBB26_1:                                ## =>This Inner Loop Header: Depth=1
	cmpq	$0, -344(%rbp)
	je	LBB26_12
## BB#2:                                ##   in Loop: Header=BB26_1 Depth=1
	movq	-368(%rbp), %rax        ## 8-byte Reload
	movq	%rax, -96(%rbp)
	movq	-96(%rbp), %rcx
	addq	$16, %rcx
	movq	%rcx, -88(%rbp)
	movq	-88(%rbp), %rcx
	movq	%rcx, -80(%rbp)
	movq	-80(%rbp), %rcx
	movq	-328(%rbp), %rdx
	movq	-344(%rbp), %rsi
	addq	$28, %rsi
	movq	%rcx, -56(%rbp)
	movq	%rdx, -64(%rbp)
	movq	%rsi, -72(%rbp)
	movq	-64(%rbp), %rcx
	movl	(%rcx), %edi
	movq	-72(%rbp), %rcx
	cmpl	(%rcx), %edi
	jge	LBB26_4
## BB#3:                                ##   in Loop: Header=BB26_1 Depth=1
	movq	-344(%rbp), %rax
	movq	%rax, -336(%rbp)
	movq	-344(%rbp), %rax
	movq	(%rax), %rax
	movq	%rax, -344(%rbp)
	jmp	LBB26_11
LBB26_4:                                ##   in Loop: Header=BB26_1 Depth=1
	movq	-368(%rbp), %rax        ## 8-byte Reload
	movq	%rax, -24(%rbp)
	movq	-24(%rbp), %rcx
	addq	$16, %rcx
	movq	%rcx, -16(%rbp)
	movq	-16(%rbp), %rcx
	movq	%rcx, -8(%rbp)
	movq	-8(%rbp), %rcx
	movq	-344(%rbp), %rdx
	addq	$28, %rdx
	movq	-328(%rbp), %rsi
	movq	%rcx, -32(%rbp)
	movq	%rdx, -40(%rbp)
	movq	%rsi, -48(%rbp)
	movq	-40(%rbp), %rcx
	movl	(%rcx), %edi
	movq	-48(%rbp), %rcx
	cmpl	(%rcx), %edi
	jge	LBB26_6
## BB#5:                                ##   in Loop: Header=BB26_1 Depth=1
	movq	-344(%rbp), %rax
	movq	8(%rax), %rax
	movq	%rax, -344(%rbp)
	jmp	LBB26_10
LBB26_6:
	movq	-328(%rbp), %rsi
	movq	-344(%rbp), %rax
	movq	(%rax), %rax
	movq	-344(%rbp), %rcx
	movq	-368(%rbp), %rdi        ## 8-byte Reload
	movq	%rax, %rdx
	callq	__ZNKSt3__16__treeIiNS_4lessIiEENS_9allocatorIiEEE13__lower_boundIiEENS_21__tree_const_iteratorIiPNS_11__tree_nodeIiPvEElEERKT_SB_SB_
	movq	%rax, -352(%rbp)
	movq	-328(%rbp), %rsi
	movq	-344(%rbp), %rax
	movq	8(%rax), %rax
	movq	-336(%rbp), %rcx
	movq	-368(%rbp), %rdi        ## 8-byte Reload
	movq	%rax, %rdx
	callq	__ZNKSt3__16__treeIiNS_4lessIiEENS_9allocatorIiEEE13__upper_boundIiEENS_21__tree_const_iteratorIiPNS_11__tree_nodeIiPvEElEERKT_SB_SB_
	movq	%rax, -360(%rbp)
	movq	-352(%rbp), %rax
	movq	-360(%rbp), %rcx
	movq	%rax, -224(%rbp)
	movq	%rcx, -232(%rbp)
	movq	-224(%rbp), %rax
	movq	%rax, -240(%rbp)
	movq	-232(%rbp), %rax
	movq	%rax, -248(%rbp)
	movq	-240(%rbp), %rax
	movq	-248(%rbp), %rcx
	movq	%rax, -192(%rbp)
	movq	%rcx, -200(%rbp)
	movq	$0, -216(%rbp)
LBB26_7:                                ## =>This Inner Loop Header: Depth=1
	leaq	-200(%rbp), %rax
	leaq	-192(%rbp), %rcx
	movq	%rcx, -176(%rbp)
	movq	%rax, -184(%rbp)
	movq	-176(%rbp), %rax
	movq	-184(%rbp), %rcx
	movq	%rax, -160(%rbp)
	movq	%rcx, -168(%rbp)
	movq	-160(%rbp), %rax
	movq	(%rax), %rax
	movq	-168(%rbp), %rcx
	cmpq	(%rcx), %rax
	sete	%dl
	xorb	$1, %dl
	testb	$1, %dl
	jne	LBB26_8
	jmp	LBB26_9
LBB26_8:                                ##   in Loop: Header=BB26_7 Depth=1
	leaq	-192(%rbp), %rax
	movq	-216(%rbp), %rcx
	addq	$1, %rcx
	movq	%rcx, -216(%rbp)
	movq	%rax, -152(%rbp)
	movq	-152(%rbp), %rax
	movq	(%rax), %rcx
	movq	%rcx, %rdi
	movq	%rax, -376(%rbp)        ## 8-byte Spill
	callq	__ZNSt3__111__tree_nextIPNS_16__tree_node_baseIPvEEEET_S5_
	movq	-376(%rbp), %rcx        ## 8-byte Reload
	movq	%rax, (%rcx)
	jmp	LBB26_7
LBB26_9:                                ## %_ZNSt3__18distanceINS_21__tree_const_iteratorIiPNS_11__tree_nodeIiPvEElEEEENS_15iterator_traitsIT_E15difference_typeES8_S8_.exit
	movq	-216(%rbp), %rax
	movq	%rax, -312(%rbp)
	jmp	LBB26_13
LBB26_10:                               ##   in Loop: Header=BB26_1 Depth=1
	jmp	LBB26_11
LBB26_11:                               ##   in Loop: Header=BB26_1 Depth=1
	jmp	LBB26_1
LBB26_12:
	movq	$0, -312(%rbp)
LBB26_13:
	movq	-312(%rbp), %rax
	addq	$384, %rsp              ## imm = 0x180
	popq	%rbp
	retq
	.cfi_endproc

	.globl	__ZNKSt3__16__treeIiNS_4lessIiEENS_9allocatorIiEEE13__lower_boundIiEENS_21__tree_const_iteratorIiPNS_11__tree_nodeIiPvEElEERKT_SB_SB_
	.weak_def_can_be_hidden	__ZNKSt3__16__treeIiNS_4lessIiEENS_9allocatorIiEEE13__lower_boundIiEENS_21__tree_const_iteratorIiPNS_11__tree_nodeIiPvEElEERKT_SB_SB_
	.align	4, 0x90
__ZNKSt3__16__treeIiNS_4lessIiEENS_9allocatorIiEEE13__lower_boundIiEENS_21__tree_const_iteratorIiPNS_11__tree_nodeIiPvEElEERKT_SB_SB_: ## @_ZNKSt3__16__treeIiNS_4lessIiEENS_9allocatorIiEEE13__lower_boundIiEENS_21__tree_const_iteratorIiPNS_11__tree_nodeIiPvEElEERKT_SB_SB_
	.cfi_startproc
## BB#0:
	pushq	%rbp
Ltmp171:
	.cfi_def_cfa_offset 16
Ltmp172:
	.cfi_offset %rbp, -16
	movq	%rsp, %rbp
Ltmp173:
	.cfi_def_cfa_register %rbp
	movq	%rdi, -96(%rbp)
	movq	%rsi, -104(%rbp)
	movq	%rdx, -112(%rbp)
	movq	%rcx, -120(%rbp)
	movq	-96(%rbp), %rcx
	movq	%rcx, -128(%rbp)        ## 8-byte Spill
LBB27_1:                                ## =>This Inner Loop Header: Depth=1
	cmpq	$0, -112(%rbp)
	je	LBB27_6
## BB#2:                                ##   in Loop: Header=BB27_1 Depth=1
	movq	-128(%rbp), %rax        ## 8-byte Reload
	movq	%rax, -80(%rbp)
	movq	-80(%rbp), %rcx
	addq	$16, %rcx
	movq	%rcx, -72(%rbp)
	movq	-72(%rbp), %rcx
	movq	%rcx, -64(%rbp)
	movq	-64(%rbp), %rcx
	movq	-112(%rbp), %rdx
	addq	$28, %rdx
	movq	-104(%rbp), %rsi
	movq	%rcx, -8(%rbp)
	movq	%rdx, -16(%rbp)
	movq	%rsi, -24(%rbp)
	movq	-16(%rbp), %rcx
	movl	(%rcx), %edi
	movq	-24(%rbp), %rcx
	cmpl	(%rcx), %edi
	jl	LBB27_4
## BB#3:                                ##   in Loop: Header=BB27_1 Depth=1
	movq	-112(%rbp), %rax
	movq	%rax, -120(%rbp)
	movq	-112(%rbp), %rax
	movq	(%rax), %rax
	movq	%rax, -112(%rbp)
	jmp	LBB27_5
LBB27_4:                                ##   in Loop: Header=BB27_1 Depth=1
	movq	-112(%rbp), %rax
	movq	8(%rax), %rax
	movq	%rax, -112(%rbp)
LBB27_5:                                ##   in Loop: Header=BB27_1 Depth=1
	jmp	LBB27_1
LBB27_6:
	leaq	-88(%rbp), %rax
	movq	-120(%rbp), %rcx
	movq	%rax, -48(%rbp)
	movq	%rcx, -56(%rbp)
	movq	-48(%rbp), %rax
	movq	-56(%rbp), %rcx
	movq	%rax, -32(%rbp)
	movq	%rcx, -40(%rbp)
	movq	-32(%rbp), %rax
	movq	-40(%rbp), %rcx
	movq	%rcx, (%rax)
	movq	-88(%rbp), %rax
	popq	%rbp
	retq
	.cfi_endproc

	.globl	__ZNKSt3__16__treeIiNS_4lessIiEENS_9allocatorIiEEE13__upper_boundIiEENS_21__tree_const_iteratorIiPNS_11__tree_nodeIiPvEElEERKT_SB_SB_
	.weak_def_can_be_hidden	__ZNKSt3__16__treeIiNS_4lessIiEENS_9allocatorIiEEE13__upper_boundIiEENS_21__tree_const_iteratorIiPNS_11__tree_nodeIiPvEElEERKT_SB_SB_
	.align	4, 0x90
__ZNKSt3__16__treeIiNS_4lessIiEENS_9allocatorIiEEE13__upper_boundIiEENS_21__tree_const_iteratorIiPNS_11__tree_nodeIiPvEElEERKT_SB_SB_: ## @_ZNKSt3__16__treeIiNS_4lessIiEENS_9allocatorIiEEE13__upper_boundIiEENS_21__tree_const_iteratorIiPNS_11__tree_nodeIiPvEElEERKT_SB_SB_
	.cfi_startproc
## BB#0:
	pushq	%rbp
Ltmp174:
	.cfi_def_cfa_offset 16
Ltmp175:
	.cfi_offset %rbp, -16
	movq	%rsp, %rbp
Ltmp176:
	.cfi_def_cfa_register %rbp
	movq	%rdi, -96(%rbp)
	movq	%rsi, -104(%rbp)
	movq	%rdx, -112(%rbp)
	movq	%rcx, -120(%rbp)
	movq	-96(%rbp), %rcx
	movq	%rcx, -128(%rbp)        ## 8-byte Spill
LBB28_1:                                ## =>This Inner Loop Header: Depth=1
	cmpq	$0, -112(%rbp)
	je	LBB28_6
## BB#2:                                ##   in Loop: Header=BB28_1 Depth=1
	movq	-128(%rbp), %rax        ## 8-byte Reload
	movq	%rax, -80(%rbp)
	movq	-80(%rbp), %rcx
	addq	$16, %rcx
	movq	%rcx, -72(%rbp)
	movq	-72(%rbp), %rcx
	movq	%rcx, -64(%rbp)
	movq	-64(%rbp), %rcx
	movq	-104(%rbp), %rdx
	movq	-112(%rbp), %rsi
	addq	$28, %rsi
	movq	%rcx, -8(%rbp)
	movq	%rdx, -16(%rbp)
	movq	%rsi, -24(%rbp)
	movq	-16(%rbp), %rcx
	movl	(%rcx), %edi
	movq	-24(%rbp), %rcx
	cmpl	(%rcx), %edi
	jge	LBB28_4
## BB#3:                                ##   in Loop: Header=BB28_1 Depth=1
	movq	-112(%rbp), %rax
	movq	%rax, -120(%rbp)
	movq	-112(%rbp), %rax
	movq	(%rax), %rax
	movq	%rax, -112(%rbp)
	jmp	LBB28_5
LBB28_4:                                ##   in Loop: Header=BB28_1 Depth=1
	movq	-112(%rbp), %rax
	movq	8(%rax), %rax
	movq	%rax, -112(%rbp)
LBB28_5:                                ##   in Loop: Header=BB28_1 Depth=1
	jmp	LBB28_1
LBB28_6:
	leaq	-88(%rbp), %rax
	movq	-120(%rbp), %rcx
	movq	%rax, -48(%rbp)
	movq	%rcx, -56(%rbp)
	movq	-48(%rbp), %rax
	movq	-56(%rbp), %rcx
	movq	%rax, -32(%rbp)
	movq	%rcx, -40(%rbp)
	movq	-32(%rbp), %rax
	movq	-40(%rbp), %rcx
	movq	%rcx, (%rax)
	movq	-88(%rbp), %rax
	popq	%rbp
	retq
	.cfi_endproc

	.globl	__ZNSt3__16__treeIiNS_4lessIiEENS_9allocatorIiEEE13__erase_multiIiEEmRKT_
	.weak_def_can_be_hidden	__ZNSt3__16__treeIiNS_4lessIiEENS_9allocatorIiEEE13__erase_multiIiEEmRKT_
	.align	4, 0x90
__ZNSt3__16__treeIiNS_4lessIiEENS_9allocatorIiEEE13__erase_multiIiEEmRKT_: ## @_ZNSt3__16__treeIiNS_4lessIiEENS_9allocatorIiEEE13__erase_multiIiEEmRKT_
	.cfi_startproc
## BB#0:
	pushq	%rbp
Ltmp177:
	.cfi_def_cfa_offset 16
Ltmp178:
	.cfi_offset %rbp, -16
	movq	%rsp, %rbp
Ltmp179:
	.cfi_def_cfa_register %rbp
	subq	$144, %rsp
	movq	%rdi, -72(%rbp)
	movq	%rsi, -80(%rbp)
	movq	-72(%rbp), %rsi
	movq	-80(%rbp), %rdi
	movq	%rdi, -136(%rbp)        ## 8-byte Spill
	movq	%rsi, %rdi
	movq	-136(%rbp), %rax        ## 8-byte Reload
	movq	%rsi, -144(%rbp)        ## 8-byte Spill
	movq	%rax, %rsi
	callq	__ZNSt3__16__treeIiNS_4lessIiEENS_9allocatorIiEEE19__equal_range_multiIiEENS_4pairINS_15__tree_iteratorIiPNS_11__tree_nodeIiPvEElEESD_EERKT_
	movq	%rax, -96(%rbp)
	movq	%rdx, -88(%rbp)
	movq	$0, -104(%rbp)
LBB29_1:                                ## =>This Inner Loop Header: Depth=1
	leaq	-96(%rbp), %rax
	movq	%rax, %rcx
	addq	$8, %rcx
	movq	%rax, -56(%rbp)
	movq	%rcx, -64(%rbp)
	movq	-56(%rbp), %rax
	movq	-64(%rbp), %rcx
	movq	%rax, -40(%rbp)
	movq	%rcx, -48(%rbp)
	movq	-40(%rbp), %rax
	movq	(%rax), %rax
	movq	-48(%rbp), %rcx
	cmpq	(%rcx), %rax
	sete	%dl
	xorb	$1, %dl
	testb	$1, %dl
	jne	LBB29_2
	jmp	LBB29_4
LBB29_2:                                ##   in Loop: Header=BB29_1 Depth=1
	leaq	-120(%rbp), %rax
	movq	-96(%rbp), %rcx
	movq	%rcx, -128(%rbp)
	movq	-128(%rbp), %rcx
	movq	%rcx, -24(%rbp)
	movq	%rax, -32(%rbp)
	movq	-32(%rbp), %rax
	movq	-24(%rbp), %rcx
	movq	%rcx, -8(%rbp)
	movq	%rax, -16(%rbp)
	movq	-16(%rbp), %rax
	movq	-8(%rbp), %rcx
	movq	%rcx, (%rax)
	movq	-120(%rbp), %rsi
	movq	-144(%rbp), %rdi        ## 8-byte Reload
	callq	__ZNSt3__16__treeIiNS_4lessIiEENS_9allocatorIiEEE5eraseENS_21__tree_const_iteratorIiPNS_11__tree_nodeIiPvEElEE
	movq	%rax, -112(%rbp)
	movq	-112(%rbp), %rax
	movq	%rax, -96(%rbp)
## BB#3:                                ##   in Loop: Header=BB29_1 Depth=1
	movq	-104(%rbp), %rax
	addq	$1, %rax
	movq	%rax, -104(%rbp)
	jmp	LBB29_1
LBB29_4:
	movq	-104(%rbp), %rax
	addq	$144, %rsp
	popq	%rbp
	retq
	.cfi_endproc

	.globl	__ZNSt3__16__treeIiNS_4lessIiEENS_9allocatorIiEEE19__equal_range_multiIiEENS_4pairINS_15__tree_iteratorIiPNS_11__tree_nodeIiPvEElEESD_EERKT_
	.weak_def_can_be_hidden	__ZNSt3__16__treeIiNS_4lessIiEENS_9allocatorIiEEE19__equal_range_multiIiEENS_4pairINS_15__tree_iteratorIiPNS_11__tree_nodeIiPvEElEESD_EERKT_
	.align	4, 0x90
__ZNSt3__16__treeIiNS_4lessIiEENS_9allocatorIiEEE19__equal_range_multiIiEENS_4pairINS_15__tree_iteratorIiPNS_11__tree_nodeIiPvEElEESD_EERKT_: ## @_ZNSt3__16__treeIiNS_4lessIiEENS_9allocatorIiEEE19__equal_range_multiIiEENS_4pairINS_15__tree_iteratorIiPNS_11__tree_nodeIiPvEElEESD_EERKT_
	.cfi_startproc
## BB#0:
	pushq	%rbp
Ltmp180:
	.cfi_def_cfa_offset 16
Ltmp181:
	.cfi_offset %rbp, -16
	movq	%rsp, %rbp
Ltmp182:
	.cfi_def_cfa_register %rbp
	subq	$464, %rsp              ## imm = 0x1D0
	movq	%rdi, -400(%rbp)
	movq	%rsi, -408(%rbp)
	movq	-400(%rbp), %rsi
	movq	%rsi, -376(%rbp)
	movq	-376(%rbp), %rdi
	addq	$8, %rdi
	movq	%rdi, -368(%rbp)
	movq	-368(%rbp), %rdi
	movq	%rdi, -360(%rbp)
	movq	-360(%rbp), %rdi
	movq	%rdi, -352(%rbp)
	movq	-352(%rbp), %rdi
	movq	%rdi, -344(%rbp)
	movq	-344(%rbp), %rdi
	movq	%rdi, -416(%rbp)
	movq	%rsi, -144(%rbp)
	movq	-144(%rbp), %rdi
	movq	%rdi, -136(%rbp)
	movq	-136(%rbp), %rdi
	addq	$8, %rdi
	movq	%rdi, -128(%rbp)
	movq	-128(%rbp), %rdi
	movq	%rdi, -120(%rbp)
	movq	-120(%rbp), %rdi
	movq	%rdi, -112(%rbp)
	movq	-112(%rbp), %rdi
	movq	%rdi, -104(%rbp)
	movq	-104(%rbp), %rdi
	movq	(%rdi), %rdi
	movq	%rdi, -424(%rbp)
	movq	%rsi, -464(%rbp)        ## 8-byte Spill
LBB30_1:                                ## =>This Inner Loop Header: Depth=1
	cmpq	$0, -424(%rbp)
	je	LBB30_9
## BB#2:                                ##   in Loop: Header=BB30_1 Depth=1
	movq	-464(%rbp), %rax        ## 8-byte Reload
	movq	%rax, -96(%rbp)
	movq	-96(%rbp), %rcx
	addq	$16, %rcx
	movq	%rcx, -88(%rbp)
	movq	-88(%rbp), %rcx
	movq	%rcx, -80(%rbp)
	movq	-80(%rbp), %rcx
	movq	-408(%rbp), %rdx
	movq	-424(%rbp), %rsi
	addq	$28, %rsi
	movq	%rcx, -8(%rbp)
	movq	%rdx, -16(%rbp)
	movq	%rsi, -24(%rbp)
	movq	-16(%rbp), %rcx
	movl	(%rcx), %edi
	movq	-24(%rbp), %rcx
	cmpl	(%rcx), %edi
	jge	LBB30_4
## BB#3:                                ##   in Loop: Header=BB30_1 Depth=1
	movq	-424(%rbp), %rax
	movq	%rax, -416(%rbp)
	movq	-424(%rbp), %rax
	movq	(%rax), %rax
	movq	%rax, -424(%rbp)
	jmp	LBB30_8
LBB30_4:                                ##   in Loop: Header=BB30_1 Depth=1
	movq	-464(%rbp), %rax        ## 8-byte Reload
	movq	%rax, -48(%rbp)
	movq	-48(%rbp), %rcx
	addq	$16, %rcx
	movq	%rcx, -40(%rbp)
	movq	-40(%rbp), %rcx
	movq	%rcx, -32(%rbp)
	movq	-32(%rbp), %rcx
	movq	-424(%rbp), %rdx
	addq	$28, %rdx
	movq	-408(%rbp), %rsi
	movq	%rcx, -56(%rbp)
	movq	%rdx, -64(%rbp)
	movq	%rsi, -72(%rbp)
	movq	-64(%rbp), %rcx
	movl	(%rcx), %edi
	movq	-72(%rbp), %rcx
	cmpl	(%rcx), %edi
	jge	LBB30_6
## BB#5:                                ##   in Loop: Header=BB30_1 Depth=1
	movq	-424(%rbp), %rax
	movq	8(%rax), %rax
	movq	%rax, -424(%rbp)
	jmp	LBB30_7
LBB30_6:
	movq	-408(%rbp), %rsi
	movq	-424(%rbp), %rax
	movq	(%rax), %rax
	movq	-424(%rbp), %rcx
	movq	-464(%rbp), %rdi        ## 8-byte Reload
	movq	%rax, %rdx
	callq	__ZNSt3__16__treeIiNS_4lessIiEENS_9allocatorIiEEE13__lower_boundIiEENS_15__tree_iteratorIiPNS_11__tree_nodeIiPvEElEERKT_SB_SB_
	movq	%rax, -432(%rbp)
	movq	-408(%rbp), %rsi
	movq	-424(%rbp), %rax
	movq	8(%rax), %rax
	movq	-416(%rbp), %rcx
	movq	-464(%rbp), %rdi        ## 8-byte Reload
	movq	%rax, %rdx
	callq	__ZNSt3__16__treeIiNS_4lessIiEENS_9allocatorIiEEE13__upper_boundIiEENS_15__tree_iteratorIiPNS_11__tree_nodeIiPvEElEERKT_SB_SB_
	leaq	-440(%rbp), %rcx
	leaq	-432(%rbp), %rdx
	leaq	-392(%rbp), %rsi
	movq	%rax, -440(%rbp)
	movq	%rsi, -192(%rbp)
	movq	%rdx, -200(%rbp)
	movq	%rcx, -208(%rbp)
	movq	-192(%rbp), %rax
	movq	-200(%rbp), %rcx
	movq	-208(%rbp), %rdx
	movq	%rax, -168(%rbp)
	movq	%rcx, -176(%rbp)
	movq	%rdx, -184(%rbp)
	movq	-168(%rbp), %rax
	movq	-176(%rbp), %rcx
	movq	%rcx, -160(%rbp)
	movq	-160(%rbp), %rcx
	movq	(%rcx), %rcx
	movq	%rcx, (%rax)
	movq	-184(%rbp), %rcx
	movq	%rcx, -152(%rbp)
	movq	-152(%rbp), %rcx
	movq	(%rcx), %rcx
	movq	%rcx, 8(%rax)
	jmp	LBB30_10
LBB30_7:                                ##   in Loop: Header=BB30_1 Depth=1
	jmp	LBB30_8
LBB30_8:                                ##   in Loop: Header=BB30_1 Depth=1
	jmp	LBB30_1
LBB30_9:
	leaq	-456(%rbp), %rax
	leaq	-448(%rbp), %rcx
	leaq	-392(%rbp), %rdx
	movq	-416(%rbp), %rsi
	movq	%rcx, -232(%rbp)
	movq	%rsi, -240(%rbp)
	movq	-232(%rbp), %rsi
	movq	-240(%rbp), %rdi
	movq	%rsi, -216(%rbp)
	movq	%rdi, -224(%rbp)
	movq	-216(%rbp), %rsi
	movq	-224(%rbp), %rdi
	movq	%rdi, (%rsi)
	movq	-416(%rbp), %rsi
	movq	%rax, -264(%rbp)
	movq	%rsi, -272(%rbp)
	movq	-264(%rbp), %rsi
	movq	-272(%rbp), %rdi
	movq	%rsi, -248(%rbp)
	movq	%rdi, -256(%rbp)
	movq	-248(%rbp), %rsi
	movq	-256(%rbp), %rdi
	movq	%rdi, (%rsi)
	movq	%rdx, -320(%rbp)
	movq	%rcx, -328(%rbp)
	movq	%rax, -336(%rbp)
	movq	-320(%rbp), %rax
	movq	-328(%rbp), %rcx
	movq	-336(%rbp), %rdx
	movq	%rax, -296(%rbp)
	movq	%rcx, -304(%rbp)
	movq	%rdx, -312(%rbp)
	movq	-296(%rbp), %rax
	movq	-304(%rbp), %rcx
	movq	%rcx, -288(%rbp)
	movq	-288(%rbp), %rcx
	movq	(%rcx), %rcx
	movq	%rcx, (%rax)
	movq	-312(%rbp), %rcx
	movq	%rcx, -280(%rbp)
	movq	-280(%rbp), %rcx
	movq	(%rcx), %rcx
	movq	%rcx, 8(%rax)
LBB30_10:
	movq	-392(%rbp), %rax
	movq	-384(%rbp), %rdx
	addq	$464, %rsp              ## imm = 0x1D0
	popq	%rbp
	retq
	.cfi_endproc

	.globl	__ZNSt3__16__treeIiNS_4lessIiEENS_9allocatorIiEEE5eraseENS_21__tree_const_iteratorIiPNS_11__tree_nodeIiPvEElEE
	.weak_def_can_be_hidden	__ZNSt3__16__treeIiNS_4lessIiEENS_9allocatorIiEEE5eraseENS_21__tree_const_iteratorIiPNS_11__tree_nodeIiPvEElEE
	.align	4, 0x90
__ZNSt3__16__treeIiNS_4lessIiEENS_9allocatorIiEEE5eraseENS_21__tree_const_iteratorIiPNS_11__tree_nodeIiPvEElEE: ## @_ZNSt3__16__treeIiNS_4lessIiEENS_9allocatorIiEEE5eraseENS_21__tree_const_iteratorIiPNS_11__tree_nodeIiPvEElEE
	.cfi_startproc
## BB#0:
	pushq	%rbp
Ltmp183:
	.cfi_def_cfa_offset 16
Ltmp184:
	.cfi_offset %rbp, -16
	movq	%rsp, %rbp
Ltmp185:
	.cfi_def_cfa_register %rbp
	subq	$320, %rsp              ## imm = 0x140
	leaq	-272(%rbp), %rax
	movq	%rsi, -280(%rbp)
	movq	%rdi, -288(%rbp)
	movq	-288(%rbp), %rsi
	movq	-280(%rbp), %rdi
	movq	%rdi, -296(%rbp)
	movq	-296(%rbp), %rdi
	movq	%rax, -256(%rbp)
	movq	%rdi, -264(%rbp)
	movq	-256(%rbp), %rdi
	movq	-264(%rbp), %rcx
	movq	%rdi, -240(%rbp)
	movq	%rcx, -248(%rbp)
	movq	-240(%rbp), %rcx
	movq	-248(%rbp), %rdi
	movq	%rdi, (%rcx)
	movq	%rax, -176(%rbp)
	movq	-176(%rbp), %rax
	movq	(%rax), %rcx
	movq	%rcx, %rdi
	movq	%rsi, -312(%rbp)        ## 8-byte Spill
	movq	%rax, -320(%rbp)        ## 8-byte Spill
	callq	__ZNSt3__111__tree_nextIPNS_16__tree_node_baseIPvEEEET_S5_
	movq	-320(%rbp), %rcx        ## 8-byte Reload
	movq	%rax, (%rcx)
	movq	-312(%rbp), %rax        ## 8-byte Reload
	movq	%rax, -168(%rbp)
	movq	-168(%rbp), %rsi
	movq	(%rsi), %rsi
	cmpq	-296(%rbp), %rsi
	jne	LBB31_2
## BB#1:
	movq	-272(%rbp), %rax
	movq	-312(%rbp), %rcx        ## 8-byte Reload
	movq	%rcx, -96(%rbp)
	movq	-96(%rbp), %rdx
	movq	%rax, (%rdx)
LBB31_2:
	movq	-312(%rbp), %rax        ## 8-byte Reload
	movq	%rax, -24(%rbp)
	movq	-24(%rbp), %rcx
	addq	$16, %rcx
	movq	%rcx, -16(%rbp)
	movq	-16(%rbp), %rcx
	movq	%rcx, -8(%rbp)
	movq	-8(%rbp), %rcx
	movq	(%rcx), %rdx
	addq	$-1, %rdx
	movq	%rdx, (%rcx)
	movq	%rax, -48(%rbp)
	movq	-48(%rbp), %rcx
	addq	$8, %rcx
	movq	%rcx, -40(%rbp)
	movq	-40(%rbp), %rcx
	movq	%rcx, -32(%rbp)
	movq	-32(%rbp), %rcx
	movq	%rcx, -304(%rbp)
	movq	%rax, -88(%rbp)
	movq	-88(%rbp), %rcx
	addq	$8, %rcx
	movq	%rcx, -80(%rbp)
	movq	-80(%rbp), %rcx
	movq	%rcx, -72(%rbp)
	movq	-72(%rbp), %rcx
	movq	%rcx, -64(%rbp)
	movq	-64(%rbp), %rcx
	movq	%rcx, -56(%rbp)
	movq	-56(%rbp), %rcx
	movq	(%rcx), %rdi
	movq	-296(%rbp), %rcx
	movq	%rcx, %rsi
	callq	__ZNSt3__113__tree_removeIPNS_16__tree_node_baseIPvEEEEvT_S5_
	leaq	-280(%rbp), %rax
	movq	-304(%rbp), %rcx
	movq	%rax, -104(%rbp)
	movq	-104(%rbp), %rax
	movq	(%rax), %rax
	addq	$28, %rax
	movq	%rax, -112(%rbp)
	movq	-112(%rbp), %rax
	movq	%rcx, -136(%rbp)
	movq	%rax, -144(%rbp)
	movq	-136(%rbp), %rax
	movq	-144(%rbp), %rcx
	movq	%rax, -120(%rbp)
	movq	%rcx, -128(%rbp)
	movq	-304(%rbp), %rax
	movq	-296(%rbp), %rcx
	movq	%rax, -216(%rbp)
	movq	%rcx, -224(%rbp)
	movq	$1, -232(%rbp)
	movq	-216(%rbp), %rax
	movq	-224(%rbp), %rcx
	movq	-232(%rbp), %rdx
	movq	%rax, -192(%rbp)
	movq	%rcx, -200(%rbp)
	movq	%rdx, -208(%rbp)
	movq	-200(%rbp), %rax
	movq	%rax, -184(%rbp)
	movq	-184(%rbp), %rdi
	callq	__ZdlPv
	movq	-272(%rbp), %rax
	addq	$320, %rsp              ## imm = 0x140
	popq	%rbp
	retq
	.cfi_endproc

	.globl	__ZNSt3__16__treeIiNS_4lessIiEENS_9allocatorIiEEE13__lower_boundIiEENS_15__tree_iteratorIiPNS_11__tree_nodeIiPvEElEERKT_SB_SB_
	.weak_def_can_be_hidden	__ZNSt3__16__treeIiNS_4lessIiEENS_9allocatorIiEEE13__lower_boundIiEENS_15__tree_iteratorIiPNS_11__tree_nodeIiPvEElEERKT_SB_SB_
	.align	4, 0x90
__ZNSt3__16__treeIiNS_4lessIiEENS_9allocatorIiEEE13__lower_boundIiEENS_15__tree_iteratorIiPNS_11__tree_nodeIiPvEElEERKT_SB_SB_: ## @_ZNSt3__16__treeIiNS_4lessIiEENS_9allocatorIiEEE13__lower_boundIiEENS_15__tree_iteratorIiPNS_11__tree_nodeIiPvEElEERKT_SB_SB_
	.cfi_startproc
## BB#0:
	pushq	%rbp
Ltmp186:
	.cfi_def_cfa_offset 16
Ltmp187:
	.cfi_offset %rbp, -16
	movq	%rsp, %rbp
Ltmp188:
	.cfi_def_cfa_register %rbp
	movq	%rdi, -96(%rbp)
	movq	%rsi, -104(%rbp)
	movq	%rdx, -112(%rbp)
	movq	%rcx, -120(%rbp)
	movq	-96(%rbp), %rcx
	movq	%rcx, -128(%rbp)        ## 8-byte Spill
LBB32_1:                                ## =>This Inner Loop Header: Depth=1
	cmpq	$0, -112(%rbp)
	je	LBB32_6
## BB#2:                                ##   in Loop: Header=BB32_1 Depth=1
	movq	-128(%rbp), %rax        ## 8-byte Reload
	movq	%rax, -80(%rbp)
	movq	-80(%rbp), %rcx
	addq	$16, %rcx
	movq	%rcx, -72(%rbp)
	movq	-72(%rbp), %rcx
	movq	%rcx, -64(%rbp)
	movq	-64(%rbp), %rcx
	movq	-112(%rbp), %rdx
	addq	$28, %rdx
	movq	-104(%rbp), %rsi
	movq	%rcx, -8(%rbp)
	movq	%rdx, -16(%rbp)
	movq	%rsi, -24(%rbp)
	movq	-16(%rbp), %rcx
	movl	(%rcx), %edi
	movq	-24(%rbp), %rcx
	cmpl	(%rcx), %edi
	jl	LBB32_4
## BB#3:                                ##   in Loop: Header=BB32_1 Depth=1
	movq	-112(%rbp), %rax
	movq	%rax, -120(%rbp)
	movq	-112(%rbp), %rax
	movq	(%rax), %rax
	movq	%rax, -112(%rbp)
	jmp	LBB32_5
LBB32_4:                                ##   in Loop: Header=BB32_1 Depth=1
	movq	-112(%rbp), %rax
	movq	8(%rax), %rax
	movq	%rax, -112(%rbp)
LBB32_5:                                ##   in Loop: Header=BB32_1 Depth=1
	jmp	LBB32_1
LBB32_6:
	leaq	-88(%rbp), %rax
	movq	-120(%rbp), %rcx
	movq	%rax, -48(%rbp)
	movq	%rcx, -56(%rbp)
	movq	-48(%rbp), %rax
	movq	-56(%rbp), %rcx
	movq	%rax, -32(%rbp)
	movq	%rcx, -40(%rbp)
	movq	-32(%rbp), %rax
	movq	-40(%rbp), %rcx
	movq	%rcx, (%rax)
	movq	-88(%rbp), %rax
	popq	%rbp
	retq
	.cfi_endproc

	.globl	__ZNSt3__16__treeIiNS_4lessIiEENS_9allocatorIiEEE13__upper_boundIiEENS_15__tree_iteratorIiPNS_11__tree_nodeIiPvEElEERKT_SB_SB_
	.weak_def_can_be_hidden	__ZNSt3__16__treeIiNS_4lessIiEENS_9allocatorIiEEE13__upper_boundIiEENS_15__tree_iteratorIiPNS_11__tree_nodeIiPvEElEERKT_SB_SB_
	.align	4, 0x90
__ZNSt3__16__treeIiNS_4lessIiEENS_9allocatorIiEEE13__upper_boundIiEENS_15__tree_iteratorIiPNS_11__tree_nodeIiPvEElEERKT_SB_SB_: ## @_ZNSt3__16__treeIiNS_4lessIiEENS_9allocatorIiEEE13__upper_boundIiEENS_15__tree_iteratorIiPNS_11__tree_nodeIiPvEElEERKT_SB_SB_
	.cfi_startproc
## BB#0:
	pushq	%rbp
Ltmp189:
	.cfi_def_cfa_offset 16
Ltmp190:
	.cfi_offset %rbp, -16
	movq	%rsp, %rbp
Ltmp191:
	.cfi_def_cfa_register %rbp
	movq	%rdi, -96(%rbp)
	movq	%rsi, -104(%rbp)
	movq	%rdx, -112(%rbp)
	movq	%rcx, -120(%rbp)
	movq	-96(%rbp), %rcx
	movq	%rcx, -128(%rbp)        ## 8-byte Spill
LBB33_1:                                ## =>This Inner Loop Header: Depth=1
	cmpq	$0, -112(%rbp)
	je	LBB33_6
## BB#2:                                ##   in Loop: Header=BB33_1 Depth=1
	movq	-128(%rbp), %rax        ## 8-byte Reload
	movq	%rax, -80(%rbp)
	movq	-80(%rbp), %rcx
	addq	$16, %rcx
	movq	%rcx, -72(%rbp)
	movq	-72(%rbp), %rcx
	movq	%rcx, -64(%rbp)
	movq	-64(%rbp), %rcx
	movq	-104(%rbp), %rdx
	movq	-112(%rbp), %rsi
	addq	$28, %rsi
	movq	%rcx, -8(%rbp)
	movq	%rdx, -16(%rbp)
	movq	%rsi, -24(%rbp)
	movq	-16(%rbp), %rcx
	movl	(%rcx), %edi
	movq	-24(%rbp), %rcx
	cmpl	(%rcx), %edi
	jge	LBB33_4
## BB#3:                                ##   in Loop: Header=BB33_1 Depth=1
	movq	-112(%rbp), %rax
	movq	%rax, -120(%rbp)
	movq	-112(%rbp), %rax
	movq	(%rax), %rax
	movq	%rax, -112(%rbp)
	jmp	LBB33_5
LBB33_4:                                ##   in Loop: Header=BB33_1 Depth=1
	movq	-112(%rbp), %rax
	movq	8(%rax), %rax
	movq	%rax, -112(%rbp)
LBB33_5:                                ##   in Loop: Header=BB33_1 Depth=1
	jmp	LBB33_1
LBB33_6:
	leaq	-88(%rbp), %rax
	movq	-120(%rbp), %rcx
	movq	%rax, -48(%rbp)
	movq	%rcx, -56(%rbp)
	movq	-48(%rbp), %rax
	movq	-56(%rbp), %rcx
	movq	%rax, -32(%rbp)
	movq	%rcx, -40(%rbp)
	movq	-32(%rbp), %rax
	movq	-40(%rbp), %rcx
	movq	%rcx, (%rax)
	movq	-88(%rbp), %rax
	popq	%rbp
	retq
	.cfi_endproc

	.globl	__ZNSt3__113__tree_removeIPNS_16__tree_node_baseIPvEEEEvT_S5_
	.weak_def_can_be_hidden	__ZNSt3__113__tree_removeIPNS_16__tree_node_baseIPvEEEEvT_S5_
	.align	4, 0x90
__ZNSt3__113__tree_removeIPNS_16__tree_node_baseIPvEEEEvT_S5_: ## @_ZNSt3__113__tree_removeIPNS_16__tree_node_baseIPvEEEEvT_S5_
	.cfi_startproc
## BB#0:
	pushq	%rbp
Ltmp192:
	.cfi_def_cfa_offset 16
Ltmp193:
	.cfi_offset %rbp, -16
	movq	%rsp, %rbp
Ltmp194:
	.cfi_def_cfa_register %rbp
	subq	$128, %rsp
	movq	%rdi, -48(%rbp)
	movq	%rsi, -56(%rbp)
	movq	-56(%rbp), %rsi
	cmpq	$0, (%rsi)
	je	LBB34_2
## BB#1:
	movq	-56(%rbp), %rax
	cmpq	$0, 8(%rax)
	jne	LBB34_3
LBB34_2:
	movq	-56(%rbp), %rax
	movq	%rax, -96(%rbp)         ## 8-byte Spill
	jmp	LBB34_4
LBB34_3:
	movq	-56(%rbp), %rdi
	callq	__ZNSt3__111__tree_nextIPNS_16__tree_node_baseIPvEEEET_S5_
	movq	%rax, -96(%rbp)         ## 8-byte Spill
LBB34_4:
	movq	-96(%rbp), %rax         ## 8-byte Reload
	movq	%rax, -64(%rbp)
	movq	-64(%rbp), %rax
	cmpq	$0, (%rax)
	je	LBB34_6
## BB#5:
	movq	-64(%rbp), %rax
	movq	(%rax), %rax
	movq	%rax, -104(%rbp)        ## 8-byte Spill
	jmp	LBB34_7
LBB34_6:
	movq	-64(%rbp), %rax
	movq	8(%rax), %rax
	movq	%rax, -104(%rbp)        ## 8-byte Spill
LBB34_7:
	movq	-104(%rbp), %rax        ## 8-byte Reload
	movq	%rax, -72(%rbp)
	movq	$0, -80(%rbp)
	cmpq	$0, -72(%rbp)
	je	LBB34_9
## BB#8:
	movq	-64(%rbp), %rax
	movq	16(%rax), %rax
	movq	-72(%rbp), %rcx
	movq	%rax, 16(%rcx)
LBB34_9:
	movq	-64(%rbp), %rax
	movq	%rax, -40(%rbp)
	movq	-40(%rbp), %rax
	movq	-40(%rbp), %rcx
	movq	16(%rcx), %rcx
	cmpq	(%rcx), %rax
	jne	LBB34_14
## BB#10:
	movq	-72(%rbp), %rax
	movq	-64(%rbp), %rcx
	movq	16(%rcx), %rcx
	movq	%rax, (%rcx)
	movq	-64(%rbp), %rax
	cmpq	-48(%rbp), %rax
	je	LBB34_12
## BB#11:
	movq	-64(%rbp), %rax
	movq	16(%rax), %rax
	movq	8(%rax), %rax
	movq	%rax, -80(%rbp)
	jmp	LBB34_13
LBB34_12:
	movq	-72(%rbp), %rax
	movq	%rax, -48(%rbp)
LBB34_13:
	jmp	LBB34_15
LBB34_14:
	movq	-72(%rbp), %rax
	movq	-64(%rbp), %rcx
	movq	16(%rcx), %rcx
	movq	%rax, 8(%rcx)
	movq	-64(%rbp), %rax
	movq	16(%rax), %rax
	movq	(%rax), %rax
	movq	%rax, -80(%rbp)
LBB34_15:
	movq	-64(%rbp), %rax
	movb	24(%rax), %cl
	andb	$1, %cl
	movb	%cl, -81(%rbp)
	movq	-64(%rbp), %rax
	cmpq	-56(%rbp), %rax
	je	LBB34_24
## BB#16:
	movq	-56(%rbp), %rax
	movq	16(%rax), %rax
	movq	-64(%rbp), %rcx
	movq	%rax, 16(%rcx)
	movq	-56(%rbp), %rax
	movq	%rax, -32(%rbp)
	movq	-32(%rbp), %rax
	movq	-32(%rbp), %rcx
	movq	16(%rcx), %rcx
	cmpq	(%rcx), %rax
	jne	LBB34_18
## BB#17:
	movq	-64(%rbp), %rax
	movq	-64(%rbp), %rcx
	movq	16(%rcx), %rcx
	movq	%rax, (%rcx)
	jmp	LBB34_19
LBB34_18:
	movq	-64(%rbp), %rax
	movq	-64(%rbp), %rcx
	movq	16(%rcx), %rcx
	movq	%rax, 8(%rcx)
LBB34_19:
	movq	-56(%rbp), %rax
	movq	(%rax), %rax
	movq	-64(%rbp), %rcx
	movq	%rax, (%rcx)
	movq	-64(%rbp), %rax
	movq	-64(%rbp), %rcx
	movq	(%rcx), %rcx
	movq	%rax, 16(%rcx)
	movq	-56(%rbp), %rax
	movq	8(%rax), %rax
	movq	-64(%rbp), %rcx
	movq	%rax, 8(%rcx)
	movq	-64(%rbp), %rax
	cmpq	$0, 8(%rax)
	je	LBB34_21
## BB#20:
	movq	-64(%rbp), %rax
	movq	-64(%rbp), %rcx
	movq	8(%rcx), %rcx
	movq	%rax, 16(%rcx)
LBB34_21:
	movq	-56(%rbp), %rax
	movb	24(%rax), %cl
	movq	-64(%rbp), %rax
	andb	$1, %cl
	movb	%cl, 24(%rax)
	movq	-48(%rbp), %rax
	cmpq	-56(%rbp), %rax
	jne	LBB34_23
## BB#22:
	movq	-64(%rbp), %rax
	movq	%rax, -48(%rbp)
LBB34_23:
	jmp	LBB34_24
LBB34_24:
	testb	$1, -81(%rbp)
	je	LBB34_74
## BB#25:
	cmpq	$0, -48(%rbp)
	je	LBB34_74
## BB#26:
	cmpq	$0, -72(%rbp)
	je	LBB34_28
## BB#27:
	movq	-72(%rbp), %rax
	movb	$1, 24(%rax)
	jmp	LBB34_73
LBB34_28:
	jmp	LBB34_29
LBB34_29:                               ## =>This Inner Loop Header: Depth=1
	jmp	LBB34_30
LBB34_30:                               ##   in Loop: Header=BB34_29 Depth=1
	movq	-80(%rbp), %rax
	movq	%rax, -24(%rbp)
	movq	-24(%rbp), %rax
	movq	-24(%rbp), %rcx
	movq	16(%rcx), %rcx
	cmpq	(%rcx), %rax
	je	LBB34_51
## BB#31:                               ##   in Loop: Header=BB34_29 Depth=1
	movq	-80(%rbp), %rax
	testb	$1, 24(%rax)
	jne	LBB34_35
## BB#32:                               ##   in Loop: Header=BB34_29 Depth=1
	movq	-80(%rbp), %rax
	movb	$1, 24(%rax)
	movq	-80(%rbp), %rax
	movq	16(%rax), %rax
	movb	$0, 24(%rax)
	movq	-80(%rbp), %rax
	movq	16(%rax), %rdi
	callq	__ZNSt3__118__tree_left_rotateIPNS_16__tree_node_baseIPvEEEEvT_
	movq	-48(%rbp), %rax
	movq	-80(%rbp), %rdi
	cmpq	(%rdi), %rax
	jne	LBB34_34
## BB#33:                               ##   in Loop: Header=BB34_29 Depth=1
	movq	-80(%rbp), %rax
	movq	%rax, -48(%rbp)
LBB34_34:                               ##   in Loop: Header=BB34_29 Depth=1
	movq	-80(%rbp), %rax
	movq	(%rax), %rax
	movq	8(%rax), %rax
	movq	%rax, -80(%rbp)
LBB34_35:                               ##   in Loop: Header=BB34_29 Depth=1
	movq	-80(%rbp), %rax
	cmpq	$0, (%rax)
	je	LBB34_37
## BB#36:                               ##   in Loop: Header=BB34_29 Depth=1
	movq	-80(%rbp), %rax
	movq	(%rax), %rax
	testb	$1, 24(%rax)
	je	LBB34_46
LBB34_37:                               ##   in Loop: Header=BB34_29 Depth=1
	movq	-80(%rbp), %rax
	cmpq	$0, 8(%rax)
	je	LBB34_39
## BB#38:                               ##   in Loop: Header=BB34_29 Depth=1
	movq	-80(%rbp), %rax
	movq	8(%rax), %rax
	testb	$1, 24(%rax)
	je	LBB34_46
LBB34_39:                               ##   in Loop: Header=BB34_29 Depth=1
	movq	-80(%rbp), %rax
	movb	$0, 24(%rax)
	movq	-80(%rbp), %rax
	movq	16(%rax), %rax
	movq	%rax, -72(%rbp)
	movq	-72(%rbp), %rax
	cmpq	-48(%rbp), %rax
	je	LBB34_41
## BB#40:                               ##   in Loop: Header=BB34_29 Depth=1
	movq	-72(%rbp), %rax
	testb	$1, 24(%rax)
	jne	LBB34_42
LBB34_41:
	movq	-72(%rbp), %rax
	movb	$1, 24(%rax)
	jmp	LBB34_72
LBB34_42:                               ##   in Loop: Header=BB34_29 Depth=1
	movq	-72(%rbp), %rax
	movq	%rax, -8(%rbp)
	movq	-8(%rbp), %rax
	movq	-8(%rbp), %rcx
	movq	16(%rcx), %rcx
	cmpq	(%rcx), %rax
	jne	LBB34_44
## BB#43:                               ##   in Loop: Header=BB34_29 Depth=1
	movq	-72(%rbp), %rax
	movq	16(%rax), %rax
	movq	8(%rax), %rax
	movq	%rax, -112(%rbp)        ## 8-byte Spill
	jmp	LBB34_45
LBB34_44:                               ##   in Loop: Header=BB34_29 Depth=1
	movq	-72(%rbp), %rax
	movq	16(%rax), %rax
	movq	(%rax), %rax
	movq	%rax, -112(%rbp)        ## 8-byte Spill
LBB34_45:                               ##   in Loop: Header=BB34_29 Depth=1
	movq	-112(%rbp), %rax        ## 8-byte Reload
	movq	%rax, -80(%rbp)
	jmp	LBB34_50
LBB34_46:
	movq	-80(%rbp), %rax
	cmpq	$0, 8(%rax)
	je	LBB34_48
## BB#47:
	movq	-80(%rbp), %rax
	movq	8(%rax), %rax
	testb	$1, 24(%rax)
	je	LBB34_49
LBB34_48:
	movq	-80(%rbp), %rax
	movq	(%rax), %rax
	movb	$1, 24(%rax)
	movq	-80(%rbp), %rax
	movb	$0, 24(%rax)
	movq	-80(%rbp), %rdi
	callq	__ZNSt3__119__tree_right_rotateIPNS_16__tree_node_baseIPvEEEEvT_
	movq	-80(%rbp), %rax
	movq	16(%rax), %rax
	movq	%rax, -80(%rbp)
LBB34_49:
	movq	-80(%rbp), %rax
	movq	16(%rax), %rax
	movb	24(%rax), %cl
	movq	-80(%rbp), %rax
	andb	$1, %cl
	movb	%cl, 24(%rax)
	movq	-80(%rbp), %rax
	movq	16(%rax), %rax
	movb	$1, 24(%rax)
	movq	-80(%rbp), %rax
	movq	8(%rax), %rax
	movb	$1, 24(%rax)
	movq	-80(%rbp), %rax
	movq	16(%rax), %rdi
	callq	__ZNSt3__118__tree_left_rotateIPNS_16__tree_node_baseIPvEEEEvT_
	jmp	LBB34_72
LBB34_50:                               ##   in Loop: Header=BB34_29 Depth=1
	jmp	LBB34_71
LBB34_51:                               ##   in Loop: Header=BB34_29 Depth=1
	movq	-80(%rbp), %rax
	testb	$1, 24(%rax)
	jne	LBB34_55
## BB#52:                               ##   in Loop: Header=BB34_29 Depth=1
	movq	-80(%rbp), %rax
	movb	$1, 24(%rax)
	movq	-80(%rbp), %rax
	movq	16(%rax), %rax
	movb	$0, 24(%rax)
	movq	-80(%rbp), %rax
	movq	16(%rax), %rdi
	callq	__ZNSt3__119__tree_right_rotateIPNS_16__tree_node_baseIPvEEEEvT_
	movq	-48(%rbp), %rax
	movq	-80(%rbp), %rdi
	cmpq	8(%rdi), %rax
	jne	LBB34_54
## BB#53:                               ##   in Loop: Header=BB34_29 Depth=1
	movq	-80(%rbp), %rax
	movq	%rax, -48(%rbp)
LBB34_54:                               ##   in Loop: Header=BB34_29 Depth=1
	movq	-80(%rbp), %rax
	movq	8(%rax), %rax
	movq	(%rax), %rax
	movq	%rax, -80(%rbp)
LBB34_55:                               ##   in Loop: Header=BB34_29 Depth=1
	movq	-80(%rbp), %rax
	cmpq	$0, (%rax)
	je	LBB34_57
## BB#56:                               ##   in Loop: Header=BB34_29 Depth=1
	movq	-80(%rbp), %rax
	movq	(%rax), %rax
	testb	$1, 24(%rax)
	je	LBB34_66
LBB34_57:                               ##   in Loop: Header=BB34_29 Depth=1
	movq	-80(%rbp), %rax
	cmpq	$0, 8(%rax)
	je	LBB34_59
## BB#58:                               ##   in Loop: Header=BB34_29 Depth=1
	movq	-80(%rbp), %rax
	movq	8(%rax), %rax
	testb	$1, 24(%rax)
	je	LBB34_66
LBB34_59:                               ##   in Loop: Header=BB34_29 Depth=1
	movq	-80(%rbp), %rax
	movb	$0, 24(%rax)
	movq	-80(%rbp), %rax
	movq	16(%rax), %rax
	movq	%rax, -72(%rbp)
	movq	-72(%rbp), %rax
	testb	$1, 24(%rax)
	je	LBB34_61
## BB#60:                               ##   in Loop: Header=BB34_29 Depth=1
	movq	-72(%rbp), %rax
	cmpq	-48(%rbp), %rax
	jne	LBB34_62
LBB34_61:
	movq	-72(%rbp), %rax
	movb	$1, 24(%rax)
	jmp	LBB34_72
LBB34_62:                               ##   in Loop: Header=BB34_29 Depth=1
	movq	-72(%rbp), %rax
	movq	%rax, -16(%rbp)
	movq	-16(%rbp), %rax
	movq	-16(%rbp), %rcx
	movq	16(%rcx), %rcx
	cmpq	(%rcx), %rax
	jne	LBB34_64
## BB#63:                               ##   in Loop: Header=BB34_29 Depth=1
	movq	-72(%rbp), %rax
	movq	16(%rax), %rax
	movq	8(%rax), %rax
	movq	%rax, -120(%rbp)        ## 8-byte Spill
	jmp	LBB34_65
LBB34_64:                               ##   in Loop: Header=BB34_29 Depth=1
	movq	-72(%rbp), %rax
	movq	16(%rax), %rax
	movq	(%rax), %rax
	movq	%rax, -120(%rbp)        ## 8-byte Spill
LBB34_65:                               ##   in Loop: Header=BB34_29 Depth=1
	movq	-120(%rbp), %rax        ## 8-byte Reload
	movq	%rax, -80(%rbp)
	jmp	LBB34_70
LBB34_66:
	movq	-80(%rbp), %rax
	cmpq	$0, (%rax)
	je	LBB34_68
## BB#67:
	movq	-80(%rbp), %rax
	movq	(%rax), %rax
	testb	$1, 24(%rax)
	je	LBB34_69
LBB34_68:
	movq	-80(%rbp), %rax
	movq	8(%rax), %rax
	movb	$1, 24(%rax)
	movq	-80(%rbp), %rax
	movb	$0, 24(%rax)
	movq	-80(%rbp), %rdi
	callq	__ZNSt3__118__tree_left_rotateIPNS_16__tree_node_baseIPvEEEEvT_
	movq	-80(%rbp), %rax
	movq	16(%rax), %rax
	movq	%rax, -80(%rbp)
LBB34_69:
	movq	-80(%rbp), %rax
	movq	16(%rax), %rax
	movb	24(%rax), %cl
	movq	-80(%rbp), %rax
	andb	$1, %cl
	movb	%cl, 24(%rax)
	movq	-80(%rbp), %rax
	movq	16(%rax), %rax
	movb	$1, 24(%rax)
	movq	-80(%rbp), %rax
	movq	(%rax), %rax
	movb	$1, 24(%rax)
	movq	-80(%rbp), %rax
	movq	16(%rax), %rdi
	callq	__ZNSt3__119__tree_right_rotateIPNS_16__tree_node_baseIPvEEEEvT_
	jmp	LBB34_72
LBB34_70:                               ##   in Loop: Header=BB34_29 Depth=1
	jmp	LBB34_71
LBB34_71:                               ##   in Loop: Header=BB34_29 Depth=1
	jmp	LBB34_29
LBB34_72:
	jmp	LBB34_73
LBB34_73:
	jmp	LBB34_74
LBB34_74:
	addq	$128, %rsp
	popq	%rbp
	retq
	.cfi_endproc

	.section	__TEXT,__cstring,cstring_literals
L_.str:                                 ## @.str
	.asciz	"Multiset contains "

L_.str1:                                ## @.str1
	.asciz	" elements."

L_.str2:                                ## @.str2
	.asciz	" They are: "

L_.str3:                                ## @.str3
	.asciz	"Please enter a number to be erased from the set"

L_.str4:                                ## @.str4
	.asciz	"Erasing "

L_.str5:                                ## @.str5
	.asciz	" instance of value "

L_.str6:                                ## @.str6
	.asciz	"multiset contains "

L_.str7:                                ## @.str7
	.asciz	"These are: "


.subsections_via_symbols
