	.section	__TEXT,__text,regular,pure_instructions
	.macosx_version_min 10, 10
	.globl	_main
	.align	4, 0x90
_main:                                  ## @main
Lfunc_begin0:
	.cfi_startproc
	.cfi_personality 155, ___gxx_personality_v0
	.cfi_lsda 16, Lexception0
## BB#0:
	pushq	%rbp
Ltmp39:
	.cfi_def_cfa_offset 16
Ltmp40:
	.cfi_offset %rbp, -16
	movq	%rsp, %rbp
Ltmp41:
	.cfi_def_cfa_register %rbp
	subq	$2880, %rsp             ## imm = 0xB40
	movl	$0, -2204(%rbp)
	leaq	-2248(%rbp), %rax
	movq	%rax, -2200(%rbp)
	movq	%rax, -2192(%rbp)
	movq	%rax, -2184(%rbp)
	movq	%rax, -2160(%rbp)
	movq	%rax, -2152(%rbp)
	movq	%rax, -2144(%rbp)
	movq	%rax, -2128(%rbp)
	movq	$0, -2136(%rbp)
	movq	-2128(%rbp), %rcx
	movq	%rcx, -2112(%rbp)
	movq	$0, -2120(%rbp)
	movq	-2112(%rbp), %rcx
	leaq	-2120(%rbp), %rdx
	movq	%rdx, -2104(%rbp)
	movq	-2120(%rbp), %rdx
	movq	%rcx, -2088(%rbp)
	movq	%rdx, -2096(%rbp)
	movq	-2088(%rbp), %rcx
	leaq	-2096(%rbp), %rdx
	movq	%rdx, -2080(%rbp)
	movq	-2096(%rbp), %rdx
	movq	%rdx, (%rcx)
	addq	$8, %rcx
	movq	%rcx, -2072(%rbp)
	movq	%rcx, -2064(%rbp)
	movq	%rcx, -2048(%rbp)
	movq	$0, -2056(%rbp)
	movq	-2048(%rbp), %rcx
	movq	%rcx, -2032(%rbp)
	movq	$0, -2040(%rbp)
	movq	-2032(%rbp), %rcx
	leaq	-2040(%rbp), %rdx
	movq	%rdx, -2024(%rbp)
	movq	-2040(%rbp), %rdx
	movq	%rcx, -2008(%rbp)
	movq	%rdx, -2016(%rbp)
	movq	-2008(%rbp), %rcx
	movq	%rcx, -2000(%rbp)
	leaq	-2016(%rbp), %rdx
	movq	%rdx, -1992(%rbp)
	movq	-2016(%rbp), %rdx
	movq	%rdx, (%rcx)
	leaq	-2232(%rbp), %rcx
	movq	%rcx, -1984(%rbp)
	movq	%rcx, -1976(%rbp)
	movq	%rcx, -1968(%rbp)
	movq	%rcx, -1960(%rbp)
	movq	%rcx, -1952(%rbp)
	movq	%rcx, -1944(%rbp)
	movq	$0, -2232(%rbp)
	leaq	-2224(%rbp), %rcx
	movq	%rcx, -1728(%rbp)
	movq	$0, -1736(%rbp)
	movq	-1728(%rbp), %rcx
	movq	%rcx, -1712(%rbp)
	movq	$0, -1720(%rbp)
	movq	-1712(%rbp), %rcx
	leaq	-1720(%rbp), %rdx
	movq	%rdx, -1704(%rbp)
	movq	-1720(%rbp), %rdx
	movq	%rcx, -1688(%rbp)
	movq	%rdx, -1696(%rbp)
	movq	-1688(%rbp), %rcx
	leaq	-1696(%rbp), %rdx
	movq	%rdx, -1680(%rbp)
	movq	-1696(%rbp), %rdx
	movq	%rdx, (%rcx)
	leaq	-2216(%rbp), %rcx
	movq	%rcx, -1664(%rbp)
	movl	$1065353216, -1668(%rbp) ## imm = 0x3F800000
	movq	-1664(%rbp), %rcx
	movq	%rcx, -1648(%rbp)
	movl	$1065353216, -1652(%rbp) ## imm = 0x3F800000
	movq	-1648(%rbp), %rcx
	leaq	-1652(%rbp), %rdx
	movq	%rdx, -1640(%rbp)
	movss	-1652(%rbp), %xmm0      ## xmm0 = mem[0],zero,zero,zero
	movq	%rcx, -1624(%rbp)
	movss	%xmm0, -1628(%rbp)
	movq	-1624(%rbp), %rcx
	leaq	-1628(%rbp), %rdx
	movq	%rdx, -1616(%rbp)
	movss	-1628(%rbp), %xmm0      ## xmm0 = mem[0],zero,zero,zero
	movss	%xmm0, (%rcx)
	movl	$1000, -2252(%rbp)      ## imm = 0x3E8
	movq	%rax, -1584(%rbp)
	leaq	-2252(%rbp), %rax
	movq	%rax, -1592(%rbp)
	movq	-1584(%rbp), %rdi
	movq	%rax, -1560(%rbp)
Ltmp0:
	movq	%rax, %rsi
	callq	__ZNSt3__112__hash_tableIiNS_4hashIiEENS_8equal_toIiEENS_9allocatorIiEEE15__insert_uniqueIiEENS_4pairINS_15__hash_iteratorIPNS_11__hash_nodeIiPvEEEEbEEOT_
Ltmp1:
	movb	%dl, -2509(%rbp)        ## 1-byte Spill
	movq	%rax, -2520(%rbp)       ## 8-byte Spill
	jmp	LBB0_1
LBB0_1:                                 ## %_ZNSt3__113unordered_setIiNS_4hashIiEENS_8equal_toIiEENS_9allocatorIiEEE6insertEOi.exit
	movq	-2520(%rbp), %rax       ## 8-byte Reload
	movq	%rax, -1608(%rbp)
	movb	-2509(%rbp), %cl        ## 1-byte Reload
	movb	%cl, -1600(%rbp)
	leaq	-1576(%rbp), %rdx
	movq	%rdx, -1536(%rbp)
	leaq	-1608(%rbp), %rdx
	movq	%rdx, -1544(%rbp)
	movq	$0, -1552(%rbp)
	movq	-1536(%rbp), %rdx
	movq	-1544(%rbp), %rsi
	movq	%rdx, -1512(%rbp)
	movq	%rsi, -1520(%rbp)
	movq	$0, -1528(%rbp)
	movq	-1512(%rbp), %rdx
	movq	-1520(%rbp), %rsi
	movq	%rsi, -1504(%rbp)
	movq	%rdx, -1480(%rbp)
	movq	%rsi, -1488(%rbp)
	movq	-1480(%rbp), %rdi
	movq	%rdi, -1464(%rbp)
	movq	%rsi, -1472(%rbp)
	movq	-1464(%rbp), %rdi
	movq	(%rsi), %rsi
	movq	%rsi, (%rdi)
	movq	-1520(%rbp), %rsi
	movq	%rsi, %rdi
	addq	$8, %rdi
	movq	%rdi, -1496(%rbp)
	movb	8(%rsi), %r8b
	andb	$1, %r8b
	movb	%r8b, 8(%rdx)
	movb	-1568(%rbp), %r8b
	movq	-1576(%rbp), %rdx
	movb	%r8b, -2521(%rbp)       ## 1-byte Spill
	movq	%rdx, -2536(%rbp)       ## 8-byte Spill
## BB#2:
	movq	-2536(%rbp), %rax       ## 8-byte Reload
	movq	%rax, -2288(%rbp)
	movb	-2521(%rbp), %cl        ## 1-byte Reload
	movb	%cl, -2280(%rbp)
	movl	$-3, -2292(%rbp)
	leaq	-2248(%rbp), %rdx
	movq	%rdx, -1432(%rbp)
	leaq	-2292(%rbp), %rdx
	movq	%rdx, -1440(%rbp)
	movq	-1432(%rbp), %rdi
	movq	%rdx, -1408(%rbp)
Ltmp2:
	movq	%rdx, %rsi
	callq	__ZNSt3__112__hash_tableIiNS_4hashIiEENS_8equal_toIiEENS_9allocatorIiEEE15__insert_uniqueIiEENS_4pairINS_15__hash_iteratorIPNS_11__hash_nodeIiPvEEEEbEEOT_
Ltmp3:
	movb	%dl, -2537(%rbp)        ## 1-byte Spill
	movq	%rax, -2552(%rbp)       ## 8-byte Spill
	jmp	LBB0_3
LBB0_3:                                 ## %_ZNSt3__113unordered_setIiNS_4hashIiEENS_8equal_toIiEENS_9allocatorIiEEE6insertEOi.exit1
	movq	-2552(%rbp), %rax       ## 8-byte Reload
	movq	%rax, -1456(%rbp)
	movb	-2537(%rbp), %cl        ## 1-byte Reload
	movb	%cl, -1448(%rbp)
	leaq	-1424(%rbp), %rdx
	movq	%rdx, -1384(%rbp)
	leaq	-1456(%rbp), %rdx
	movq	%rdx, -1392(%rbp)
	movq	$0, -1400(%rbp)
	movq	-1384(%rbp), %rdx
	movq	-1392(%rbp), %rsi
	movq	%rdx, -1360(%rbp)
	movq	%rsi, -1368(%rbp)
	movq	$0, -1376(%rbp)
	movq	-1360(%rbp), %rdx
	movq	-1368(%rbp), %rsi
	movq	%rsi, -1352(%rbp)
	movq	%rdx, -1328(%rbp)
	movq	%rsi, -1336(%rbp)
	movq	-1328(%rbp), %rdi
	movq	%rdi, -1312(%rbp)
	movq	%rsi, -1320(%rbp)
	movq	-1312(%rbp), %rdi
	movq	(%rsi), %rsi
	movq	%rsi, (%rdi)
	movq	-1368(%rbp), %rsi
	movq	%rsi, %rdi
	addq	$8, %rdi
	movq	%rdi, -1344(%rbp)
	movb	8(%rsi), %r8b
	andb	$1, %r8b
	movb	%r8b, 8(%rdx)
	movb	-1416(%rbp), %r8b
	movq	-1424(%rbp), %rdx
	movb	%r8b, -2553(%rbp)       ## 1-byte Spill
	movq	%rdx, -2568(%rbp)       ## 8-byte Spill
## BB#4:
	movq	-2568(%rbp), %rax       ## 8-byte Reload
	movq	%rax, -2312(%rbp)
	movb	-2553(%rbp), %cl        ## 1-byte Reload
	movb	%cl, -2304(%rbp)
	movl	$2011, -2316(%rbp)      ## imm = 0x7DB
	leaq	-2248(%rbp), %rdx
	movq	%rdx, -1280(%rbp)
	leaq	-2316(%rbp), %rdx
	movq	%rdx, -1288(%rbp)
	movq	-1280(%rbp), %rdi
	movq	%rdx, -1256(%rbp)
Ltmp4:
	movq	%rdx, %rsi
	callq	__ZNSt3__112__hash_tableIiNS_4hashIiEENS_8equal_toIiEENS_9allocatorIiEEE15__insert_uniqueIiEENS_4pairINS_15__hash_iteratorIPNS_11__hash_nodeIiPvEEEEbEEOT_
Ltmp5:
	movb	%dl, -2569(%rbp)        ## 1-byte Spill
	movq	%rax, -2584(%rbp)       ## 8-byte Spill
	jmp	LBB0_5
LBB0_5:                                 ## %_ZNSt3__113unordered_setIiNS_4hashIiEENS_8equal_toIiEENS_9allocatorIiEEE6insertEOi.exit2
	movq	-2584(%rbp), %rax       ## 8-byte Reload
	movq	%rax, -1304(%rbp)
	movb	-2569(%rbp), %cl        ## 1-byte Reload
	movb	%cl, -1296(%rbp)
	leaq	-1272(%rbp), %rdx
	movq	%rdx, -1232(%rbp)
	leaq	-1304(%rbp), %rdx
	movq	%rdx, -1240(%rbp)
	movq	$0, -1248(%rbp)
	movq	-1232(%rbp), %rdx
	movq	-1240(%rbp), %rsi
	movq	%rdx, -1208(%rbp)
	movq	%rsi, -1216(%rbp)
	movq	$0, -1224(%rbp)
	movq	-1208(%rbp), %rdx
	movq	-1216(%rbp), %rsi
	movq	%rsi, -1200(%rbp)
	movq	%rdx, -1176(%rbp)
	movq	%rsi, -1184(%rbp)
	movq	-1176(%rbp), %rdi
	movq	%rdi, -1160(%rbp)
	movq	%rsi, -1168(%rbp)
	movq	-1160(%rbp), %rdi
	movq	(%rsi), %rsi
	movq	%rsi, (%rdi)
	movq	-1216(%rbp), %rsi
	movq	%rsi, %rdi
	addq	$8, %rdi
	movq	%rdi, -1192(%rbp)
	movb	8(%rsi), %r8b
	andb	$1, %r8b
	movb	%r8b, 8(%rdx)
	movb	-1264(%rbp), %r8b
	movq	-1272(%rbp), %rdx
	movb	%r8b, -2585(%rbp)       ## 1-byte Spill
	movq	%rdx, -2600(%rbp)       ## 8-byte Spill
## BB#6:
	movq	-2600(%rbp), %rax       ## 8-byte Reload
	movq	%rax, -2336(%rbp)
	movb	-2585(%rbp), %cl        ## 1-byte Reload
	movb	%cl, -2328(%rbp)
	movl	$300, -2340(%rbp)       ## imm = 0x12C
	leaq	-2248(%rbp), %rdx
	movq	%rdx, -1128(%rbp)
	leaq	-2340(%rbp), %rdx
	movq	%rdx, -1136(%rbp)
	movq	-1128(%rbp), %rdi
	movq	%rdx, -1104(%rbp)
Ltmp6:
	movq	%rdx, %rsi
	callq	__ZNSt3__112__hash_tableIiNS_4hashIiEENS_8equal_toIiEENS_9allocatorIiEEE15__insert_uniqueIiEENS_4pairINS_15__hash_iteratorIPNS_11__hash_nodeIiPvEEEEbEEOT_
Ltmp7:
	movb	%dl, -2601(%rbp)        ## 1-byte Spill
	movq	%rax, -2616(%rbp)       ## 8-byte Spill
	jmp	LBB0_7
LBB0_7:                                 ## %_ZNSt3__113unordered_setIiNS_4hashIiEENS_8equal_toIiEENS_9allocatorIiEEE6insertEOi.exit3
	movq	-2616(%rbp), %rax       ## 8-byte Reload
	movq	%rax, -1152(%rbp)
	movb	-2601(%rbp), %cl        ## 1-byte Reload
	movb	%cl, -1144(%rbp)
	leaq	-1120(%rbp), %rdx
	movq	%rdx, -1080(%rbp)
	leaq	-1152(%rbp), %rdx
	movq	%rdx, -1088(%rbp)
	movq	$0, -1096(%rbp)
	movq	-1080(%rbp), %rdx
	movq	-1088(%rbp), %rsi
	movq	%rdx, -1056(%rbp)
	movq	%rsi, -1064(%rbp)
	movq	$0, -1072(%rbp)
	movq	-1056(%rbp), %rdx
	movq	-1064(%rbp), %rsi
	movq	%rsi, -1048(%rbp)
	movq	%rdx, -1024(%rbp)
	movq	%rsi, -1032(%rbp)
	movq	-1024(%rbp), %rdi
	movq	%rdi, -1008(%rbp)
	movq	%rsi, -1016(%rbp)
	movq	-1008(%rbp), %rdi
	movq	(%rsi), %rsi
	movq	%rsi, (%rdi)
	movq	-1064(%rbp), %rsi
	movq	%rsi, %rdi
	addq	$8, %rdi
	movq	%rdi, -1040(%rbp)
	movb	8(%rsi), %r8b
	andb	$1, %r8b
	movb	%r8b, 8(%rdx)
	movb	-1112(%rbp), %r8b
	movq	-1120(%rbp), %rdx
	movb	%r8b, -2617(%rbp)       ## 1-byte Spill
	movq	%rdx, -2632(%rbp)       ## 8-byte Spill
## BB#8:
	movq	-2632(%rbp), %rax       ## 8-byte Reload
	movq	%rax, -2360(%rbp)
	movb	-2617(%rbp), %cl        ## 1-byte Reload
	movb	%cl, -2352(%rbp)
	movl	$-1000, -2364(%rbp)     ## imm = 0xFFFFFFFFFFFFFC18
	leaq	-2248(%rbp), %rdx
	movq	%rdx, -976(%rbp)
	leaq	-2364(%rbp), %rdx
	movq	%rdx, -984(%rbp)
	movq	-976(%rbp), %rdi
	movq	%rdx, -952(%rbp)
Ltmp8:
	movq	%rdx, %rsi
	callq	__ZNSt3__112__hash_tableIiNS_4hashIiEENS_8equal_toIiEENS_9allocatorIiEEE15__insert_uniqueIiEENS_4pairINS_15__hash_iteratorIPNS_11__hash_nodeIiPvEEEEbEEOT_
Ltmp9:
	movb	%dl, -2633(%rbp)        ## 1-byte Spill
	movq	%rax, -2648(%rbp)       ## 8-byte Spill
	jmp	LBB0_9
LBB0_9:                                 ## %_ZNSt3__113unordered_setIiNS_4hashIiEENS_8equal_toIiEENS_9allocatorIiEEE6insertEOi.exit4
	movq	-2648(%rbp), %rax       ## 8-byte Reload
	movq	%rax, -1000(%rbp)
	movb	-2633(%rbp), %cl        ## 1-byte Reload
	movb	%cl, -992(%rbp)
	leaq	-968(%rbp), %rdx
	movq	%rdx, -928(%rbp)
	leaq	-1000(%rbp), %rdx
	movq	%rdx, -936(%rbp)
	movq	$0, -944(%rbp)
	movq	-928(%rbp), %rdx
	movq	-936(%rbp), %rsi
	movq	%rdx, -904(%rbp)
	movq	%rsi, -912(%rbp)
	movq	$0, -920(%rbp)
	movq	-904(%rbp), %rdx
	movq	-912(%rbp), %rsi
	movq	%rsi, -896(%rbp)
	movq	%rdx, -872(%rbp)
	movq	%rsi, -880(%rbp)
	movq	-872(%rbp), %rdi
	movq	%rdi, -856(%rbp)
	movq	%rsi, -864(%rbp)
	movq	-856(%rbp), %rdi
	movq	(%rsi), %rsi
	movq	%rsi, (%rdi)
	movq	-912(%rbp), %rsi
	movq	%rsi, %rdi
	addq	$8, %rdi
	movq	%rdi, -888(%rbp)
	movb	8(%rsi), %r8b
	andb	$1, %r8b
	movb	%r8b, 8(%rdx)
	movb	-960(%rbp), %r8b
	movq	-968(%rbp), %rdx
	movb	%r8b, -2649(%rbp)       ## 1-byte Spill
	movq	%rdx, -2664(%rbp)       ## 8-byte Spill
## BB#10:
	movq	-2664(%rbp), %rax       ## 8-byte Reload
	movq	%rax, -2384(%rbp)
	movb	-2649(%rbp), %cl        ## 1-byte Reload
	movb	%cl, -2376(%rbp)
	movl	$989, -2388(%rbp)       ## imm = 0x3DD
	leaq	-2248(%rbp), %rdx
	movq	%rdx, -824(%rbp)
	leaq	-2388(%rbp), %rdx
	movq	%rdx, -832(%rbp)
	movq	-824(%rbp), %rdi
	movq	%rdx, -800(%rbp)
Ltmp10:
	movq	%rdx, %rsi
	callq	__ZNSt3__112__hash_tableIiNS_4hashIiEENS_8equal_toIiEENS_9allocatorIiEEE15__insert_uniqueIiEENS_4pairINS_15__hash_iteratorIPNS_11__hash_nodeIiPvEEEEbEEOT_
Ltmp11:
	movb	%dl, -2665(%rbp)        ## 1-byte Spill
	movq	%rax, -2680(%rbp)       ## 8-byte Spill
	jmp	LBB0_11
LBB0_11:                                ## %_ZNSt3__113unordered_setIiNS_4hashIiEENS_8equal_toIiEENS_9allocatorIiEEE6insertEOi.exit5
	movq	-2680(%rbp), %rax       ## 8-byte Reload
	movq	%rax, -848(%rbp)
	movb	-2665(%rbp), %cl        ## 1-byte Reload
	movb	%cl, -840(%rbp)
	leaq	-816(%rbp), %rdx
	movq	%rdx, -776(%rbp)
	leaq	-848(%rbp), %rdx
	movq	%rdx, -784(%rbp)
	movq	$0, -792(%rbp)
	movq	-776(%rbp), %rdx
	movq	-784(%rbp), %rsi
	movq	%rdx, -752(%rbp)
	movq	%rsi, -760(%rbp)
	movq	$0, -768(%rbp)
	movq	-752(%rbp), %rdx
	movq	-760(%rbp), %rsi
	movq	%rsi, -744(%rbp)
	movq	%rdx, -720(%rbp)
	movq	%rsi, -728(%rbp)
	movq	-720(%rbp), %rdi
	movq	%rdi, -704(%rbp)
	movq	%rsi, -712(%rbp)
	movq	-704(%rbp), %rdi
	movq	(%rsi), %rsi
	movq	%rsi, (%rdi)
	movq	-760(%rbp), %rsi
	movq	%rsi, %rdi
	addq	$8, %rdi
	movq	%rdi, -736(%rbp)
	movb	8(%rsi), %r8b
	andb	$1, %r8b
	movb	%r8b, 8(%rdx)
	movb	-808(%rbp), %r8b
	movq	-816(%rbp), %rdx
	movb	%r8b, -2681(%rbp)       ## 1-byte Spill
	movq	%rdx, -2696(%rbp)       ## 8-byte Spill
## BB#12:
	movq	-2696(%rbp), %rax       ## 8-byte Reload
	movq	%rax, -2408(%rbp)
	movb	-2681(%rbp), %cl        ## 1-byte Reload
	movb	%cl, -2400(%rbp)
	movl	$-300, -2412(%rbp)      ## imm = 0xFFFFFFFFFFFFFED4
	leaq	-2248(%rbp), %rdx
	movq	%rdx, -672(%rbp)
	leaq	-2412(%rbp), %rdx
	movq	%rdx, -680(%rbp)
	movq	-672(%rbp), %rdi
	movq	%rdx, -648(%rbp)
Ltmp12:
	movq	%rdx, %rsi
	callq	__ZNSt3__112__hash_tableIiNS_4hashIiEENS_8equal_toIiEENS_9allocatorIiEEE15__insert_uniqueIiEENS_4pairINS_15__hash_iteratorIPNS_11__hash_nodeIiPvEEEEbEEOT_
Ltmp13:
	movb	%dl, -2697(%rbp)        ## 1-byte Spill
	movq	%rax, -2712(%rbp)       ## 8-byte Spill
	jmp	LBB0_13
LBB0_13:                                ## %_ZNSt3__113unordered_setIiNS_4hashIiEENS_8equal_toIiEENS_9allocatorIiEEE6insertEOi.exit6
	movq	-2712(%rbp), %rax       ## 8-byte Reload
	movq	%rax, -696(%rbp)
	movb	-2697(%rbp), %cl        ## 1-byte Reload
	movb	%cl, -688(%rbp)
	leaq	-664(%rbp), %rdx
	movq	%rdx, -624(%rbp)
	leaq	-696(%rbp), %rdx
	movq	%rdx, -632(%rbp)
	movq	$0, -640(%rbp)
	movq	-624(%rbp), %rdx
	movq	-632(%rbp), %rsi
	movq	%rdx, -600(%rbp)
	movq	%rsi, -608(%rbp)
	movq	$0, -616(%rbp)
	movq	-600(%rbp), %rdx
	movq	-608(%rbp), %rsi
	movq	%rsi, -592(%rbp)
	movq	%rdx, -568(%rbp)
	movq	%rsi, -576(%rbp)
	movq	-568(%rbp), %rdi
	movq	%rdi, -552(%rbp)
	movq	%rsi, -560(%rbp)
	movq	-552(%rbp), %rdi
	movq	(%rsi), %rsi
	movq	%rsi, (%rdi)
	movq	-608(%rbp), %rsi
	movq	%rsi, %rdi
	addq	$8, %rdi
	movq	%rdi, -584(%rbp)
	movb	8(%rsi), %r8b
	andb	$1, %r8b
	movb	%r8b, 8(%rdx)
	movb	-656(%rbp), %r8b
	movq	-664(%rbp), %rdx
	movb	%r8b, -2713(%rbp)       ## 1-byte Spill
	movq	%rdx, -2728(%rbp)       ## 8-byte Spill
## BB#14:
	movq	-2728(%rbp), %rax       ## 8-byte Reload
	movq	%rax, -2432(%rbp)
	movb	-2713(%rbp), %cl        ## 1-byte Reload
	movb	%cl, -2424(%rbp)
	movl	$111, -2436(%rbp)
	leaq	-2248(%rbp), %rdx
	movq	%rdx, -520(%rbp)
	leaq	-2436(%rbp), %rdx
	movq	%rdx, -528(%rbp)
	movq	-520(%rbp), %rdi
	movq	%rdx, -496(%rbp)
Ltmp14:
	movq	%rdx, %rsi
	callq	__ZNSt3__112__hash_tableIiNS_4hashIiEENS_8equal_toIiEENS_9allocatorIiEEE15__insert_uniqueIiEENS_4pairINS_15__hash_iteratorIPNS_11__hash_nodeIiPvEEEEbEEOT_
Ltmp15:
	movb	%dl, -2729(%rbp)        ## 1-byte Spill
	movq	%rax, -2744(%rbp)       ## 8-byte Spill
	jmp	LBB0_15
LBB0_15:                                ## %_ZNSt3__113unordered_setIiNS_4hashIiEENS_8equal_toIiEENS_9allocatorIiEEE6insertEOi.exit7
	movq	-2744(%rbp), %rax       ## 8-byte Reload
	movq	%rax, -544(%rbp)
	movb	-2729(%rbp), %cl        ## 1-byte Reload
	movb	%cl, -536(%rbp)
	leaq	-512(%rbp), %rdx
	movq	%rdx, -472(%rbp)
	leaq	-544(%rbp), %rdx
	movq	%rdx, -480(%rbp)
	movq	$0, -488(%rbp)
	movq	-472(%rbp), %rdx
	movq	-480(%rbp), %rsi
	movq	%rdx, -448(%rbp)
	movq	%rsi, -456(%rbp)
	movq	$0, -464(%rbp)
	movq	-448(%rbp), %rdx
	movq	-456(%rbp), %rsi
	movq	%rsi, -440(%rbp)
	movq	%rdx, -416(%rbp)
	movq	%rsi, -424(%rbp)
	movq	-416(%rbp), %rdi
	movq	%rdi, -400(%rbp)
	movq	%rsi, -408(%rbp)
	movq	-400(%rbp), %rdi
	movq	(%rsi), %rsi
	movq	%rsi, (%rdi)
	movq	-456(%rbp), %rsi
	movq	%rsi, %rdi
	addq	$8, %rdi
	movq	%rdi, -432(%rbp)
	movb	8(%rsi), %r8b
	andb	$1, %r8b
	movb	%r8b, 8(%rdx)
	movb	-504(%rbp), %r8b
	movq	-512(%rbp), %rdx
	movb	%r8b, -2745(%rbp)       ## 1-byte Spill
	movq	%rdx, -2760(%rbp)       ## 8-byte Spill
## BB#16:
	movq	-2760(%rbp), %rax       ## 8-byte Reload
	movq	%rax, -2456(%rbp)
	movb	-2745(%rbp), %cl        ## 1-byte Reload
	movb	%cl, -2448(%rbp)
Ltmp16:
	leaq	-2248(%rbp), %rdi
	callq	__Z15DisplayContentsINSt3__113unordered_setIiNS0_4hashIiEENS0_8equal_toIiEENS0_9allocatorIiEEEEEvRKT_
Ltmp17:
	jmp	LBB0_17
LBB0_17:
	movl	$999, -2460(%rbp)       ## imm = 0x3E7
	leaq	-2248(%rbp), %rax
	movq	%rax, -368(%rbp)
	leaq	-2460(%rbp), %rax
	movq	%rax, -376(%rbp)
	movq	-368(%rbp), %rdi
	movq	%rax, -344(%rbp)
Ltmp18:
	movq	%rax, %rsi
	callq	__ZNSt3__112__hash_tableIiNS_4hashIiEENS_8equal_toIiEENS_9allocatorIiEEE15__insert_uniqueIiEENS_4pairINS_15__hash_iteratorIPNS_11__hash_nodeIiPvEEEEbEEOT_
Ltmp19:
	movb	%dl, -2761(%rbp)        ## 1-byte Spill
	movq	%rax, -2776(%rbp)       ## 8-byte Spill
	jmp	LBB0_18
LBB0_18:                                ## %_ZNSt3__113unordered_setIiNS_4hashIiEENS_8equal_toIiEENS_9allocatorIiEEE6insertEOi.exit8
	movq	-2776(%rbp), %rax       ## 8-byte Reload
	movq	%rax, -392(%rbp)
	movb	-2761(%rbp), %cl        ## 1-byte Reload
	movb	%cl, -384(%rbp)
	leaq	-360(%rbp), %rdx
	movq	%rdx, -320(%rbp)
	leaq	-392(%rbp), %rdx
	movq	%rdx, -328(%rbp)
	movq	$0, -336(%rbp)
	movq	-320(%rbp), %rdx
	movq	-328(%rbp), %rsi
	movq	%rdx, -296(%rbp)
	movq	%rsi, -304(%rbp)
	movq	$0, -312(%rbp)
	movq	-296(%rbp), %rdx
	movq	-304(%rbp), %rsi
	movq	%rsi, -288(%rbp)
	movq	%rdx, -264(%rbp)
	movq	%rsi, -272(%rbp)
	movq	-264(%rbp), %rdi
	movq	%rdi, -248(%rbp)
	movq	%rsi, -256(%rbp)
	movq	-248(%rbp), %rdi
	movq	(%rsi), %rsi
	movq	%rsi, (%rdi)
	movq	-304(%rbp), %rsi
	movq	%rsi, %rdi
	addq	$8, %rdi
	movq	%rdi, -280(%rbp)
	movb	8(%rsi), %r8b
	andb	$1, %r8b
	movb	%r8b, 8(%rdx)
	movb	-352(%rbp), %r8b
	movq	-360(%rbp), %rdx
	movb	%r8b, -2777(%rbp)       ## 1-byte Spill
	movq	%rdx, -2792(%rbp)       ## 8-byte Spill
## BB#19:
	movq	-2792(%rbp), %rax       ## 8-byte Reload
	movq	%rax, -2480(%rbp)
	movb	-2777(%rbp), %cl        ## 1-byte Reload
	movb	%cl, -2472(%rbp)
Ltmp20:
	leaq	-2248(%rbp), %rdi
	callq	__Z15DisplayContentsINSt3__113unordered_setIiNS0_4hashIiEENS0_8equal_toIiEENS0_9allocatorIiEEEEEvRKT_
Ltmp21:
	jmp	LBB0_20
LBB0_20:
Ltmp22:
	movq	__ZNSt3__14coutE@GOTPCREL(%rip), %rdi
	leaq	L_.str(%rip), %rsi
	callq	__ZNSt3__1lsINS_11char_traitsIcEEEERNS_13basic_ostreamIcT_EES6_PKc
Ltmp23:
	movq	%rax, -2800(%rbp)       ## 8-byte Spill
	jmp	LBB0_21
LBB0_21:
	movl	$0, -2484(%rbp)
Ltmp24:
	movq	__ZNSt3__13cinE@GOTPCREL(%rip), %rdi
	leaq	-2484(%rbp), %rsi
	callq	__ZNSt3__113basic_istreamIcNS_11char_traitsIcEEErsERi
Ltmp25:
	movq	%rax, -2808(%rbp)       ## 8-byte Spill
	jmp	LBB0_22
LBB0_22:
	leaq	-2484(%rbp), %rax
	leaq	-2248(%rbp), %rcx
	movq	%rcx, -224(%rbp)
	movq	%rax, -232(%rbp)
	movq	-224(%rbp), %rdi
	movq	-232(%rbp), %rsi
	callq	__ZNSt3__112__hash_tableIiNS_4hashIiEENS_8equal_toIiEENS_9allocatorIiEEE4findIiEENS_15__hash_iteratorIPNS_11__hash_nodeIiPvEEEERKT_
	leaq	-240(%rbp), %rcx
	leaq	-216(%rbp), %rsi
	movq	%rax, -240(%rbp)
	movq	%rsi, -200(%rbp)
	movq	%rcx, -208(%rbp)
	movq	-200(%rbp), %rax
	movq	-208(%rbp), %rcx
	movq	%rax, -184(%rbp)
	movq	%rcx, -192(%rbp)
	movq	-184(%rbp), %rax
	movq	-192(%rbp), %rcx
	movq	(%rcx), %rcx
	movq	%rcx, (%rax)
	movq	-216(%rbp), %rax
	movq	%rax, -2816(%rbp)       ## 8-byte Spill
## BB#23:
	leaq	-2504(%rbp), %rax
	leaq	-2496(%rbp), %rcx
	leaq	-176(%rbp), %rdx
	leaq	-160(%rbp), %rsi
	leaq	-144(%rbp), %rdi
	leaq	-2248(%rbp), %r8
	movq	-2816(%rbp), %r9        ## 8-byte Reload
	movq	%r9, -2496(%rbp)
	movq	%r8, -168(%rbp)
	movq	-168(%rbp), %r8
	movq	%r8, -152(%rbp)
	movq	%rdi, -128(%rbp)
	movq	$0, -136(%rbp)
	movq	-128(%rbp), %rdi
	movq	-136(%rbp), %r8
	movq	%rdi, -112(%rbp)
	movq	%r8, -120(%rbp)
	movq	-112(%rbp), %rdi
	movq	-120(%rbp), %r8
	movq	%r8, (%rdi)
	movq	-144(%rbp), %rdi
	movq	%rdi, -176(%rbp)
	movq	%rsi, -96(%rbp)
	movq	%rdx, -104(%rbp)
	movq	-96(%rbp), %rdx
	movq	-104(%rbp), %rsi
	movq	%rdx, -80(%rbp)
	movq	%rsi, -88(%rbp)
	movq	-80(%rbp), %rdx
	movq	-88(%rbp), %rsi
	movq	(%rsi), %rsi
	movq	%rsi, (%rdx)
	movq	-160(%rbp), %rdx
	movq	%rdx, -2504(%rbp)
	movq	%rcx, -48(%rbp)
	movq	%rax, -56(%rbp)
	movq	-48(%rbp), %rax
	movq	-56(%rbp), %rcx
	movq	%rax, -32(%rbp)
	movq	%rcx, -40(%rbp)
	movq	-32(%rbp), %rax
	movq	(%rax), %rax
	movq	-40(%rbp), %rcx
	cmpq	(%rcx), %rax
	sete	%r10b
	xorb	$1, %r10b
	movb	%r10b, -2817(%rbp)      ## 1-byte Spill
## BB#24:
	movb	-2817(%rbp), %al        ## 1-byte Reload
	testb	$1, %al
	jne	LBB0_25
	jmp	LBB0_32
LBB0_25:
	leaq	-2496(%rbp), %rax
	movq	%rax, -24(%rbp)
	movq	-24(%rbp), %rax
	movq	(%rax), %rax
	addq	$16, %rax
	movq	%rax, -2832(%rbp)       ## 8-byte Spill
## BB#26:
	movq	-2832(%rbp), %rax       ## 8-byte Reload
	movl	(%rax), %esi
Ltmp32:
	movq	__ZNSt3__14coutE@GOTPCREL(%rip), %rdi
	callq	__ZNSt3__113basic_ostreamIcNS_11char_traitsIcEEElsEi
Ltmp33:
	movq	%rax, -2840(%rbp)       ## 8-byte Spill
	jmp	LBB0_27
LBB0_27:
Ltmp34:
	leaq	L_.str1(%rip), %rsi
	movq	-2840(%rbp), %rdi       ## 8-byte Reload
	callq	__ZNSt3__1lsINS_11char_traitsIcEEEERNS_13basic_ostreamIcT_EES6_PKc
Ltmp35:
	movq	%rax, -2848(%rbp)       ## 8-byte Spill
	jmp	LBB0_28
LBB0_28:
	movq	-2848(%rbp), %rax       ## 8-byte Reload
	movq	%rax, -8(%rbp)
	leaq	__ZNSt3__14endlIcNS_11char_traitsIcEEEERNS_13basic_ostreamIT_T0_EES7_(%rip), %rcx
	movq	%rcx, -16(%rbp)
	movq	-8(%rbp), %rdi
Ltmp36:
	callq	*%rcx
Ltmp37:
	movq	%rax, -2856(%rbp)       ## 8-byte Spill
	jmp	LBB0_29
LBB0_29:                                ## %_ZNSt3__113basic_ostreamIcNS_11char_traitsIcEEElsEPFRS3_S4_E.exit9
	jmp	LBB0_30
LBB0_30:
	jmp	LBB0_37
LBB0_31:
Ltmp38:
	leaq	-2248(%rbp), %rdi
	movl	%edx, %ecx
	movq	%rax, -2264(%rbp)
	movl	%ecx, -2268(%rbp)
	callq	__ZNSt3__113unordered_setIiNS_4hashIiEENS_8equal_toIiEENS_9allocatorIiEEED1Ev
	jmp	LBB0_38
LBB0_32:
	movl	-2484(%rbp), %esi
Ltmp26:
	movq	__ZNSt3__14coutE@GOTPCREL(%rip), %rdi
	callq	__ZNSt3__113basic_ostreamIcNS_11char_traitsIcEEElsEi
Ltmp27:
	movq	%rax, -2864(%rbp)       ## 8-byte Spill
	jmp	LBB0_33
LBB0_33:
Ltmp28:
	leaq	L_.str2(%rip), %rsi
	movq	-2864(%rbp), %rdi       ## 8-byte Reload
	callq	__ZNSt3__1lsINS_11char_traitsIcEEEERNS_13basic_ostreamIcT_EES6_PKc
Ltmp29:
	movq	%rax, -2872(%rbp)       ## 8-byte Spill
	jmp	LBB0_34
LBB0_34:
	movq	-2872(%rbp), %rax       ## 8-byte Reload
	movq	%rax, -64(%rbp)
	leaq	__ZNSt3__14endlIcNS_11char_traitsIcEEEERNS_13basic_ostreamIT_T0_EES7_(%rip), %rcx
	movq	%rcx, -72(%rbp)
	movq	-64(%rbp), %rdi
Ltmp30:
	callq	*%rcx
Ltmp31:
	movq	%rax, -2880(%rbp)       ## 8-byte Spill
	jmp	LBB0_35
LBB0_35:                                ## %_ZNSt3__113basic_ostreamIcNS_11char_traitsIcEEElsEPFRS3_S4_E.exit
	jmp	LBB0_36
LBB0_36:
	jmp	LBB0_37
LBB0_37:
	leaq	-2248(%rbp), %rdi
	movl	$0, -2204(%rbp)
	movl	$1, -2508(%rbp)
	callq	__ZNSt3__113unordered_setIiNS_4hashIiEENS_8equal_toIiEENS_9allocatorIiEEED1Ev
	movl	-2204(%rbp), %eax
	addq	$2880, %rsp             ## imm = 0xB40
	popq	%rbp
	retq
LBB0_38:
	movq	-2264(%rbp), %rdi
	callq	__Unwind_Resume
Lfunc_end0:
	.cfi_endproc
	.section	__TEXT,__gcc_except_tab
	.align	2
GCC_except_table0:
Lexception0:
	.byte	255                     ## @LPStart Encoding = omit
	.byte	155                     ## @TType Encoding = indirect pcrel sdata4
	.asciz	"\234"                  ## @TType base offset
	.byte	3                       ## Call site Encoding = udata4
	.byte	26                      ## Call site table length
Lset0 = Ltmp0-Lfunc_begin0              ## >> Call Site 1 <<
	.long	Lset0
Lset1 = Ltmp31-Ltmp0                    ##   Call between Ltmp0 and Ltmp31
	.long	Lset1
Lset2 = Ltmp38-Lfunc_begin0             ##     jumps to Ltmp38
	.long	Lset2
	.byte	0                       ##   On action: cleanup
Lset3 = Ltmp31-Lfunc_begin0             ## >> Call Site 2 <<
	.long	Lset3
Lset4 = Lfunc_end0-Ltmp31               ##   Call between Ltmp31 and Lfunc_end0
	.long	Lset4
	.long	0                       ##     has no landing pad
	.byte	0                       ##   On action: cleanup
	.align	2

	.section	__TEXT,__textcoal_nt,coalesced,pure_instructions
	.globl	__Z15DisplayContentsINSt3__113unordered_setIiNS0_4hashIiEENS0_8equal_toIiEENS0_9allocatorIiEEEEEvRKT_
	.weak_def_can_be_hidden	__Z15DisplayContentsINSt3__113unordered_setIiNS0_4hashIiEENS0_8equal_toIiEENS0_9allocatorIiEEEEEvRKT_
	.align	4, 0x90
__Z15DisplayContentsINSt3__113unordered_setIiNS0_4hashIiEENS0_8equal_toIiEENS0_9allocatorIiEEEEEvRKT_: ## @_Z15DisplayContentsINSt3__113unordered_setIiNS0_4hashIiEENS0_8equal_toIiEENS0_9allocatorIiEEEEEvRKT_
	.cfi_startproc
## BB#0:
	pushq	%rbp
Ltmp42:
	.cfi_def_cfa_offset 16
Ltmp43:
	.cfi_offset %rbp, -16
	movq	%rsp, %rbp
Ltmp44:
	.cfi_def_cfa_register %rbp
	subq	$688, %rsp              ## imm = 0x2B0
	movq	__ZNSt3__14coutE@GOTPCREL(%rip), %rax
	leaq	L_.str3(%rip), %rsi
	movq	%rdi, -576(%rbp)
	movq	%rax, %rdi
	callq	__ZNSt3__1lsINS_11char_traitsIcEEEERNS_13basic_ostreamIcT_EES6_PKc
	movq	-576(%rbp), %rsi
	movq	%rsi, -568(%rbp)
	movq	-568(%rbp), %rsi
	movq	%rsi, -560(%rbp)
	movq	-560(%rbp), %rsi
	addq	$24, %rsi
	movq	%rsi, -552(%rbp)
	movq	-552(%rbp), %rsi
	movq	%rsi, -544(%rbp)
	movq	-544(%rbp), %rsi
	movq	(%rsi), %rsi
	movq	%rax, %rdi
	callq	__ZNSt3__113basic_ostreamIcNS_11char_traitsIcEEElsEm
	leaq	__ZNSt3__14endlIcNS_11char_traitsIcEEEERNS_13basic_ostreamIT_T0_EES7_(%rip), %rsi
	movq	%rax, -512(%rbp)
	movq	%rsi, -520(%rbp)
	movq	-512(%rbp), %rdi
	callq	*-520(%rbp)
	movq	__ZNSt3__14coutE@GOTPCREL(%rip), %rdi
	leaq	L_.str4(%rip), %rsi
	movq	%rax, -600(%rbp)        ## 8-byte Spill
	callq	__ZNSt3__1lsINS_11char_traitsIcEEEERNS_13basic_ostreamIcT_EES6_PKc
	movabsq	$2305843009213693951, %rsi ## imm = 0x1FFFFFFFFFFFFFFF
	movq	-576(%rbp), %rdi
	movq	%rdi, -504(%rbp)
	movq	-504(%rbp), %rdi
	movq	%rdi, -496(%rbp)
	movq	-496(%rbp), %rdi
	movq	%rdi, -488(%rbp)
	movq	-488(%rbp), %rdi
	movq	%rdi, -480(%rbp)
	movq	-480(%rbp), %rdi
	movq	%rdi, -472(%rbp)
	movq	-472(%rbp), %rdi
	addq	$8, %rdi
	movq	%rdi, -416(%rbp)
	movq	-416(%rbp), %rdi
	movq	%rdi, -408(%rbp)
	movq	-408(%rbp), %rdi
	movq	%rdi, -400(%rbp)
	movq	-400(%rbp), %rdi
	movq	%rdi, -448(%rbp)
	movq	-448(%rbp), %rdi
	movq	%rdi, -440(%rbp)
	movq	-440(%rbp), %rdi
	movq	%rdi, -424(%rbp)
	movq	%rax, %rdi
	callq	__ZNSt3__113basic_ostreamIcNS_11char_traitsIcEEElsEm
	leaq	__ZNSt3__14endlIcNS_11char_traitsIcEEEERNS_13basic_ostreamIT_T0_EES7_(%rip), %rsi
	movq	%rax, -376(%rbp)
	movq	%rsi, -384(%rbp)
	movq	-376(%rbp), %rdi
	callq	*-384(%rbp)
	movq	__ZNSt3__14coutE@GOTPCREL(%rip), %rdi
	leaq	L_.str5(%rip), %rsi
	movq	%rax, -608(%rbp)        ## 8-byte Spill
	callq	__ZNSt3__1lsINS_11char_traitsIcEEEERNS_13basic_ostreamIcT_EES6_PKc
	movq	-576(%rbp), %rsi
	movq	%rsi, -368(%rbp)
	movq	-368(%rbp), %rsi
	movq	%rsi, -352(%rbp)
	movq	-352(%rbp), %rsi
	movq	%rsi, -344(%rbp)
	movq	-344(%rbp), %rdi
	movq	%rdi, -336(%rbp)
	movq	-336(%rbp), %rdi
	movq	%rdi, -328(%rbp)
	movq	-328(%rbp), %rdi
	movq	%rdi, -320(%rbp)
	movq	-320(%rbp), %rdi
	addq	$8, %rdi
	movq	%rdi, -312(%rbp)
	movq	-312(%rbp), %rdi
	movq	%rdi, -304(%rbp)
	movq	-304(%rbp), %rdi
	movq	%rdi, -296(%rbp)
	movq	-296(%rbp), %rdi
	movq	(%rdi), %rdi
	movq	%rdi, -360(%rbp)
	cmpq	$0, -360(%rbp)
	movq	%rax, -616(%rbp)        ## 8-byte Spill
	movq	%rsi, -624(%rbp)        ## 8-byte Spill
	je	LBB1_2
## BB#1:
	movq	-624(%rbp), %rax        ## 8-byte Reload
	movq	%rax, -288(%rbp)
	addq	$24, %rax
	movq	%rax, -280(%rbp)
	movq	%rax, -272(%rbp)
	movq	-624(%rbp), %rax        ## 8-byte Reload
	movq	24(%rax), %rcx
	movq	%rcx, %rdx
	shrq	%rdx
	movq	%rcx, %rsi
	andq	$1, %rsi
	orq	%rdx, %rsi
	cvtsi2ssq	%rsi, %xmm0
	addss	%xmm0, %xmm0
	cvtsi2ssq	%rcx, %xmm1
	testq	%rcx, %rcx
	movss	%xmm1, -628(%rbp)       ## 4-byte Spill
	movss	%xmm0, -632(%rbp)       ## 4-byte Spill
	js	LBB1_9
## BB#8:
	movss	-628(%rbp), %xmm0       ## 4-byte Reload
                                        ## xmm0 = mem[0],zero,zero,zero
	movss	%xmm0, -632(%rbp)       ## 4-byte Spill
LBB1_9:
	movss	-632(%rbp), %xmm0       ## 4-byte Reload
                                        ## xmm0 = mem[0],zero,zero,zero
	movq	-360(%rbp), %rax
	movq	%rax, %rcx
	shrq	%rcx
	movq	%rax, %rdx
	andq	$1, %rdx
	orq	%rcx, %rdx
	cvtsi2ssq	%rdx, %xmm1
	addss	%xmm1, %xmm1
	cvtsi2ssq	%rax, %xmm2
	testq	%rax, %rax
	movss	%xmm0, -636(%rbp)       ## 4-byte Spill
	movss	%xmm2, -640(%rbp)       ## 4-byte Spill
	movss	%xmm1, -644(%rbp)       ## 4-byte Spill
	js	LBB1_11
## BB#10:
	movss	-640(%rbp), %xmm0       ## 4-byte Reload
                                        ## xmm0 = mem[0],zero,zero,zero
	movss	%xmm0, -644(%rbp)       ## 4-byte Spill
LBB1_11:
	movss	-644(%rbp), %xmm0       ## 4-byte Reload
                                        ## xmm0 = mem[0],zero,zero,zero
	movss	-636(%rbp), %xmm1       ## 4-byte Reload
                                        ## xmm1 = mem[0],zero,zero,zero
	divss	%xmm0, %xmm1
	movss	%xmm1, -648(%rbp)       ## 4-byte Spill
	jmp	LBB1_3
LBB1_2:
	xorps	%xmm0, %xmm0
	movss	%xmm0, -648(%rbp)       ## 4-byte Spill
	jmp	LBB1_3
LBB1_3:                                 ## %_ZNKSt3__113unordered_setIiNS_4hashIiEENS_8equal_toIiEENS_9allocatorIiEEE11load_factorEv.exit
	movss	-648(%rbp), %xmm0       ## 4-byte Reload
                                        ## xmm0 = mem[0],zero,zero,zero
	movq	-616(%rbp), %rdi        ## 8-byte Reload
	callq	__ZNSt3__113basic_ostreamIcNS_11char_traitsIcEEElsEf
	leaq	__ZNSt3__14endlIcNS_11char_traitsIcEEEERNS_13basic_ostreamIT_T0_EES7_(%rip), %rdi
	movq	%rax, -56(%rbp)
	movq	%rdi, -64(%rbp)
	movq	-56(%rbp), %rdi
	callq	*-64(%rbp)
	movq	__ZNSt3__14coutE@GOTPCREL(%rip), %rdi
	leaq	L_.str6(%rip), %rsi
	movq	%rax, -656(%rbp)        ## 8-byte Spill
	callq	__ZNSt3__1lsINS_11char_traitsIcEEEERNS_13basic_ostreamIcT_EES6_PKc
	movq	-576(%rbp), %rsi
	movq	%rsi, -48(%rbp)
	movq	-48(%rbp), %rsi
	movq	%rsi, -40(%rbp)
	movq	-40(%rbp), %rsi
	addq	$32, %rsi
	movq	%rsi, -32(%rbp)
	movq	-32(%rbp), %rsi
	movq	%rsi, -24(%rbp)
	movq	-24(%rbp), %rsi
	movss	(%rsi), %xmm0           ## xmm0 = mem[0],zero,zero,zero
	movq	%rax, %rdi
	callq	__ZNSt3__113basic_ostreamIcNS_11char_traitsIcEEElsEf
	leaq	__ZNSt3__14endlIcNS_11char_traitsIcEEEERNS_13basic_ostreamIT_T0_EES7_(%rip), %rsi
	movq	%rax, -8(%rbp)
	movq	%rsi, -16(%rbp)
	movq	-8(%rbp), %rdi
	callq	*-16(%rbp)
	movq	__ZNSt3__14coutE@GOTPCREL(%rip), %rdi
	leaq	L_.str7(%rip), %rsi
	movq	%rax, -664(%rbp)        ## 8-byte Spill
	callq	__ZNSt3__1lsINS_11char_traitsIcEEEERNS_13basic_ostreamIcT_EES6_PKc
	leaq	__ZNSt3__14endlIcNS_11char_traitsIcEEEERNS_13basic_ostreamIT_T0_EES7_(%rip), %rsi
	movq	%rax, -72(%rbp)
	movq	%rsi, -80(%rbp)
	movq	-72(%rbp), %rdi
	callq	*-80(%rbp)
	leaq	-136(%rbp), %rsi
	movq	-576(%rbp), %rdi
	movq	%rdi, -160(%rbp)
	movq	-160(%rbp), %rdi
	movq	%rdi, -144(%rbp)
	movq	-144(%rbp), %rdi
	addq	$16, %rdi
	movq	%rdi, -128(%rbp)
	movq	-128(%rbp), %rdi
	movq	%rdi, -120(%rbp)
	movq	-120(%rbp), %rdi
	movq	(%rdi), %rdi
	movq	%rsi, -104(%rbp)
	movq	%rdi, -112(%rbp)
	movq	-104(%rbp), %rsi
	movq	-112(%rbp), %rdi
	movq	%rsi, -88(%rbp)
	movq	%rdi, -96(%rbp)
	movq	-88(%rbp), %rsi
	movq	-96(%rbp), %rdi
	movq	%rdi, (%rsi)
	movq	-136(%rbp), %rsi
	movq	%rsi, -152(%rbp)
	movq	-152(%rbp), %rsi
	movq	%rsi, -584(%rbp)
	movq	%rax, -672(%rbp)        ## 8-byte Spill
LBB1_4:                                 ## =>This Inner Loop Header: Depth=1
	leaq	-592(%rbp), %rax
	leaq	-584(%rbp), %rcx
	leaq	-200(%rbp), %rdx
	movq	-576(%rbp), %rsi
	movq	%rsi, -224(%rbp)
	movq	-224(%rbp), %rsi
	movq	%rsi, -208(%rbp)
	movq	%rdx, -184(%rbp)
	movq	$0, -192(%rbp)
	movq	-184(%rbp), %rdx
	movq	-192(%rbp), %rsi
	movq	%rdx, -168(%rbp)
	movq	%rsi, -176(%rbp)
	movq	-168(%rbp), %rdx
	movq	-176(%rbp), %rsi
	movq	%rsi, (%rdx)
	movq	-200(%rbp), %rdx
	movq	%rdx, -216(%rbp)
	movq	-216(%rbp), %rdx
	movq	%rdx, -592(%rbp)
	movq	%rcx, -248(%rbp)
	movq	%rax, -256(%rbp)
	movq	-248(%rbp), %rax
	movq	-256(%rbp), %rcx
	movq	%rax, -232(%rbp)
	movq	%rcx, -240(%rbp)
	movq	-232(%rbp), %rax
	movq	(%rax), %rax
	movq	-240(%rbp), %rcx
	cmpq	(%rcx), %rax
	sete	%dil
	xorb	$1, %dil
	testb	$1, %dil
	jne	LBB1_5
	jmp	LBB1_7
LBB1_5:                                 ##   in Loop: Header=BB1_4 Depth=1
	movq	__ZNSt3__14coutE@GOTPCREL(%rip), %rdi
	leaq	-584(%rbp), %rax
	movq	%rax, -264(%rbp)
	movq	-264(%rbp), %rax
	movq	(%rax), %rax
	movl	16(%rax), %esi
	callq	__ZNSt3__113basic_ostreamIcNS_11char_traitsIcEEElsEi
	movl	$32, %esi
	movq	%rax, %rdi
	callq	__ZNSt3__1lsINS_11char_traitsIcEEEERNS_13basic_ostreamIcT_EES6_c
	movq	%rax, -680(%rbp)        ## 8-byte Spill
## BB#6:                                ##   in Loop: Header=BB1_4 Depth=1
	leaq	-584(%rbp), %rax
	movq	%rax, -392(%rbp)
	movq	-392(%rbp), %rax
	movq	(%rax), %rcx
	movq	(%rcx), %rcx
	movq	%rcx, (%rax)
	jmp	LBB1_4
LBB1_7:
	leaq	__ZNSt3__14endlIcNS_11char_traitsIcEEEERNS_13basic_ostreamIT_T0_EES7_(%rip), %rax
	movq	__ZNSt3__14coutE@GOTPCREL(%rip), %rcx
	movq	%rcx, -528(%rbp)
	movq	%rax, -536(%rbp)
	movq	-528(%rbp), %rdi
	callq	*-536(%rbp)
	movq	%rax, -688(%rbp)        ## 8-byte Spill
	addq	$688, %rsp              ## imm = 0x2B0
	popq	%rbp
	retq
	.cfi_endproc

	.globl	__ZNSt3__1lsINS_11char_traitsIcEEEERNS_13basic_ostreamIcT_EES6_PKc
	.weak_def_can_be_hidden	__ZNSt3__1lsINS_11char_traitsIcEEEERNS_13basic_ostreamIcT_EES6_PKc
	.align	4, 0x90
__ZNSt3__1lsINS_11char_traitsIcEEEERNS_13basic_ostreamIcT_EES6_PKc: ## @_ZNSt3__1lsINS_11char_traitsIcEEEERNS_13basic_ostreamIcT_EES6_PKc
	.cfi_startproc
## BB#0:
	pushq	%rbp
Ltmp45:
	.cfi_def_cfa_offset 16
Ltmp46:
	.cfi_offset %rbp, -16
	movq	%rsp, %rbp
Ltmp47:
	.cfi_def_cfa_register %rbp
	subq	$32, %rsp
	movq	%rdi, -8(%rbp)
	movq	%rsi, -16(%rbp)
	movq	-8(%rbp), %rdi
	movq	-16(%rbp), %rsi
	movq	-16(%rbp), %rax
	movq	%rdi, -24(%rbp)         ## 8-byte Spill
	movq	%rax, %rdi
	movq	%rsi, -32(%rbp)         ## 8-byte Spill
	callq	__ZNSt3__111char_traitsIcE6lengthEPKc
	movq	-24(%rbp), %rdi         ## 8-byte Reload
	movq	-32(%rbp), %rsi         ## 8-byte Reload
	movq	%rax, %rdx
	callq	__ZNSt3__124__put_character_sequenceIcNS_11char_traitsIcEEEERNS_13basic_ostreamIT_T0_EES7_PKS4_m
	addq	$32, %rsp
	popq	%rbp
	retq
	.cfi_endproc

	.private_extern	__ZNSt3__14endlIcNS_11char_traitsIcEEEERNS_13basic_ostreamIT_T0_EES7_
	.globl	__ZNSt3__14endlIcNS_11char_traitsIcEEEERNS_13basic_ostreamIT_T0_EES7_
	.weak_definition	__ZNSt3__14endlIcNS_11char_traitsIcEEEERNS_13basic_ostreamIT_T0_EES7_
	.align	4, 0x90
__ZNSt3__14endlIcNS_11char_traitsIcEEEERNS_13basic_ostreamIT_T0_EES7_: ## @_ZNSt3__14endlIcNS_11char_traitsIcEEEERNS_13basic_ostreamIT_T0_EES7_
Lfunc_begin3:
	.cfi_startproc
	.cfi_personality 155, ___gxx_personality_v0
	.cfi_lsda 16, Lexception3
## BB#0:
	pushq	%rbp
Ltmp53:
	.cfi_def_cfa_offset 16
Ltmp54:
	.cfi_offset %rbp, -16
	movq	%rsp, %rbp
Ltmp55:
	.cfi_def_cfa_register %rbp
	subq	$144, %rsp
	movq	%rdi, -72(%rbp)
	movq	%rdi, %rax
	movq	(%rdi), %rcx
	movq	-24(%rcx), %rcx
	addq	%rcx, %rdi
	movq	%rdi, -32(%rbp)
	movb	$10, -33(%rbp)
	movq	-32(%rbp), %rsi
	leaq	-48(%rbp), %rcx
	movq	%rcx, %rdi
	movq	%rax, -80(%rbp)         ## 8-byte Spill
	movq	%rcx, -88(%rbp)         ## 8-byte Spill
	callq	__ZNKSt3__18ios_base6getlocEv
	movq	-88(%rbp), %rax         ## 8-byte Reload
	movq	%rax, -24(%rbp)
Ltmp48:
	movq	__ZNSt3__15ctypeIcE2idE@GOTPCREL(%rip), %rsi
	movq	%rax, %rdi
	callq	__ZNKSt3__16locale9use_facetERNS0_2idE
Ltmp49:
	movq	%rax, -96(%rbp)         ## 8-byte Spill
	jmp	LBB3_1
LBB3_1:                                 ## %_ZNSt3__19use_facetINS_5ctypeIcEEEERKT_RKNS_6localeE.exit.i
	movb	-33(%rbp), %al
	movq	-96(%rbp), %rcx         ## 8-byte Reload
	movq	%rcx, -8(%rbp)
	movb	%al, -9(%rbp)
	movq	-8(%rbp), %rdx
	movq	(%rdx), %rsi
	movq	56(%rsi), %rsi
	movsbl	-9(%rbp), %edi
Ltmp50:
	movl	%edi, -100(%rbp)        ## 4-byte Spill
	movq	%rdx, %rdi
	movl	-100(%rbp), %r8d        ## 4-byte Reload
	movq	%rsi, -112(%rbp)        ## 8-byte Spill
	movl	%r8d, %esi
	movq	-112(%rbp), %rdx        ## 8-byte Reload
	callq	*%rdx
Ltmp51:
	movb	%al, -113(%rbp)         ## 1-byte Spill
	jmp	LBB3_3
LBB3_2:
Ltmp52:
	leaq	-48(%rbp), %rdi
	movl	%edx, %ecx
	movq	%rax, -56(%rbp)
	movl	%ecx, -60(%rbp)
	callq	__ZNSt3__16localeD1Ev
	movq	-56(%rbp), %rdi
	callq	__Unwind_Resume
LBB3_3:                                 ## %_ZNKSt3__19basic_iosIcNS_11char_traitsIcEEE5widenEc.exit
	leaq	-48(%rbp), %rdi
	callq	__ZNSt3__16localeD1Ev
	movq	-80(%rbp), %rdi         ## 8-byte Reload
	movb	-113(%rbp), %al         ## 1-byte Reload
	movsbl	%al, %esi
	callq	__ZNSt3__113basic_ostreamIcNS_11char_traitsIcEEE3putEc
	movq	-72(%rbp), %rdi
	movq	%rax, -128(%rbp)        ## 8-byte Spill
	callq	__ZNSt3__113basic_ostreamIcNS_11char_traitsIcEEE5flushEv
	movq	-72(%rbp), %rdi
	movq	%rax, -136(%rbp)        ## 8-byte Spill
	movq	%rdi, %rax
	addq	$144, %rsp
	popq	%rbp
	retq
Lfunc_end3:
	.cfi_endproc
	.section	__TEXT,__gcc_except_tab
	.align	2
GCC_except_table3:
Lexception3:
	.byte	255                     ## @LPStart Encoding = omit
	.byte	155                     ## @TType Encoding = indirect pcrel sdata4
	.byte	41                      ## @TType base offset
	.byte	3                       ## Call site Encoding = udata4
	.byte	39                      ## Call site table length
Lset5 = Lfunc_begin3-Lfunc_begin3       ## >> Call Site 1 <<
	.long	Lset5
Lset6 = Ltmp48-Lfunc_begin3             ##   Call between Lfunc_begin3 and Ltmp48
	.long	Lset6
	.long	0                       ##     has no landing pad
	.byte	0                       ##   On action: cleanup
Lset7 = Ltmp48-Lfunc_begin3             ## >> Call Site 2 <<
	.long	Lset7
Lset8 = Ltmp51-Ltmp48                   ##   Call between Ltmp48 and Ltmp51
	.long	Lset8
Lset9 = Ltmp52-Lfunc_begin3             ##     jumps to Ltmp52
	.long	Lset9
	.byte	0                       ##   On action: cleanup
Lset10 = Ltmp51-Lfunc_begin3            ## >> Call Site 3 <<
	.long	Lset10
Lset11 = Lfunc_end3-Ltmp51              ##   Call between Ltmp51 and Lfunc_end3
	.long	Lset11
	.long	0                       ##     has no landing pad
	.byte	0                       ##   On action: cleanup
	.align	2

	.section	__TEXT,__textcoal_nt,coalesced,pure_instructions
	.globl	__ZNSt3__113unordered_setIiNS_4hashIiEENS_8equal_toIiEENS_9allocatorIiEEED1Ev
	.weak_def_can_be_hidden	__ZNSt3__113unordered_setIiNS_4hashIiEENS_8equal_toIiEENS_9allocatorIiEEED1Ev
	.align	4, 0x90
__ZNSt3__113unordered_setIiNS_4hashIiEENS_8equal_toIiEENS_9allocatorIiEEED1Ev: ## @_ZNSt3__113unordered_setIiNS_4hashIiEENS_8equal_toIiEENS_9allocatorIiEEED1Ev
	.cfi_startproc
## BB#0:
	pushq	%rbp
Ltmp56:
	.cfi_def_cfa_offset 16
Ltmp57:
	.cfi_offset %rbp, -16
	movq	%rsp, %rbp
Ltmp58:
	.cfi_def_cfa_register %rbp
	subq	$16, %rsp
	movq	%rdi, -8(%rbp)
	movq	-8(%rbp), %rdi
	callq	__ZNSt3__113unordered_setIiNS_4hashIiEENS_8equal_toIiEENS_9allocatorIiEEED2Ev
	addq	$16, %rsp
	popq	%rbp
	retq
	.cfi_endproc

	.globl	__ZNSt3__113unordered_setIiNS_4hashIiEENS_8equal_toIiEENS_9allocatorIiEEED2Ev
	.weak_def_can_be_hidden	__ZNSt3__113unordered_setIiNS_4hashIiEENS_8equal_toIiEENS_9allocatorIiEEED2Ev
	.align	4, 0x90
__ZNSt3__113unordered_setIiNS_4hashIiEENS_8equal_toIiEENS_9allocatorIiEEED2Ev: ## @_ZNSt3__113unordered_setIiNS_4hashIiEENS_8equal_toIiEENS_9allocatorIiEEED2Ev
	.cfi_startproc
## BB#0:
	pushq	%rbp
Ltmp59:
	.cfi_def_cfa_offset 16
Ltmp60:
	.cfi_offset %rbp, -16
	movq	%rsp, %rbp
Ltmp61:
	.cfi_def_cfa_register %rbp
	subq	$16, %rsp
	movq	%rdi, -8(%rbp)
	movq	-8(%rbp), %rdi
	callq	__ZNSt3__112__hash_tableIiNS_4hashIiEENS_8equal_toIiEENS_9allocatorIiEEED1Ev
	addq	$16, %rsp
	popq	%rbp
	retq
	.cfi_endproc

	.globl	__ZNSt3__112__hash_tableIiNS_4hashIiEENS_8equal_toIiEENS_9allocatorIiEEED1Ev
	.weak_def_can_be_hidden	__ZNSt3__112__hash_tableIiNS_4hashIiEENS_8equal_toIiEENS_9allocatorIiEEED1Ev
	.align	4, 0x90
__ZNSt3__112__hash_tableIiNS_4hashIiEENS_8equal_toIiEENS_9allocatorIiEEED1Ev: ## @_ZNSt3__112__hash_tableIiNS_4hashIiEENS_8equal_toIiEENS_9allocatorIiEEED1Ev
	.cfi_startproc
## BB#0:
	pushq	%rbp
Ltmp62:
	.cfi_def_cfa_offset 16
Ltmp63:
	.cfi_offset %rbp, -16
	movq	%rsp, %rbp
Ltmp64:
	.cfi_def_cfa_register %rbp
	subq	$16, %rsp
	movq	%rdi, -8(%rbp)
	movq	-8(%rbp), %rdi
	callq	__ZNSt3__112__hash_tableIiNS_4hashIiEENS_8equal_toIiEENS_9allocatorIiEEED2Ev
	addq	$16, %rsp
	popq	%rbp
	retq
	.cfi_endproc

	.globl	__ZNSt3__112__hash_tableIiNS_4hashIiEENS_8equal_toIiEENS_9allocatorIiEEED2Ev
	.weak_def_can_be_hidden	__ZNSt3__112__hash_tableIiNS_4hashIiEENS_8equal_toIiEENS_9allocatorIiEEED2Ev
	.align	4, 0x90
__ZNSt3__112__hash_tableIiNS_4hashIiEENS_8equal_toIiEENS_9allocatorIiEEED2Ev: ## @_ZNSt3__112__hash_tableIiNS_4hashIiEENS_8equal_toIiEENS_9allocatorIiEEED2Ev
	.cfi_startproc
## BB#0:
	pushq	%rbp
Ltmp65:
	.cfi_def_cfa_offset 16
Ltmp66:
	.cfi_offset %rbp, -16
	movq	%rsp, %rbp
Ltmp67:
	.cfi_def_cfa_register %rbp
	subq	$240, %rsp
	movq	%rdi, -224(%rbp)
	movq	-224(%rbp), %rdi
	movq	%rdi, %rax
	addq	$16, %rax
	movq	%rax, -216(%rbp)
	movq	-216(%rbp), %rax
	movq	%rax, -208(%rbp)
	movq	-208(%rbp), %rax
	movq	(%rax), %rsi
	movq	%rdi, -232(%rbp)        ## 8-byte Spill
	callq	__ZNSt3__112__hash_tableIiNS_4hashIiEENS_8equal_toIiEENS_9allocatorIiEEE12__deallocateEPNS_11__hash_nodeIiPvEE
	movq	-232(%rbp), %rax        ## 8-byte Reload
	movq	%rax, -200(%rbp)
	movq	-200(%rbp), %rsi
	movq	%rsi, -192(%rbp)
	movq	-192(%rbp), %rsi
	movq	%rsi, -176(%rbp)
	movq	-176(%rbp), %rsi
	movq	%rsi, -168(%rbp)
	movq	-168(%rbp), %rdi
	movq	%rdi, -160(%rbp)
	movq	-160(%rbp), %rdi
	movq	(%rdi), %rdi
	movq	%rdi, -184(%rbp)
	movq	%rsi, -32(%rbp)
	movq	-32(%rbp), %rdi
	movq	%rdi, -24(%rbp)
	movq	-24(%rbp), %rdi
	movq	$0, (%rdi)
	cmpq	$0, -184(%rbp)
	movq	%rsi, -240(%rbp)        ## 8-byte Spill
	je	LBB7_2
## BB#1:
	movq	-240(%rbp), %rax        ## 8-byte Reload
	movq	%rax, -16(%rbp)
	movq	-16(%rbp), %rcx
	movq	%rcx, -8(%rbp)
	movq	-8(%rbp), %rcx
	addq	$8, %rcx
	movq	-184(%rbp), %rdx
	movq	%rcx, -144(%rbp)
	movq	%rdx, -152(%rbp)
	movq	-144(%rbp), %rcx
	movq	%rcx, -136(%rbp)
	movq	-136(%rbp), %rdx
	movq	%rdx, -128(%rbp)
	movq	-128(%rbp), %rdx
	movq	%rdx, -120(%rbp)
	movq	-120(%rbp), %rdx
	movq	-152(%rbp), %rsi
	movq	%rcx, -56(%rbp)
	movq	-56(%rbp), %rcx
	movq	%rcx, -48(%rbp)
	movq	-48(%rbp), %rcx
	movq	%rcx, -40(%rbp)
	movq	-40(%rbp), %rcx
	movq	(%rcx), %rcx
	movq	%rdx, -96(%rbp)
	movq	%rsi, -104(%rbp)
	movq	%rcx, -112(%rbp)
	movq	-96(%rbp), %rcx
	movq	-104(%rbp), %rdx
	movq	-112(%rbp), %rsi
	movq	%rcx, -72(%rbp)
	movq	%rdx, -80(%rbp)
	movq	%rsi, -88(%rbp)
	movq	-80(%rbp), %rcx
	movq	%rcx, -64(%rbp)
	movq	-64(%rbp), %rdi
	callq	__ZdlPv
LBB7_2:                                 ## %_ZNSt3__110unique_ptrIA_PNS_11__hash_nodeIiPvEENS_25__bucket_list_deallocatorINS_9allocatorIS4_EEEEED1Ev.exit
	addq	$240, %rsp
	popq	%rbp
	retq
	.cfi_endproc

	.globl	__ZNSt3__112__hash_tableIiNS_4hashIiEENS_8equal_toIiEENS_9allocatorIiEEE12__deallocateEPNS_11__hash_nodeIiPvEE
	.weak_def_can_be_hidden	__ZNSt3__112__hash_tableIiNS_4hashIiEENS_8equal_toIiEENS_9allocatorIiEEE12__deallocateEPNS_11__hash_nodeIiPvEE
	.align	4, 0x90
__ZNSt3__112__hash_tableIiNS_4hashIiEENS_8equal_toIiEENS_9allocatorIiEEE12__deallocateEPNS_11__hash_nodeIiPvEE: ## @_ZNSt3__112__hash_tableIiNS_4hashIiEENS_8equal_toIiEENS_9allocatorIiEEE12__deallocateEPNS_11__hash_nodeIiPvEE
	.cfi_startproc
## BB#0:
	pushq	%rbp
Ltmp68:
	.cfi_def_cfa_offset 16
Ltmp69:
	.cfi_offset %rbp, -16
	movq	%rsp, %rbp
Ltmp70:
	.cfi_def_cfa_register %rbp
	subq	$176, %rsp
	movq	%rdi, -144(%rbp)
	movq	%rsi, -152(%rbp)
	movq	-144(%rbp), %rsi
	movq	%rsi, -136(%rbp)
	movq	-136(%rbp), %rsi
	addq	$16, %rsi
	movq	%rsi, -128(%rbp)
	movq	-128(%rbp), %rsi
	movq	%rsi, -120(%rbp)
	movq	-120(%rbp), %rsi
	movq	%rsi, -160(%rbp)
LBB8_1:                                 ## =>This Inner Loop Header: Depth=1
	cmpq	$0, -152(%rbp)
	je	LBB8_4
## BB#2:                                ##   in Loop: Header=BB8_1 Depth=1
	movq	-152(%rbp), %rax
	movq	(%rax), %rax
	movq	%rax, -168(%rbp)
	movq	-160(%rbp), %rax
	movq	-152(%rbp), %rcx
	addq	$16, %rcx
	movq	%rcx, -112(%rbp)
	movq	-112(%rbp), %rcx
	movq	%rax, -24(%rbp)
	movq	%rcx, -32(%rbp)
	movq	-24(%rbp), %rax
	movq	-32(%rbp), %rcx
	movq	%rax, -8(%rbp)
	movq	%rcx, -16(%rbp)
## BB#3:                                ##   in Loop: Header=BB8_1 Depth=1
	movq	-160(%rbp), %rax
	movq	-152(%rbp), %rcx
	movq	%rax, -88(%rbp)
	movq	%rcx, -96(%rbp)
	movq	$1, -104(%rbp)
	movq	-88(%rbp), %rax
	movq	-96(%rbp), %rcx
	movq	-104(%rbp), %rdx
	movq	%rax, -64(%rbp)
	movq	%rcx, -72(%rbp)
	movq	%rdx, -80(%rbp)
	movq	-72(%rbp), %rax
	movq	%rax, -56(%rbp)
	movq	-56(%rbp), %rdi
	callq	__ZdlPv
	movq	-168(%rbp), %rax
	movq	%rax, -152(%rbp)
	jmp	LBB8_1
LBB8_4:
	addq	$176, %rsp
	popq	%rbp
	retq
	.cfi_endproc

	.private_extern	___clang_call_terminate
	.globl	___clang_call_terminate
	.weak_def_can_be_hidden	___clang_call_terminate
	.align	4, 0x90
___clang_call_terminate:                ## @__clang_call_terminate
## BB#0:
	pushq	%rbp
	movq	%rsp, %rbp
	subq	$16, %rsp
	callq	___cxa_begin_catch
	movq	%rax, -8(%rbp)          ## 8-byte Spill
	callq	__ZSt9terminatev

	.globl	__ZNSt3__112__hash_tableIiNS_4hashIiEENS_8equal_toIiEENS_9allocatorIiEEE15__insert_uniqueIiEENS_4pairINS_15__hash_iteratorIPNS_11__hash_nodeIiPvEEEEbEEOT_
	.weak_def_can_be_hidden	__ZNSt3__112__hash_tableIiNS_4hashIiEENS_8equal_toIiEENS_9allocatorIiEEE15__insert_uniqueIiEENS_4pairINS_15__hash_iteratorIPNS_11__hash_nodeIiPvEEEEbEEOT_
	.align	4, 0x90
__ZNSt3__112__hash_tableIiNS_4hashIiEENS_8equal_toIiEENS_9allocatorIiEEE15__insert_uniqueIiEENS_4pairINS_15__hash_iteratorIPNS_11__hash_nodeIiPvEEEEbEEOT_: ## @_ZNSt3__112__hash_tableIiNS_4hashIiEENS_8equal_toIiEENS_9allocatorIiEEE15__insert_uniqueIiEENS_4pairINS_15__hash_iteratorIPNS_11__hash_nodeIiPvEEEEbEEOT_
Lfunc_begin10:
	.cfi_startproc
	.cfi_personality 155, ___gxx_personality_v0
	.cfi_lsda 16, Lexception10
## BB#0:
	pushq	%rbp
Ltmp74:
	.cfi_def_cfa_offset 16
Ltmp75:
	.cfi_offset %rbp, -16
	movq	%rsp, %rbp
Ltmp76:
	.cfi_def_cfa_register %rbp
	subq	$656, %rsp              ## imm = 0x290
	movq	%rdi, -536(%rbp)
	movq	%rsi, -544(%rbp)
	movq	-536(%rbp), %rdi
	movq	%rsi, -512(%rbp)
	leaq	-568(%rbp), %rax
	movq	%rdi, -592(%rbp)        ## 8-byte Spill
	movq	%rax, %rdi
	movq	-592(%rbp), %rcx        ## 8-byte Reload
	movq	%rsi, -600(%rbp)        ## 8-byte Spill
	movq	%rcx, %rsi
	movq	-600(%rbp), %rdx        ## 8-byte Reload
	movq	%rax, -608(%rbp)        ## 8-byte Spill
	callq	__ZNSt3__112__hash_tableIiNS_4hashIiEENS_8equal_toIiEENS_9allocatorIiEEE16__construct_nodeIJiEEENS_10unique_ptrINS_11__hash_nodeIiPvEENS_22__hash_node_destructorINS5_ISC_EEEEEEDpOT_
	movq	-608(%rbp), %rax        ## 8-byte Reload
	movq	%rax, -288(%rbp)
	movq	%rax, -280(%rbp)
	movq	%rax, -272(%rbp)
	movq	-568(%rbp), %rsi
Ltmp71:
	movq	-592(%rbp), %rdi        ## 8-byte Reload
	callq	__ZNSt3__112__hash_tableIiNS_4hashIiEENS_8equal_toIiEENS_9allocatorIiEEE20__node_insert_uniqueEPNS_11__hash_nodeIiPvEE
Ltmp72:
	movb	%dl, -609(%rbp)         ## 1-byte Spill
	movq	%rax, -624(%rbp)        ## 8-byte Spill
	jmp	LBB10_1
LBB10_1:
	movq	-624(%rbp), %rax        ## 8-byte Reload
	movq	%rax, -528(%rbp)
	movb	-609(%rbp), %cl         ## 1-byte Reload
	movb	%cl, -520(%rbp)
	testb	$1, -520(%rbp)
	je	LBB10_10
## BB#2:
	leaq	-568(%rbp), %rax
	movq	%rax, -40(%rbp)
	movq	-40(%rbp), %rax
	movq	%rax, -32(%rbp)
	movq	-32(%rbp), %rcx
	movq	%rcx, -24(%rbp)
	movq	-24(%rbp), %rcx
	movq	(%rcx), %rcx
	movq	%rcx, -48(%rbp)
	movq	%rax, -16(%rbp)
	movq	-16(%rbp), %rax
	movq	%rax, -8(%rbp)
	movq	-8(%rbp), %rax
	movq	$0, (%rax)
	jmp	LBB10_10
LBB10_3:
Ltmp73:
	leaq	-568(%rbp), %rcx
	movl	%edx, %esi
	movq	%rax, -576(%rbp)
	movl	%esi, -580(%rbp)
	movq	%rcx, -264(%rbp)
	movq	-264(%rbp), %rax
	movq	%rax, -256(%rbp)
	movq	-256(%rbp), %rax
	movq	%rax, -232(%rbp)
	movq	$0, -240(%rbp)
	movq	-232(%rbp), %rax
	movq	%rax, -224(%rbp)
	movq	-224(%rbp), %rcx
	movq	%rcx, -216(%rbp)
	movq	-216(%rbp), %rcx
	movq	(%rcx), %rcx
	movq	%rcx, -248(%rbp)
	movq	-240(%rbp), %rcx
	movq	%rax, -80(%rbp)
	movq	-80(%rbp), %rdx
	movq	%rdx, -72(%rbp)
	movq	-72(%rbp), %rdx
	movq	%rcx, (%rdx)
	cmpq	$0, -248(%rbp)
	movq	%rax, -632(%rbp)        ## 8-byte Spill
	je	LBB10_9
## BB#4:
	movq	-632(%rbp), %rax        ## 8-byte Reload
	movq	%rax, -64(%rbp)
	movq	-64(%rbp), %rcx
	movq	%rcx, -56(%rbp)
	movq	-56(%rbp), %rcx
	addq	$8, %rcx
	movq	-248(%rbp), %rdx
	movq	%rcx, -200(%rbp)
	movq	%rdx, -208(%rbp)
	movq	-200(%rbp), %rcx
	testb	$1, 8(%rcx)
	movq	%rcx, -640(%rbp)        ## 8-byte Spill
	je	LBB10_6
## BB#5:
	movq	-640(%rbp), %rax        ## 8-byte Reload
	movq	(%rax), %rcx
	movq	-208(%rbp), %rdx
	addq	$16, %rdx
	movq	%rdx, -192(%rbp)
	movq	-192(%rbp), %rdx
	movq	%rcx, -160(%rbp)
	movq	%rdx, -168(%rbp)
	movq	-160(%rbp), %rcx
	movq	-168(%rbp), %rdx
	movq	%rcx, -144(%rbp)
	movq	%rdx, -152(%rbp)
LBB10_6:
	cmpq	$0, -208(%rbp)
	je	LBB10_8
## BB#7:
	movq	-640(%rbp), %rax        ## 8-byte Reload
	movq	(%rax), %rcx
	movq	-208(%rbp), %rdx
	movq	%rcx, -120(%rbp)
	movq	%rdx, -128(%rbp)
	movq	$1, -136(%rbp)
	movq	-120(%rbp), %rcx
	movq	-128(%rbp), %rdx
	movq	-136(%rbp), %rsi
	movq	%rcx, -96(%rbp)
	movq	%rdx, -104(%rbp)
	movq	%rsi, -112(%rbp)
	movq	-104(%rbp), %rcx
	movq	%rcx, -88(%rbp)
	movq	-88(%rbp), %rdi
	callq	__ZdlPv
LBB10_8:                                ## %_ZNSt3__122__hash_node_destructorINS_9allocatorINS_11__hash_nodeIiPvEEEEEclEPS4_.exit.i.i.i2
	jmp	LBB10_9
LBB10_9:                                ## %_ZNSt3__110unique_ptrINS_11__hash_nodeIiPvEENS_22__hash_node_destructorINS_9allocatorIS3_EEEEED1Ev.exit3
	jmp	LBB10_17
LBB10_10:
	leaq	-568(%rbp), %rax
	movl	$1, -584(%rbp)
	movq	%rax, -504(%rbp)
	movq	-504(%rbp), %rax
	movq	%rax, -496(%rbp)
	movq	-496(%rbp), %rax
	movq	%rax, -472(%rbp)
	movq	$0, -480(%rbp)
	movq	-472(%rbp), %rax
	movq	%rax, -464(%rbp)
	movq	-464(%rbp), %rcx
	movq	%rcx, -456(%rbp)
	movq	-456(%rbp), %rcx
	movq	(%rcx), %rcx
	movq	%rcx, -488(%rbp)
	movq	-480(%rbp), %rcx
	movq	%rax, -320(%rbp)
	movq	-320(%rbp), %rdx
	movq	%rdx, -312(%rbp)
	movq	-312(%rbp), %rdx
	movq	%rcx, (%rdx)
	cmpq	$0, -488(%rbp)
	movq	%rax, -648(%rbp)        ## 8-byte Spill
	je	LBB10_16
## BB#11:
	movq	-648(%rbp), %rax        ## 8-byte Reload
	movq	%rax, -304(%rbp)
	movq	-304(%rbp), %rcx
	movq	%rcx, -296(%rbp)
	movq	-296(%rbp), %rcx
	addq	$8, %rcx
	movq	-488(%rbp), %rdx
	movq	%rcx, -440(%rbp)
	movq	%rdx, -448(%rbp)
	movq	-440(%rbp), %rcx
	testb	$1, 8(%rcx)
	movq	%rcx, -656(%rbp)        ## 8-byte Spill
	je	LBB10_13
## BB#12:
	movq	-656(%rbp), %rax        ## 8-byte Reload
	movq	(%rax), %rcx
	movq	-448(%rbp), %rdx
	addq	$16, %rdx
	movq	%rdx, -432(%rbp)
	movq	-432(%rbp), %rdx
	movq	%rcx, -400(%rbp)
	movq	%rdx, -408(%rbp)
	movq	-400(%rbp), %rcx
	movq	-408(%rbp), %rdx
	movq	%rcx, -384(%rbp)
	movq	%rdx, -392(%rbp)
LBB10_13:
	cmpq	$0, -448(%rbp)
	je	LBB10_15
## BB#14:
	movq	-656(%rbp), %rax        ## 8-byte Reload
	movq	(%rax), %rcx
	movq	-448(%rbp), %rdx
	movq	%rcx, -360(%rbp)
	movq	%rdx, -368(%rbp)
	movq	$1, -376(%rbp)
	movq	-360(%rbp), %rcx
	movq	-368(%rbp), %rdx
	movq	-376(%rbp), %rsi
	movq	%rcx, -336(%rbp)
	movq	%rdx, -344(%rbp)
	movq	%rsi, -352(%rbp)
	movq	-344(%rbp), %rcx
	movq	%rcx, -328(%rbp)
	movq	-328(%rbp), %rdi
	callq	__ZdlPv
LBB10_15:                               ## %_ZNSt3__122__hash_node_destructorINS_9allocatorINS_11__hash_nodeIiPvEEEEEclEPS4_.exit.i.i.i
	jmp	LBB10_16
LBB10_16:                               ## %_ZNSt3__110unique_ptrINS_11__hash_nodeIiPvEENS_22__hash_node_destructorINS_9allocatorIS3_EEEEED1Ev.exit
	movq	-528(%rbp), %rax
	movb	-520(%rbp), %dl
	addq	$656, %rsp              ## imm = 0x290
	popq	%rbp
	retq
LBB10_17:
	movq	-576(%rbp), %rdi
	callq	__Unwind_Resume
Lfunc_end10:
	.cfi_endproc
	.section	__TEXT,__gcc_except_tab
	.align	2
GCC_except_table10:
Lexception10:
	.byte	255                     ## @LPStart Encoding = omit
	.byte	155                     ## @TType Encoding = indirect pcrel sdata4
	.byte	41                      ## @TType base offset
	.byte	3                       ## Call site Encoding = udata4
	.byte	39                      ## Call site table length
Lset12 = Lfunc_begin10-Lfunc_begin10    ## >> Call Site 1 <<
	.long	Lset12
Lset13 = Ltmp71-Lfunc_begin10           ##   Call between Lfunc_begin10 and Ltmp71
	.long	Lset13
	.long	0                       ##     has no landing pad
	.byte	0                       ##   On action: cleanup
Lset14 = Ltmp71-Lfunc_begin10           ## >> Call Site 2 <<
	.long	Lset14
Lset15 = Ltmp72-Ltmp71                  ##   Call between Ltmp71 and Ltmp72
	.long	Lset15
Lset16 = Ltmp73-Lfunc_begin10           ##     jumps to Ltmp73
	.long	Lset16
	.byte	0                       ##   On action: cleanup
Lset17 = Ltmp72-Lfunc_begin10           ## >> Call Site 3 <<
	.long	Lset17
Lset18 = Lfunc_end10-Ltmp72             ##   Call between Ltmp72 and Lfunc_end10
	.long	Lset18
	.long	0                       ##     has no landing pad
	.byte	0                       ##   On action: cleanup
	.align	2

	.section	__TEXT,__textcoal_nt,coalesced,pure_instructions
	.globl	__ZNSt3__112__hash_tableIiNS_4hashIiEENS_8equal_toIiEENS_9allocatorIiEEE16__construct_nodeIJiEEENS_10unique_ptrINS_11__hash_nodeIiPvEENS_22__hash_node_destructorINS5_ISC_EEEEEEDpOT_
	.weak_def_can_be_hidden	__ZNSt3__112__hash_tableIiNS_4hashIiEENS_8equal_toIiEENS_9allocatorIiEEE16__construct_nodeIJiEEENS_10unique_ptrINS_11__hash_nodeIiPvEENS_22__hash_node_destructorINS5_ISC_EEEEEEDpOT_
	.align	4, 0x90
__ZNSt3__112__hash_tableIiNS_4hashIiEENS_8equal_toIiEENS_9allocatorIiEEE16__construct_nodeIJiEEENS_10unique_ptrINS_11__hash_nodeIiPvEENS_22__hash_node_destructorINS5_ISC_EEEEEEDpOT_: ## @_ZNSt3__112__hash_tableIiNS_4hashIiEENS_8equal_toIiEENS_9allocatorIiEEE16__construct_nodeIJiEEENS_10unique_ptrINS_11__hash_nodeIiPvEENS_22__hash_node_destructorINS5_ISC_EEEEEEDpOT_
	.cfi_startproc
## BB#0:
	pushq	%rbp
Ltmp77:
	.cfi_def_cfa_offset 16
Ltmp78:
	.cfi_offset %rbp, -16
	movq	%rsp, %rbp
Ltmp79:
	.cfi_def_cfa_register %rbp
	pushq	%r14
	pushq	%rbx
	subq	$1168, %rsp             ## imm = 0x490
Ltmp80:
	.cfi_offset %rbx, -32
Ltmp81:
	.cfi_offset %r14, -24
	movq	%rdi, %rax
	movq	%rsi, -1088(%rbp)
	movq	%rdx, -1096(%rbp)
	movq	-1088(%rbp), %rdx
	movq	%rdx, -1080(%rbp)
	movq	-1080(%rbp), %rsi
	addq	$16, %rsi
	movq	%rsi, -1072(%rbp)
	movq	-1072(%rbp), %rsi
	movq	%rsi, -1064(%rbp)
	movq	-1064(%rbp), %rsi
	movq	%rsi, -1104(%rbp)
	movb	$0, -1105(%rbp)
	movq	-1104(%rbp), %rsi
	movq	%rsi, -832(%rbp)
	movq	$1, -840(%rbp)
	movq	-832(%rbp), %rsi
	movq	-840(%rbp), %rcx
	movq	%rsi, -808(%rbp)
	movq	%rcx, -816(%rbp)
	movq	$0, -824(%rbp)
	imulq	$24, -816(%rbp), %rcx
	movq	%rcx, -800(%rbp)
	movq	-800(%rbp), %rcx
	movq	%rdi, -1152(%rbp)       ## 8-byte Spill
	movq	%rcx, %rdi
	movq	%rax, -1160(%rbp)       ## 8-byte Spill
	movq	%rdx, -1168(%rbp)       ## 8-byte Spill
	callq	__Znwm
	leaq	-352(%rbp), %rcx
	leaq	-368(%rbp), %rdx
	leaq	-392(%rbp), %rsi
	leaq	-408(%rbp), %rdi
	leaq	-1128(%rbp), %r8
	movq	-1104(%rbp), %r9
	movq	%r8, -776(%rbp)
	movq	%r9, -784(%rbp)
	movb	$0, -785(%rbp)
	movq	-776(%rbp), %r9
	movb	-785(%rbp), %r10b
	movq	-784(%rbp), %r11
	movq	%r9, -752(%rbp)
	movq	%r11, -760(%rbp)
	andb	$1, %r10b
	movb	%r10b, -761(%rbp)
	movq	-752(%rbp), %r9
	movq	-760(%rbp), %r11
	movq	%r11, (%r9)
	movb	-761(%rbp), %r10b
	andb	$1, %r10b
	movb	%r10b, 8(%r9)
	movq	-1152(%rbp), %r9        ## 8-byte Reload
	movq	%r9, -512(%rbp)
	movq	%rax, -520(%rbp)
	movq	%r8, -528(%rbp)
	movq	-512(%rbp), %rax
	movq	-520(%rbp), %r8
	movq	-528(%rbp), %r11
	movq	%rax, -472(%rbp)
	movq	%r8, -480(%rbp)
	movq	%r11, -488(%rbp)
	movq	-472(%rbp), %rax
	movq	-480(%rbp), %r8
	movq	-488(%rbp), %r11
	movq	%r11, -464(%rbp)
	movq	-464(%rbp), %r11
	movq	(%r11), %rbx
	movq	%rbx, -504(%rbp)
	movq	8(%r11), %r11
	movq	%r11, -496(%rbp)
	movq	-504(%rbp), %r11
	movb	-496(%rbp), %r10b
	movq	%r11, -440(%rbp)
	movb	%r10b, -432(%rbp)
	movq	%rax, -448(%rbp)
	movq	%r8, -456(%rbp)
	movq	-448(%rbp), %rax
	movq	-456(%rbp), %r8
	movq	-440(%rbp), %r11
	movb	-432(%rbp), %r10b
	movq	%r11, -392(%rbp)
	movb	%r10b, -384(%rbp)
	movq	%rax, -400(%rbp)
	movq	%r8, -408(%rbp)
	movq	-400(%rbp), %rax
	movq	%rdi, -376(%rbp)
	movq	-376(%rbp), %rdi
	movq	(%rdi), %rdi
	movq	%rsi, -320(%rbp)
	movq	-320(%rbp), %rsi
	movq	(%rsi), %r8
	movq	%r8, -424(%rbp)
	movq	8(%rsi), %rsi
	movq	%rsi, -416(%rbp)
	movq	-424(%rbp), %rsi
	movb	-416(%rbp), %r10b
	movq	%rsi, -352(%rbp)
	movb	%r10b, -344(%rbp)
	movq	%rax, -360(%rbp)
	movq	%rdi, -368(%rbp)
	movq	-360(%rbp), %rax
	movq	%rdx, -336(%rbp)
	movq	-336(%rbp), %rdx
	movq	(%rdx), %rdx
	movq	%rdx, (%rax)
	movq	%rcx, -328(%rbp)
	movq	-328(%rbp), %rcx
	movq	(%rcx), %rdx
	movq	%rdx, 8(%rax)
	movq	8(%rcx), %rcx
	movq	%rcx, 16(%rax)
	movq	-1104(%rbp), %rax
	movq	%r9, -40(%rbp)
	movq	-40(%rbp), %rcx
	movq	%rcx, -32(%rbp)
	movq	-32(%rbp), %rcx
	movq	%rcx, -24(%rbp)
	movq	-24(%rbp), %rcx
	movq	(%rcx), %rcx
	addq	$16, %rcx
	movq	%rcx, -48(%rbp)
	movq	-48(%rbp), %rcx
	movq	-1096(%rbp), %rdx
	movq	%rdx, -56(%rbp)
	movq	-56(%rbp), %rdx
	movq	%rax, -144(%rbp)
	movq	%rcx, -152(%rbp)
	movq	%rdx, -160(%rbp)
	movq	-144(%rbp), %rax
	movq	-152(%rbp), %rcx
	movq	-160(%rbp), %rdx
	movq	%rdx, -136(%rbp)
	movq	-136(%rbp), %rdx
	movq	%rax, -112(%rbp)
	movq	%rcx, -120(%rbp)
	movq	%rdx, -128(%rbp)
	movq	-112(%rbp), %rax
	movq	-120(%rbp), %rcx
	movq	-128(%rbp), %rdx
	movq	%rdx, -96(%rbp)
	movq	-96(%rbp), %rdx
	movq	%rax, -72(%rbp)
	movq	%rcx, -80(%rbp)
	movq	%rdx, -88(%rbp)
	movq	-80(%rbp), %rax
	movq	-88(%rbp), %rcx
	movq	%rcx, -64(%rbp)
	movq	-64(%rbp), %rcx
	movl	(%rcx), %r14d
	movl	%r14d, (%rax)
## BB#1:
	movq	-1152(%rbp), %rax       ## 8-byte Reload
	movq	%rax, -200(%rbp)
	movq	-200(%rbp), %rcx
	movq	%rcx, -192(%rbp)
	movq	-192(%rbp), %rcx
	movq	%rcx, -184(%rbp)
	movq	-184(%rbp), %rcx
	movb	$1, 16(%rcx)
	movq	-1168(%rbp), %rcx       ## 8-byte Reload
	movq	%rcx, -224(%rbp)
	movq	-224(%rbp), %rdx
	addq	$24, %rdx
	movq	%rdx, -216(%rbp)
	movq	-216(%rbp), %rdx
	movq	%rdx, -208(%rbp)
	movq	-208(%rbp), %rdx
	movq	%rax, -248(%rbp)
	movq	-248(%rbp), %rsi
	movq	%rsi, -240(%rbp)
	movq	-240(%rbp), %rsi
	movq	%rsi, -232(%rbp)
	movq	-232(%rbp), %rsi
	movq	(%rsi), %rsi
	movl	16(%rsi), %edi
	movq	%rdx, -256(%rbp)
	movl	%edi, -260(%rbp)
	movslq	-260(%rbp), %rdx
	movq	%rax, -288(%rbp)
	movq	-288(%rbp), %rsi
	movq	%rsi, -280(%rbp)
	movq	-280(%rbp), %rsi
	movq	%rsi, -272(%rbp)
	movq	-272(%rbp), %rsi
	movq	(%rsi), %rsi
	movq	%rdx, 8(%rsi)
	movq	%rax, -312(%rbp)
	movq	-312(%rbp), %rdx
	movq	%rdx, -304(%rbp)
	movq	-304(%rbp), %rdx
	movq	%rdx, -296(%rbp)
	movq	-296(%rbp), %rdx
	movq	(%rdx), %rdx
	movq	$0, (%rdx)
	movb	$1, -1105(%rbp)
	movl	$1, -1144(%rbp)
	testb	$1, -1105(%rbp)
	jne	LBB11_9
## BB#2:
	movq	-1152(%rbp), %rax       ## 8-byte Reload
	movq	%rax, -1056(%rbp)
	movq	-1056(%rbp), %rcx
	movq	%rcx, -1048(%rbp)
	movq	-1048(%rbp), %rcx
	movq	%rcx, -1024(%rbp)
	movq	$0, -1032(%rbp)
	movq	-1024(%rbp), %rcx
	movq	%rcx, -1016(%rbp)
	movq	-1016(%rbp), %rdx
	movq	%rdx, -1008(%rbp)
	movq	-1008(%rbp), %rdx
	movq	(%rdx), %rdx
	movq	%rdx, -1040(%rbp)
	movq	-1032(%rbp), %rdx
	movq	%rcx, -872(%rbp)
	movq	-872(%rbp), %rsi
	movq	%rsi, -864(%rbp)
	movq	-864(%rbp), %rsi
	movq	%rdx, (%rsi)
	cmpq	$0, -1040(%rbp)
	movq	%rcx, -1176(%rbp)       ## 8-byte Spill
	je	LBB11_8
## BB#3:
	movq	-1176(%rbp), %rax       ## 8-byte Reload
	movq	%rax, -856(%rbp)
	movq	-856(%rbp), %rcx
	movq	%rcx, -848(%rbp)
	movq	-848(%rbp), %rcx
	addq	$8, %rcx
	movq	-1040(%rbp), %rdx
	movq	%rcx, -992(%rbp)
	movq	%rdx, -1000(%rbp)
	movq	-992(%rbp), %rcx
	testb	$1, 8(%rcx)
	movq	%rcx, -1184(%rbp)       ## 8-byte Spill
	je	LBB11_5
## BB#4:
	movq	-1184(%rbp), %rax       ## 8-byte Reload
	movq	(%rax), %rcx
	movq	-1000(%rbp), %rdx
	addq	$16, %rdx
	movq	%rdx, -984(%rbp)
	movq	-984(%rbp), %rdx
	movq	%rcx, -952(%rbp)
	movq	%rdx, -960(%rbp)
	movq	-952(%rbp), %rcx
	movq	-960(%rbp), %rdx
	movq	%rcx, -936(%rbp)
	movq	%rdx, -944(%rbp)
LBB11_5:
	cmpq	$0, -1000(%rbp)
	je	LBB11_7
## BB#6:
	movq	-1184(%rbp), %rax       ## 8-byte Reload
	movq	(%rax), %rcx
	movq	-1000(%rbp), %rdx
	movq	%rcx, -912(%rbp)
	movq	%rdx, -920(%rbp)
	movq	$1, -928(%rbp)
	movq	-912(%rbp), %rcx
	movq	-920(%rbp), %rdx
	movq	-928(%rbp), %rsi
	movq	%rcx, -888(%rbp)
	movq	%rdx, -896(%rbp)
	movq	%rsi, -904(%rbp)
	movq	-896(%rbp), %rcx
	movq	%rcx, -880(%rbp)
	movq	-880(%rbp), %rdi
	callq	__ZdlPv
LBB11_7:                                ## %_ZNSt3__122__hash_node_destructorINS_9allocatorINS_11__hash_nodeIiPvEEEEEclEPS4_.exit.i.i.i
	jmp	LBB11_8
LBB11_8:                                ## %_ZNSt3__110unique_ptrINS_11__hash_nodeIiPvEENS_22__hash_node_destructorINS_9allocatorIS3_EEEEED1Ev.exit
	jmp	LBB11_9
LBB11_9:
	movq	-1160(%rbp), %rax       ## 8-byte Reload
	addq	$1168, %rsp             ## imm = 0x490
	popq	%rbx
	popq	%r14
	popq	%rbp
	retq
	.cfi_endproc

	.section	__TEXT,__literal4,4byte_literals
	.align	2
LCPI12_0:
	.long	1593835520              ## float 9.22337203E+18
	.section	__TEXT,__textcoal_nt,coalesced,pure_instructions
	.globl	__ZNSt3__112__hash_tableIiNS_4hashIiEENS_8equal_toIiEENS_9allocatorIiEEE20__node_insert_uniqueEPNS_11__hash_nodeIiPvEE
	.weak_def_can_be_hidden	__ZNSt3__112__hash_tableIiNS_4hashIiEENS_8equal_toIiEENS_9allocatorIiEEE20__node_insert_uniqueEPNS_11__hash_nodeIiPvEE
	.align	4, 0x90
__ZNSt3__112__hash_tableIiNS_4hashIiEENS_8equal_toIiEENS_9allocatorIiEEE20__node_insert_uniqueEPNS_11__hash_nodeIiPvEE: ## @_ZNSt3__112__hash_tableIiNS_4hashIiEENS_8equal_toIiEENS_9allocatorIiEEE20__node_insert_uniqueEPNS_11__hash_nodeIiPvEE
	.cfi_startproc
## BB#0:
	pushq	%rbp
Ltmp82:
	.cfi_def_cfa_offset 16
Ltmp83:
	.cfi_offset %rbp, -16
	movq	%rsp, %rbp
Ltmp84:
	.cfi_def_cfa_register %rbp
	subq	$960, %rsp              ## imm = 0x3C0
	movq	%rdi, -752(%rbp)
	movq	%rsi, -760(%rbp)
	movq	-752(%rbp), %rsi
	movq	%rsi, -728(%rbp)
	movq	-728(%rbp), %rdi
	addq	$24, %rdi
	movq	%rdi, -720(%rbp)
	movq	-720(%rbp), %rdi
	movq	%rdi, -712(%rbp)
	movq	-712(%rbp), %rdi
	movq	-760(%rbp), %rax
	movl	16(%rax), %ecx
	movq	%rdi, -360(%rbp)
	movl	%ecx, -364(%rbp)
	movslq	-364(%rbp), %rax
	movq	-760(%rbp), %rdi
	movq	%rax, 8(%rdi)
	movq	%rsi, -272(%rbp)
	movq	-272(%rbp), %rax
	movq	%rax, -264(%rbp)
	movq	-264(%rbp), %rax
	movq	%rax, -256(%rbp)
	movq	-256(%rbp), %rax
	movq	%rax, -248(%rbp)
	movq	-248(%rbp), %rax
	addq	$8, %rax
	movq	%rax, -240(%rbp)
	movq	-240(%rbp), %rax
	movq	%rax, -232(%rbp)
	movq	-232(%rbp), %rax
	movq	%rax, -224(%rbp)
	movq	-224(%rbp), %rax
	movq	(%rax), %rax
	movq	%rax, -768(%rbp)
	movb	$0, -769(%rbp)
	cmpq	$0, -768(%rbp)
	movq	%rsi, -832(%rbp)        ## 8-byte Spill
	je	LBB12_18
## BB#1:
	movq	-760(%rbp), %rax
	movq	8(%rax), %rax
	movq	-768(%rbp), %rcx
	movq	%rax, -8(%rbp)
	movq	%rcx, -16(%rbp)
	movq	-16(%rbp), %rax
	movq	-16(%rbp), %rcx
	subq	$1, %rcx
	andq	%rcx, %rax
	cmpq	$0, %rax
	jne	LBB12_3
## BB#2:
	movq	-8(%rbp), %rax
	movq	-16(%rbp), %rcx
	subq	$1, %rcx
	andq	%rcx, %rax
	movq	%rax, -840(%rbp)        ## 8-byte Spill
	jmp	LBB12_4
LBB12_3:
	movq	-8(%rbp), %rax
	xorl	%ecx, %ecx
	movl	%ecx, %edx
	divq	-16(%rbp)
	movq	%rdx, -840(%rbp)        ## 8-byte Spill
LBB12_4:                                ## %_ZNSt3__116__constrain_hashEmm.exit3
	movq	-840(%rbp), %rax        ## 8-byte Reload
	movq	%rax, -792(%rbp)
	movq	-792(%rbp), %rax
	movq	-832(%rbp), %rcx        ## 8-byte Reload
	movq	%rcx, -40(%rbp)
	movq	%rax, -48(%rbp)
	movq	-40(%rbp), %rax
	movq	-48(%rbp), %rdx
	movq	%rax, -32(%rbp)
	movq	-32(%rbp), %rax
	movq	%rax, -24(%rbp)
	movq	-24(%rbp), %rax
	movq	(%rax), %rax
	movq	(%rax,%rdx,8), %rax
	movq	%rax, -784(%rbp)
	cmpq	$0, -784(%rbp)
	je	LBB12_17
## BB#5:
	movq	-784(%rbp), %rax
	movq	(%rax), %rax
	movq	%rax, -784(%rbp)
LBB12_6:                                ## =>This Inner Loop Header: Depth=1
	xorl	%eax, %eax
	movb	%al, %cl
	cmpq	$0, -784(%rbp)
	movb	%cl, -841(%rbp)         ## 1-byte Spill
	je	LBB12_11
## BB#7:                                ##   in Loop: Header=BB12_6 Depth=1
	movq	-784(%rbp), %rax
	movq	8(%rax), %rax
	movq	-768(%rbp), %rcx
	movq	%rax, -56(%rbp)
	movq	%rcx, -64(%rbp)
	movq	-64(%rbp), %rax
	movq	-64(%rbp), %rcx
	subq	$1, %rcx
	andq	%rcx, %rax
	cmpq	$0, %rax
	jne	LBB12_9
## BB#8:                                ##   in Loop: Header=BB12_6 Depth=1
	movq	-56(%rbp), %rax
	movq	-64(%rbp), %rcx
	subq	$1, %rcx
	andq	%rcx, %rax
	movq	%rax, -856(%rbp)        ## 8-byte Spill
	jmp	LBB12_10
LBB12_9:                                ##   in Loop: Header=BB12_6 Depth=1
	movq	-56(%rbp), %rax
	xorl	%ecx, %ecx
	movl	%ecx, %edx
	divq	-64(%rbp)
	movq	%rdx, -856(%rbp)        ## 8-byte Spill
LBB12_10:                               ## %_ZNSt3__116__constrain_hashEmm.exit2
                                        ##   in Loop: Header=BB12_6 Depth=1
	movq	-856(%rbp), %rax        ## 8-byte Reload
	cmpq	-792(%rbp), %rax
	sete	%cl
	movb	%cl, -841(%rbp)         ## 1-byte Spill
LBB12_11:                               ##   in Loop: Header=BB12_6 Depth=1
	movb	-841(%rbp), %al         ## 1-byte Reload
	testb	$1, %al
	jne	LBB12_12
	jmp	LBB12_16
LBB12_12:                               ##   in Loop: Header=BB12_6 Depth=1
	movq	-832(%rbp), %rax        ## 8-byte Reload
	movq	%rax, -88(%rbp)
	movq	-88(%rbp), %rcx
	addq	$32, %rcx
	movq	%rcx, -80(%rbp)
	movq	-80(%rbp), %rcx
	movq	%rcx, -72(%rbp)
	movq	-72(%rbp), %rcx
	movq	-784(%rbp), %rdx
	addq	$16, %rdx
	movq	-760(%rbp), %rsi
	addq	$16, %rsi
	movq	%rcx, -96(%rbp)
	movq	%rdx, -104(%rbp)
	movq	%rsi, -112(%rbp)
	movq	-104(%rbp), %rcx
	movl	(%rcx), %edi
	movq	-112(%rbp), %rcx
	cmpl	(%rcx), %edi
	jne	LBB12_14
## BB#13:
	jmp	LBB12_38
LBB12_14:                               ##   in Loop: Header=BB12_6 Depth=1
	jmp	LBB12_15
LBB12_15:                               ##   in Loop: Header=BB12_6 Depth=1
	movq	-784(%rbp), %rax
	movq	(%rax), %rax
	movq	%rax, -784(%rbp)
	jmp	LBB12_6
LBB12_16:
	jmp	LBB12_17
LBB12_17:
	jmp	LBB12_18
LBB12_18:
	movq	-832(%rbp), %rax        ## 8-byte Reload
	movq	%rax, -136(%rbp)
	addq	$24, %rax
	movq	%rax, -128(%rbp)
	movq	%rax, -120(%rbp)
	movq	-832(%rbp), %rax        ## 8-byte Reload
	movq	24(%rax), %rcx
	incq	%rcx
	movq	%rcx, %rdx
	shrq	%rdx
	movq	%rcx, %rsi
	andq	$1, %rsi
	orq	%rdx, %rsi
	cvtsi2ssq	%rsi, %xmm0
	addss	%xmm0, %xmm0
	cvtsi2ssq	%rcx, %xmm1
	testq	%rcx, %rcx
	movss	%xmm1, -860(%rbp)       ## 4-byte Spill
	movss	%xmm0, -864(%rbp)       ## 4-byte Spill
	js	LBB12_40
## BB#39:
	movss	-860(%rbp), %xmm0       ## 4-byte Reload
                                        ## xmm0 = mem[0],zero,zero,zero
	movss	%xmm0, -864(%rbp)       ## 4-byte Spill
LBB12_40:
	movss	-864(%rbp), %xmm0       ## 4-byte Reload
                                        ## xmm0 = mem[0],zero,zero,zero
	movq	-768(%rbp), %rax
	movq	%rax, %rcx
	shrq	%rcx
	movq	%rax, %rdx
	andq	$1, %rdx
	orq	%rcx, %rdx
	cvtsi2ssq	%rdx, %xmm1
	addss	%xmm1, %xmm1
	cvtsi2ssq	%rax, %xmm2
	testq	%rax, %rax
	movss	%xmm0, -868(%rbp)       ## 4-byte Spill
	movss	%xmm2, -872(%rbp)       ## 4-byte Spill
	movss	%xmm1, -876(%rbp)       ## 4-byte Spill
	js	LBB12_42
## BB#41:
	movss	-872(%rbp), %xmm0       ## 4-byte Reload
                                        ## xmm0 = mem[0],zero,zero,zero
	movss	%xmm0, -876(%rbp)       ## 4-byte Spill
LBB12_42:
	movss	-876(%rbp), %xmm0       ## 4-byte Reload
                                        ## xmm0 = mem[0],zero,zero,zero
	movq	-832(%rbp), %rax        ## 8-byte Reload
	movq	%rax, -160(%rbp)
	movq	-160(%rbp), %rcx
	addq	$32, %rcx
	movq	%rcx, -152(%rbp)
	movq	-152(%rbp), %rcx
	movq	%rcx, -144(%rbp)
	movq	-144(%rbp), %rcx
	mulss	(%rcx), %xmm0
	movss	-868(%rbp), %xmm1       ## 4-byte Reload
                                        ## xmm1 = mem[0],zero,zero,zero
	ucomiss	%xmm0, %xmm1
	ja	LBB12_20
## BB#19:
	cmpq	$0, -768(%rbp)
	jne	LBB12_29
LBB12_20:
	xorl	%eax, %eax
	movb	%al, %cl
	movq	-768(%rbp), %rdx
	shlq	$1, %rdx
	movq	-768(%rbp), %rsi
	movq	%rsi, -168(%rbp)
	cmpq	$2, -168(%rbp)
	movq	%rdx, -888(%rbp)        ## 8-byte Spill
	movb	%cl, -889(%rbp)         ## 1-byte Spill
	jbe	LBB12_22
## BB#21:
	movq	-168(%rbp), %rax
	movq	-168(%rbp), %rcx
	subq	$1, %rcx
	andq	%rcx, %rax
	cmpq	$0, %rax
	setne	%dl
	xorb	$1, %dl
	movb	%dl, -889(%rbp)         ## 1-byte Spill
LBB12_22:                               ## %_ZNSt3__116__is_hash_power2Em.exit
	movb	-889(%rbp), %al         ## 1-byte Reload
	leaq	-312(%rbp), %rcx
	leaq	-808(%rbp), %rdx
	leaq	-800(%rbp), %rsi
	notb	%al
	movzbl	%al, %edi
	movl	%edi, %r8d
	andq	$1, %r8
	movq	-888(%rbp), %r9         ## 8-byte Reload
	addq	%r8, %r9
	movq	%r9, -800(%rbp)
	movq	-832(%rbp), %r8         ## 8-byte Reload
	movq	%r8, -192(%rbp)
	addq	$24, %r8
	movq	%r8, -184(%rbp)
	movq	%r8, -176(%rbp)
	movq	-832(%rbp), %r8         ## 8-byte Reload
	movq	24(%r8), %r9
	incq	%r9
	movq	%r9, %r10
	shrq	%r10
	movq	%r9, %r11
	andq	$1, %r11
	orq	%r10, %r11
	cvtsi2ssq	%r11, %xmm0
	addss	%xmm0, %xmm0
	cvtsi2ssq	%r9, %xmm1
	testq	%r9, %r9
	movq	%rsi, -904(%rbp)        ## 8-byte Spill
	movq	%rcx, -912(%rbp)        ## 8-byte Spill
	movq	%rdx, -920(%rbp)        ## 8-byte Spill
	movss	%xmm1, -924(%rbp)       ## 4-byte Spill
	movss	%xmm0, -928(%rbp)       ## 4-byte Spill
	js	LBB12_44
## BB#43:                               ## %_ZNSt3__116__is_hash_power2Em.exit
	movss	-924(%rbp), %xmm0       ## 4-byte Reload
                                        ## xmm0 = mem[0],zero,zero,zero
	movss	%xmm0, -928(%rbp)       ## 4-byte Spill
LBB12_44:                               ## %_ZNSt3__116__is_hash_power2Em.exit
	movss	-928(%rbp), %xmm0       ## 4-byte Reload
                                        ## xmm0 = mem[0],zero,zero,zero
	movq	-832(%rbp), %rax        ## 8-byte Reload
	movq	%rax, -216(%rbp)
	addq	$32, %rax
	movq	%rax, -208(%rbp)
	movq	%rax, -200(%rbp)
	movq	-832(%rbp), %rax        ## 8-byte Reload
	movss	32(%rax), %xmm1         ## xmm1 = mem[0],zero,zero,zero
	divss	%xmm1, %xmm0
	movss	%xmm0, -276(%rbp)
	callq	_ceilf
	movss	LCPI12_0(%rip), %xmm1   ## xmm1 = mem[0],zero,zero,zero
	movaps	%xmm0, %xmm2
	subss	%xmm1, %xmm2
	cvttss2si	%xmm2, %rax
	movabsq	$-9223372036854775808, %rcx ## imm = 0x8000000000000000
	xorq	%rcx, %rax
	cvttss2si	%xmm0, %rcx
	ucomiss	%xmm1, %xmm0
	cmovbq	%rcx, %rax
	movq	%rax, -808(%rbp)
	movq	-904(%rbp), %rax        ## 8-byte Reload
	movq	%rax, -336(%rbp)
	movq	-920(%rbp), %rcx        ## 8-byte Reload
	movq	%rcx, -344(%rbp)
	movq	-336(%rbp), %rdx
	movq	-344(%rbp), %rsi
	movq	%rdx, -320(%rbp)
	movq	%rsi, -328(%rbp)
	movq	-320(%rbp), %rdx
	movq	-328(%rbp), %rsi
	movq	-912(%rbp), %rdi        ## 8-byte Reload
	movq	%rdi, -288(%rbp)
	movq	%rdx, -296(%rbp)
	movq	%rsi, -304(%rbp)
	movq	-296(%rbp), %rdx
	movq	(%rdx), %rdx
	movq	-304(%rbp), %rsi
	cmpq	(%rsi), %rdx
	jae	LBB12_24
## BB#23:
	movq	-328(%rbp), %rax
	movq	%rax, -936(%rbp)        ## 8-byte Spill
	jmp	LBB12_25
LBB12_24:
	movq	-320(%rbp), %rax
	movq	%rax, -936(%rbp)        ## 8-byte Spill
LBB12_25:                               ## %_ZNSt3__13maxImEERKT_S3_S3_.exit
	movq	-936(%rbp), %rax        ## 8-byte Reload
	movq	(%rax), %rsi
	movq	-832(%rbp), %rdi        ## 8-byte Reload
	callq	__ZNSt3__112__hash_tableIiNS_4hashIiEENS_8equal_toIiEENS_9allocatorIiEEE6rehashEm
	movq	-832(%rbp), %rax        ## 8-byte Reload
	movq	%rax, -424(%rbp)
	movq	-424(%rbp), %rsi
	movq	%rsi, -416(%rbp)
	movq	-416(%rbp), %rsi
	movq	%rsi, -408(%rbp)
	movq	-408(%rbp), %rsi
	movq	%rsi, -400(%rbp)
	movq	-400(%rbp), %rsi
	addq	$8, %rsi
	movq	%rsi, -392(%rbp)
	movq	-392(%rbp), %rsi
	movq	%rsi, -384(%rbp)
	movq	-384(%rbp), %rsi
	movq	%rsi, -376(%rbp)
	movq	-376(%rbp), %rsi
	movq	(%rsi), %rsi
	movq	%rsi, -768(%rbp)
	movq	-760(%rbp), %rsi
	movq	8(%rsi), %rsi
	movq	-768(%rbp), %rdi
	movq	%rsi, -432(%rbp)
	movq	%rdi, -440(%rbp)
	movq	-440(%rbp), %rsi
	movq	-440(%rbp), %rdi
	subq	$1, %rdi
	andq	%rdi, %rsi
	cmpq	$0, %rsi
	jne	LBB12_27
## BB#26:
	movq	-432(%rbp), %rax
	movq	-440(%rbp), %rcx
	subq	$1, %rcx
	andq	%rcx, %rax
	movq	%rax, -944(%rbp)        ## 8-byte Spill
	jmp	LBB12_28
LBB12_27:
	movq	-432(%rbp), %rax
	xorl	%ecx, %ecx
	movl	%ecx, %edx
	divq	-440(%rbp)
	movq	%rdx, -944(%rbp)        ## 8-byte Spill
LBB12_28:                               ## %_ZNSt3__116__constrain_hashEmm.exit1
	movq	-944(%rbp), %rax        ## 8-byte Reload
	movq	%rax, -792(%rbp)
LBB12_29:
	movq	-792(%rbp), %rax
	movq	-832(%rbp), %rcx        ## 8-byte Reload
	movq	%rcx, -464(%rbp)
	movq	%rax, -472(%rbp)
	movq	-464(%rbp), %rax
	movq	-472(%rbp), %rdx
	movq	%rax, -456(%rbp)
	movq	-456(%rbp), %rax
	movq	%rax, -448(%rbp)
	movq	-448(%rbp), %rax
	movq	(%rax), %rax
	movq	(%rax,%rdx,8), %rax
	movq	%rax, -816(%rbp)
	cmpq	$0, -816(%rbp)
	jne	LBB12_36
## BB#30:
	movq	-832(%rbp), %rax        ## 8-byte Reload
	addq	$16, %rax
	movq	%rax, -488(%rbp)
	movq	-488(%rbp), %rax
	movq	%rax, -480(%rbp)
	movq	-480(%rbp), %rax
	movq	%rax, -504(%rbp)
	movq	-504(%rbp), %rax
	movq	%rax, -496(%rbp)
	movq	-496(%rbp), %rax
	movq	%rax, -816(%rbp)
	movq	-816(%rbp), %rax
	movq	(%rax), %rax
	movq	-760(%rbp), %rcx
	movq	%rax, (%rcx)
	movq	-760(%rbp), %rax
	movq	-816(%rbp), %rcx
	movq	%rax, (%rcx)
	movq	-816(%rbp), %rax
	movq	-792(%rbp), %rcx
	movq	-832(%rbp), %rdx        ## 8-byte Reload
	movq	%rdx, -528(%rbp)
	movq	%rcx, -536(%rbp)
	movq	-528(%rbp), %rcx
	movq	-536(%rbp), %rsi
	movq	%rcx, -520(%rbp)
	movq	-520(%rbp), %rcx
	movq	%rcx, -512(%rbp)
	movq	-512(%rbp), %rcx
	movq	(%rcx), %rcx
	movq	%rax, (%rcx,%rsi,8)
	movq	-760(%rbp), %rax
	cmpq	$0, (%rax)
	je	LBB12_35
## BB#31:
	movq	-760(%rbp), %rax
	movq	-760(%rbp), %rcx
	movq	(%rcx), %rcx
	movq	8(%rcx), %rcx
	movq	-768(%rbp), %rdx
	movq	%rcx, -544(%rbp)
	movq	%rdx, -552(%rbp)
	movq	-552(%rbp), %rcx
	movq	-552(%rbp), %rdx
	subq	$1, %rdx
	andq	%rdx, %rcx
	cmpq	$0, %rcx
	movq	%rax, -952(%rbp)        ## 8-byte Spill
	jne	LBB12_33
## BB#32:
	movq	-544(%rbp), %rax
	movq	-552(%rbp), %rcx
	subq	$1, %rcx
	andq	%rcx, %rax
	movq	%rax, -960(%rbp)        ## 8-byte Spill
	jmp	LBB12_34
LBB12_33:
	movq	-544(%rbp), %rax
	xorl	%ecx, %ecx
	movl	%ecx, %edx
	divq	-552(%rbp)
	movq	%rdx, -960(%rbp)        ## 8-byte Spill
LBB12_34:                               ## %_ZNSt3__116__constrain_hashEmm.exit
	movq	-960(%rbp), %rax        ## 8-byte Reload
	movq	-832(%rbp), %rcx        ## 8-byte Reload
	movq	%rcx, -576(%rbp)
	movq	%rax, -584(%rbp)
	movq	-576(%rbp), %rax
	movq	-584(%rbp), %rdx
	movq	%rax, -568(%rbp)
	movq	-568(%rbp), %rax
	movq	%rax, -560(%rbp)
	movq	-560(%rbp), %rax
	movq	(%rax), %rax
	movq	-952(%rbp), %rsi        ## 8-byte Reload
	movq	%rsi, (%rax,%rdx,8)
LBB12_35:
	jmp	LBB12_37
LBB12_36:
	movq	-816(%rbp), %rax
	movq	(%rax), %rax
	movq	-760(%rbp), %rcx
	movq	%rax, (%rcx)
	movq	-760(%rbp), %rax
	movq	-816(%rbp), %rcx
	movq	%rax, (%rcx)
LBB12_37:
	movq	-760(%rbp), %rax
	movq	%rax, -784(%rbp)
	movq	-832(%rbp), %rax        ## 8-byte Reload
	movq	%rax, -608(%rbp)
	movq	-608(%rbp), %rcx
	addq	$24, %rcx
	movq	%rcx, -600(%rbp)
	movq	-600(%rbp), %rcx
	movq	%rcx, -592(%rbp)
	movq	-592(%rbp), %rcx
	movq	(%rcx), %rdx
	addq	$1, %rdx
	movq	%rdx, (%rcx)
	movb	$1, -769(%rbp)
LBB12_38:
	movq	-784(%rbp), %rax
	leaq	-824(%rbp), %rcx
	movq	%rcx, -632(%rbp)
	movq	%rax, -640(%rbp)
	movq	-632(%rbp), %rdx
	movq	%rdx, -616(%rbp)
	movq	%rax, -624(%rbp)
	movq	-616(%rbp), %rdx
	movq	%rax, (%rdx)
	leaq	-744(%rbp), %rax
	movq	%rax, -688(%rbp)
	movq	%rcx, -696(%rbp)
	leaq	-769(%rbp), %rax
	movq	%rax, -704(%rbp)
	movq	-688(%rbp), %rcx
	movq	-696(%rbp), %rdx
	movq	%rcx, -664(%rbp)
	movq	%rdx, -672(%rbp)
	movq	%rax, -680(%rbp)
	movq	-664(%rbp), %rax
	movq	-672(%rbp), %rcx
	movq	%rcx, -656(%rbp)
	movq	(%rcx), %rcx
	movq	%rcx, (%rax)
	movq	-680(%rbp), %rcx
	movq	%rcx, -648(%rbp)
	movb	(%rcx), %sil
	andb	$1, %sil
	movb	%sil, 8(%rax)
	movq	-744(%rbp), %rax
	movb	-736(%rbp), %dl
	addq	$960, %rsp              ## imm = 0x3C0
	popq	%rbp
	retq
	.cfi_endproc

	.section	__TEXT,__literal4,4byte_literals
	.align	2
LCPI13_0:
	.long	1593835520              ## float 9.22337203E+18
	.section	__TEXT,__textcoal_nt,coalesced,pure_instructions
	.globl	__ZNSt3__112__hash_tableIiNS_4hashIiEENS_8equal_toIiEENS_9allocatorIiEEE6rehashEm
	.weak_def_can_be_hidden	__ZNSt3__112__hash_tableIiNS_4hashIiEENS_8equal_toIiEENS_9allocatorIiEEE6rehashEm
	.align	4, 0x90
__ZNSt3__112__hash_tableIiNS_4hashIiEENS_8equal_toIiEENS_9allocatorIiEEE6rehashEm: ## @_ZNSt3__112__hash_tableIiNS_4hashIiEENS_8equal_toIiEENS_9allocatorIiEEE6rehashEm
	.cfi_startproc
## BB#0:
	pushq	%rbp
Ltmp85:
	.cfi_def_cfa_offset 16
Ltmp86:
	.cfi_offset %rbp, -16
	movq	%rsp, %rbp
Ltmp87:
	.cfi_def_cfa_register %rbp
	subq	$368, %rsp              ## imm = 0x170
	movq	%rdi, -272(%rbp)
	movq	%rsi, -280(%rbp)
	movq	-272(%rbp), %rsi
	cmpq	$1, -280(%rbp)
	movq	%rsi, -304(%rbp)        ## 8-byte Spill
	jne	LBB13_2
## BB#1:
	movq	$2, -280(%rbp)
	jmp	LBB13_5
LBB13_2:
	movq	-280(%rbp), %rax
	movq	-280(%rbp), %rcx
	subq	$1, %rcx
	andq	%rcx, %rax
	cmpq	$0, %rax
	je	LBB13_4
## BB#3:
	movq	-280(%rbp), %rdi
	callq	__ZNSt3__112__next_primeEm
	movq	%rax, -280(%rbp)
LBB13_4:
	jmp	LBB13_5
LBB13_5:
	movq	-304(%rbp), %rax        ## 8-byte Reload
	movq	%rax, -264(%rbp)
	movq	-264(%rbp), %rcx
	movq	%rcx, -256(%rbp)
	movq	-256(%rbp), %rcx
	movq	%rcx, -248(%rbp)
	movq	-248(%rbp), %rcx
	movq	%rcx, -240(%rbp)
	movq	-240(%rbp), %rcx
	addq	$8, %rcx
	movq	%rcx, -232(%rbp)
	movq	-232(%rbp), %rcx
	movq	%rcx, -224(%rbp)
	movq	-224(%rbp), %rcx
	movq	%rcx, -216(%rbp)
	movq	-216(%rbp), %rcx
	movq	(%rcx), %rcx
	movq	%rcx, -288(%rbp)
	movq	-280(%rbp), %rcx
	cmpq	-288(%rbp), %rcx
	jbe	LBB13_7
## BB#6:
	movq	-280(%rbp), %rsi
	movq	-304(%rbp), %rdi        ## 8-byte Reload
	callq	__ZNSt3__112__hash_tableIiNS_4hashIiEENS_8equal_toIiEENS_9allocatorIiEEE8__rehashEm
	jmp	LBB13_20
LBB13_7:
	movq	-280(%rbp), %rax
	cmpq	-288(%rbp), %rax
	jae	LBB13_19
## BB#8:
	xorl	%eax, %eax
	movb	%al, %cl
	movq	-288(%rbp), %rdx
	movq	%rdx, -208(%rbp)
	cmpq	$2, -208(%rbp)
	movb	%cl, -305(%rbp)         ## 1-byte Spill
	jbe	LBB13_10
## BB#9:
	movq	-208(%rbp), %rax
	movq	-208(%rbp), %rcx
	subq	$1, %rcx
	andq	%rcx, %rax
	cmpq	$0, %rax
	setne	%dl
	xorb	$1, %dl
	movb	%dl, -305(%rbp)         ## 1-byte Spill
LBB13_10:                               ## %_ZNSt3__116__is_hash_power2Em.exit
	movb	-305(%rbp), %al         ## 1-byte Reload
	testb	$1, %al
	jne	LBB13_11
	jmp	LBB13_12
LBB13_11:
	movl	$1, %eax
	movl	%eax, %ecx
	movl	$64, %eax
	movl	%eax, %edx
	movq	-304(%rbp), %rsi        ## 8-byte Reload
	movq	%rsi, -120(%rbp)
	addq	$24, %rsi
	movq	%rsi, -112(%rbp)
	movq	%rsi, -104(%rbp)
	movq	-304(%rbp), %rsi        ## 8-byte Reload
	movq	24(%rsi), %rdi
	movq	%rdi, %r8
	shrq	%r8
	movq	%rdi, %r9
	andq	$1, %r9
	orq	%r8, %r9
	cvtsi2ssq	%r9, %xmm0
	addss	%xmm0, %xmm0
	cvtsi2ssq	%rdi, %xmm1
	testq	%rdi, %rdi
	movq	%rcx, -320(%rbp)        ## 8-byte Spill
	movq	%rdx, -328(%rbp)        ## 8-byte Spill
	movss	%xmm1, -332(%rbp)       ## 4-byte Spill
	movss	%xmm0, -336(%rbp)       ## 4-byte Spill
	js	LBB13_22
## BB#21:
	movss	-332(%rbp), %xmm0       ## 4-byte Reload
                                        ## xmm0 = mem[0],zero,zero,zero
	movss	%xmm0, -336(%rbp)       ## 4-byte Spill
LBB13_22:
	movss	-336(%rbp), %xmm0       ## 4-byte Reload
                                        ## xmm0 = mem[0],zero,zero,zero
	movq	-304(%rbp), %rax        ## 8-byte Reload
	movq	%rax, -24(%rbp)
	addq	$32, %rax
	movq	%rax, -16(%rbp)
	movq	%rax, -8(%rbp)
	movq	-304(%rbp), %rax        ## 8-byte Reload
	movss	32(%rax), %xmm1         ## xmm1 = mem[0],zero,zero,zero
	divss	%xmm1, %xmm0
	movss	%xmm0, -28(%rbp)
	callq	_ceilf
	movss	LCPI13_0(%rip), %xmm1   ## xmm1 = mem[0],zero,zero,zero
	movaps	%xmm0, %xmm2
	subss	%xmm1, %xmm2
	cvttss2si	%xmm2, %rax
	movabsq	$-9223372036854775808, %rcx ## imm = 0x8000000000000000
	xorq	%rcx, %rax
	cvttss2si	%xmm0, %rcx
	ucomiss	%xmm1, %xmm0
	cmovbq	%rcx, %rax
	movq	%rax, -48(%rbp)
	movq	-48(%rbp), %rax
	subq	$1, %rax
	movq	%rax, -40(%rbp)
	movq	-40(%rbp), %rax
	bsrq	%rax, %rax
	xorq	$63, %rax
	movl	%eax, %edx
	movslq	%edx, %rax
	movq	-328(%rbp), %rcx        ## 8-byte Reload
	subq	%rax, %rcx
                                        ## kill: CL<def> RCX<kill>
	movq	-320(%rbp), %rax        ## 8-byte Reload
	shlq	%cl, %rax
	movq	%rax, -344(%rbp)        ## 8-byte Spill
	jmp	LBB13_13
LBB13_12:
	movq	-304(%rbp), %rax        ## 8-byte Reload
	movq	%rax, -72(%rbp)
	addq	$24, %rax
	movq	%rax, -64(%rbp)
	movq	%rax, -56(%rbp)
	movq	-304(%rbp), %rax        ## 8-byte Reload
	movq	24(%rax), %rcx
	movq	%rcx, %rdx
	shrq	%rdx
	movq	%rcx, %rsi
	andq	$1, %rsi
	orq	%rdx, %rsi
	cvtsi2ssq	%rsi, %xmm0
	addss	%xmm0, %xmm0
	cvtsi2ssq	%rcx, %xmm1
	testq	%rcx, %rcx
	movss	%xmm1, -348(%rbp)       ## 4-byte Spill
	movss	%xmm0, -352(%rbp)       ## 4-byte Spill
	js	LBB13_24
## BB#23:
	movss	-348(%rbp), %xmm0       ## 4-byte Reload
                                        ## xmm0 = mem[0],zero,zero,zero
	movss	%xmm0, -352(%rbp)       ## 4-byte Spill
LBB13_24:
	movss	-352(%rbp), %xmm0       ## 4-byte Reload
                                        ## xmm0 = mem[0],zero,zero,zero
	movq	-304(%rbp), %rax        ## 8-byte Reload
	movq	%rax, -96(%rbp)
	addq	$32, %rax
	movq	%rax, -88(%rbp)
	movq	%rax, -80(%rbp)
	movq	-304(%rbp), %rax        ## 8-byte Reload
	movss	32(%rax), %xmm1         ## xmm1 = mem[0],zero,zero,zero
	divss	%xmm1, %xmm0
	movss	%xmm0, -124(%rbp)
	callq	_ceilf
	movss	LCPI13_0(%rip), %xmm1   ## xmm1 = mem[0],zero,zero,zero
	movaps	%xmm0, %xmm2
	subss	%xmm1, %xmm2
	cvttss2si	%xmm2, %rax
	movabsq	$-9223372036854775808, %rcx ## imm = 0x8000000000000000
	xorq	%rcx, %rax
	cvttss2si	%xmm0, %rcx
	ucomiss	%xmm1, %xmm0
	cmovbq	%rcx, %rax
	movq	%rax, %rdi
	callq	__ZNSt3__112__next_primeEm
	movq	%rax, -344(%rbp)        ## 8-byte Spill
LBB13_13:
	movq	-344(%rbp), %rax        ## 8-byte Reload
	leaq	-160(%rbp), %rcx
	leaq	-296(%rbp), %rdx
	leaq	-280(%rbp), %rsi
	movq	%rax, -296(%rbp)
	movq	%rsi, -184(%rbp)
	movq	%rdx, -192(%rbp)
	movq	-184(%rbp), %rax
	movq	-192(%rbp), %rdx
	movq	%rax, -168(%rbp)
	movq	%rdx, -176(%rbp)
	movq	-168(%rbp), %rax
	movq	-176(%rbp), %rdx
	movq	%rcx, -136(%rbp)
	movq	%rax, -144(%rbp)
	movq	%rdx, -152(%rbp)
	movq	-144(%rbp), %rax
	movq	(%rax), %rax
	movq	-152(%rbp), %rcx
	cmpq	(%rcx), %rax
	jae	LBB13_15
## BB#14:
	movq	-176(%rbp), %rax
	movq	%rax, -360(%rbp)        ## 8-byte Spill
	jmp	LBB13_16
LBB13_15:
	movq	-168(%rbp), %rax
	movq	%rax, -360(%rbp)        ## 8-byte Spill
LBB13_16:                               ## %_ZNSt3__13maxImEERKT_S3_S3_.exit
	movq	-360(%rbp), %rax        ## 8-byte Reload
	movq	(%rax), %rax
	movq	%rax, -280(%rbp)
	movq	-280(%rbp), %rax
	cmpq	-288(%rbp), %rax
	jae	LBB13_18
## BB#17:
	movq	-280(%rbp), %rsi
	movq	-304(%rbp), %rdi        ## 8-byte Reload
	callq	__ZNSt3__112__hash_tableIiNS_4hashIiEENS_8equal_toIiEENS_9allocatorIiEEE8__rehashEm
LBB13_18:
	jmp	LBB13_19
LBB13_19:
	jmp	LBB13_20
LBB13_20:
	addq	$368, %rsp              ## imm = 0x170
	popq	%rbp
	retq
	.cfi_endproc

	.globl	__ZNSt3__112__hash_tableIiNS_4hashIiEENS_8equal_toIiEENS_9allocatorIiEEE8__rehashEm
	.weak_def_can_be_hidden	__ZNSt3__112__hash_tableIiNS_4hashIiEENS_8equal_toIiEENS_9allocatorIiEEE8__rehashEm
	.align	4, 0x90
__ZNSt3__112__hash_tableIiNS_4hashIiEENS_8equal_toIiEENS_9allocatorIiEEE8__rehashEm: ## @_ZNSt3__112__hash_tableIiNS_4hashIiEENS_8equal_toIiEENS_9allocatorIiEEE8__rehashEm
	.cfi_startproc
## BB#0:
	pushq	%rbp
Ltmp88:
	.cfi_def_cfa_offset 16
Ltmp89:
	.cfi_offset %rbp, -16
	movq	%rsp, %rbp
Ltmp90:
	.cfi_def_cfa_register %rbp
	subq	$768, %rsp              ## imm = 0x300
	movq	%rdi, -648(%rbp)
	movq	%rsi, -656(%rbp)
	movq	-648(%rbp), %rsi
	movq	%rsi, -640(%rbp)
	movq	-640(%rbp), %rdi
	movq	%rdi, -632(%rbp)
	movq	-632(%rbp), %rdi
	movq	%rdi, -624(%rbp)
	movq	-624(%rbp), %rdi
	addq	$8, %rdi
	movq	%rdi, -72(%rbp)
	movq	-72(%rbp), %rdi
	movq	%rdi, -64(%rbp)
	movq	-64(%rbp), %rdi
	movq	%rdi, -56(%rbp)
	movq	-56(%rbp), %rdi
	movq	%rdi, -664(%rbp)
	cmpq	$0, -656(%rbp)
	movq	%rsi, -720(%rbp)        ## 8-byte Spill
	jbe	LBB14_2
## BB#1:
	movq	-664(%rbp), %rax
	movq	-656(%rbp), %rcx
	movq	%rax, -40(%rbp)
	movq	%rcx, -48(%rbp)
	movq	-40(%rbp), %rax
	movq	-48(%rbp), %rcx
	movq	%rax, -16(%rbp)
	movq	%rcx, -24(%rbp)
	movq	$0, -32(%rbp)
	movq	-24(%rbp), %rax
	shlq	$3, %rax
	movq	%rax, -8(%rbp)
	movq	-8(%rbp), %rdi
	callq	__Znwm
	movq	%rax, -728(%rbp)        ## 8-byte Spill
	jmp	LBB14_3
LBB14_2:
	xorl	%eax, %eax
	movl	%eax, %ecx
	movq	%rcx, -728(%rbp)        ## 8-byte Spill
	jmp	LBB14_3
LBB14_3:
	movq	-728(%rbp), %rax        ## 8-byte Reload
	movq	-720(%rbp), %rcx        ## 8-byte Reload
	movq	%rcx, -248(%rbp)
	movq	%rax, -256(%rbp)
	movq	-248(%rbp), %rax
	movq	%rax, -240(%rbp)
	movq	-240(%rbp), %rdx
	movq	%rdx, -232(%rbp)
	movq	-232(%rbp), %rdx
	movq	(%rdx), %rdx
	movq	%rdx, -264(%rbp)
	movq	-256(%rbp), %rdx
	movq	%rax, -104(%rbp)
	movq	-104(%rbp), %rsi
	movq	%rsi, -96(%rbp)
	movq	-96(%rbp), %rsi
	movq	%rdx, (%rsi)
	cmpq	$0, -264(%rbp)
	movq	%rax, -736(%rbp)        ## 8-byte Spill
	je	LBB14_5
## BB#4:
	movq	-736(%rbp), %rax        ## 8-byte Reload
	movq	%rax, -88(%rbp)
	movq	-88(%rbp), %rcx
	movq	%rcx, -80(%rbp)
	movq	-80(%rbp), %rcx
	addq	$8, %rcx
	movq	-264(%rbp), %rdx
	movq	%rcx, -216(%rbp)
	movq	%rdx, -224(%rbp)
	movq	-216(%rbp), %rcx
	movq	%rcx, -208(%rbp)
	movq	-208(%rbp), %rdx
	movq	%rdx, -200(%rbp)
	movq	-200(%rbp), %rdx
	movq	%rdx, -192(%rbp)
	movq	-192(%rbp), %rdx
	movq	-224(%rbp), %rsi
	movq	%rcx, -128(%rbp)
	movq	-128(%rbp), %rcx
	movq	%rcx, -120(%rbp)
	movq	-120(%rbp), %rcx
	movq	%rcx, -112(%rbp)
	movq	-112(%rbp), %rcx
	movq	(%rcx), %rcx
	movq	%rdx, -168(%rbp)
	movq	%rsi, -176(%rbp)
	movq	%rcx, -184(%rbp)
	movq	-168(%rbp), %rcx
	movq	-176(%rbp), %rdx
	movq	-184(%rbp), %rsi
	movq	%rcx, -144(%rbp)
	movq	%rdx, -152(%rbp)
	movq	%rsi, -160(%rbp)
	movq	-152(%rbp), %rcx
	movq	%rcx, -136(%rbp)
	movq	-136(%rbp), %rdi
	callq	__ZdlPv
LBB14_5:                                ## %_ZNSt3__110unique_ptrIA_PNS_11__hash_nodeIiPvEENS_25__bucket_list_deallocatorINS_9allocatorIS4_EEEEE5resetIPS4_EENS_9enable_ifIXsr27__same_or_less_cv_qualifiedIT_SC_EE5valueEvE4typeESE_.exit
	movq	-656(%rbp), %rax
	movq	-720(%rbp), %rcx        ## 8-byte Reload
	movq	%rcx, -288(%rbp)
	movq	-288(%rbp), %rdx
	movq	%rdx, -280(%rbp)
	movq	-280(%rbp), %rdx
	movq	%rdx, -272(%rbp)
	movq	-272(%rbp), %rdx
	addq	$8, %rdx
	movq	%rdx, -312(%rbp)
	movq	-312(%rbp), %rdx
	movq	%rdx, -304(%rbp)
	movq	-304(%rbp), %rdx
	movq	%rdx, -296(%rbp)
	movq	-296(%rbp), %rdx
	movq	%rax, (%rdx)
	cmpq	$0, -656(%rbp)
	jbe	LBB14_35
## BB#6:
	movq	$0, -672(%rbp)
LBB14_7:                                ## =>This Inner Loop Header: Depth=1
	movq	-672(%rbp), %rax
	cmpq	-656(%rbp), %rax
	jae	LBB14_10
## BB#8:                                ##   in Loop: Header=BB14_7 Depth=1
	movq	-672(%rbp), %rax
	movq	-720(%rbp), %rcx        ## 8-byte Reload
	movq	%rcx, -336(%rbp)
	movq	%rax, -344(%rbp)
	movq	-336(%rbp), %rax
	movq	-344(%rbp), %rdx
	movq	%rax, -328(%rbp)
	movq	-328(%rbp), %rax
	movq	%rax, -320(%rbp)
	movq	-320(%rbp), %rax
	movq	(%rax), %rax
	movq	$0, (%rax,%rdx,8)
## BB#9:                                ##   in Loop: Header=BB14_7 Depth=1
	movq	-672(%rbp), %rax
	addq	$1, %rax
	movq	%rax, -672(%rbp)
	jmp	LBB14_7
LBB14_10:
	movq	-720(%rbp), %rax        ## 8-byte Reload
	addq	$16, %rax
	movq	%rax, -360(%rbp)
	movq	-360(%rbp), %rax
	movq	%rax, -352(%rbp)
	movq	-352(%rbp), %rax
	movq	%rax, -376(%rbp)
	movq	-376(%rbp), %rax
	movq	%rax, -368(%rbp)
	movq	-368(%rbp), %rax
	movq	%rax, -680(%rbp)
	movq	-680(%rbp), %rax
	movq	(%rax), %rax
	movq	%rax, -688(%rbp)
	cmpq	$0, -688(%rbp)
	je	LBB14_34
## BB#11:
	movq	-688(%rbp), %rax
	movq	8(%rax), %rax
	movq	-656(%rbp), %rcx
	movq	%rax, -384(%rbp)
	movq	%rcx, -392(%rbp)
	movq	-392(%rbp), %rax
	movq	-392(%rbp), %rcx
	subq	$1, %rcx
	andq	%rcx, %rax
	cmpq	$0, %rax
	jne	LBB14_13
## BB#12:
	movq	-384(%rbp), %rax
	movq	-392(%rbp), %rcx
	subq	$1, %rcx
	andq	%rcx, %rax
	movq	%rax, -744(%rbp)        ## 8-byte Spill
	jmp	LBB14_14
LBB14_13:
	movq	-384(%rbp), %rax
	xorl	%ecx, %ecx
	movl	%ecx, %edx
	divq	-392(%rbp)
	movq	%rdx, -744(%rbp)        ## 8-byte Spill
LBB14_14:                               ## %_ZNSt3__116__constrain_hashEmm.exit1
	movq	-744(%rbp), %rax        ## 8-byte Reload
	movq	%rax, -696(%rbp)
	movq	-680(%rbp), %rax
	movq	-696(%rbp), %rcx
	movq	-720(%rbp), %rdx        ## 8-byte Reload
	movq	%rdx, -416(%rbp)
	movq	%rcx, -424(%rbp)
	movq	-416(%rbp), %rcx
	movq	-424(%rbp), %rsi
	movq	%rcx, -408(%rbp)
	movq	-408(%rbp), %rcx
	movq	%rcx, -400(%rbp)
	movq	-400(%rbp), %rcx
	movq	(%rcx), %rcx
	movq	%rax, (%rcx,%rsi,8)
	movq	-696(%rbp), %rax
	movq	%rax, -704(%rbp)
	movq	-688(%rbp), %rax
	movq	%rax, -680(%rbp)
	movq	-688(%rbp), %rax
	movq	(%rax), %rax
	movq	%rax, -688(%rbp)
LBB14_15:                               ## =>This Loop Header: Depth=1
                                        ##     Child Loop BB14_24 Depth 2
	cmpq	$0, -688(%rbp)
	je	LBB14_33
## BB#16:                               ##   in Loop: Header=BB14_15 Depth=1
	movq	-688(%rbp), %rax
	movq	8(%rax), %rax
	movq	-656(%rbp), %rcx
	movq	%rax, -432(%rbp)
	movq	%rcx, -440(%rbp)
	movq	-440(%rbp), %rax
	movq	-440(%rbp), %rcx
	subq	$1, %rcx
	andq	%rcx, %rax
	cmpq	$0, %rax
	jne	LBB14_18
## BB#17:                               ##   in Loop: Header=BB14_15 Depth=1
	movq	-432(%rbp), %rax
	movq	-440(%rbp), %rcx
	subq	$1, %rcx
	andq	%rcx, %rax
	movq	%rax, -752(%rbp)        ## 8-byte Spill
	jmp	LBB14_19
LBB14_18:                               ##   in Loop: Header=BB14_15 Depth=1
	movq	-432(%rbp), %rax
	xorl	%ecx, %ecx
	movl	%ecx, %edx
	divq	-440(%rbp)
	movq	%rdx, -752(%rbp)        ## 8-byte Spill
LBB14_19:                               ## %_ZNSt3__116__constrain_hashEmm.exit
                                        ##   in Loop: Header=BB14_15 Depth=1
	movq	-752(%rbp), %rax        ## 8-byte Reload
	movq	%rax, -696(%rbp)
	movq	-696(%rbp), %rax
	cmpq	-704(%rbp), %rax
	jne	LBB14_21
## BB#20:                               ##   in Loop: Header=BB14_15 Depth=1
	movq	-688(%rbp), %rax
	movq	%rax, -680(%rbp)
	jmp	LBB14_31
LBB14_21:                               ##   in Loop: Header=BB14_15 Depth=1
	movq	-696(%rbp), %rax
	movq	-720(%rbp), %rcx        ## 8-byte Reload
	movq	%rcx, -464(%rbp)
	movq	%rax, -472(%rbp)
	movq	-464(%rbp), %rax
	movq	-472(%rbp), %rdx
	movq	%rax, -456(%rbp)
	movq	-456(%rbp), %rax
	movq	%rax, -448(%rbp)
	movq	-448(%rbp), %rax
	movq	(%rax), %rax
	cmpq	$0, (%rax,%rdx,8)
	jne	LBB14_23
## BB#22:                               ##   in Loop: Header=BB14_15 Depth=1
	movq	-680(%rbp), %rax
	movq	-696(%rbp), %rcx
	movq	-720(%rbp), %rdx        ## 8-byte Reload
	movq	%rdx, -496(%rbp)
	movq	%rcx, -504(%rbp)
	movq	-496(%rbp), %rcx
	movq	-504(%rbp), %rsi
	movq	%rcx, -488(%rbp)
	movq	-488(%rbp), %rcx
	movq	%rcx, -480(%rbp)
	movq	-480(%rbp), %rcx
	movq	(%rcx), %rcx
	movq	%rax, (%rcx,%rsi,8)
	movq	-688(%rbp), %rax
	movq	%rax, -680(%rbp)
	movq	-696(%rbp), %rax
	movq	%rax, -704(%rbp)
	jmp	LBB14_30
LBB14_23:                               ##   in Loop: Header=BB14_15 Depth=1
	movq	-688(%rbp), %rax
	movq	%rax, -712(%rbp)
LBB14_24:                               ##   Parent Loop BB14_15 Depth=1
                                        ## =>  This Inner Loop Header: Depth=2
	xorl	%eax, %eax
	movb	%al, %cl
	movq	-712(%rbp), %rdx
	cmpq	$0, (%rdx)
	movb	%cl, -753(%rbp)         ## 1-byte Spill
	je	LBB14_26
## BB#25:                               ##   in Loop: Header=BB14_24 Depth=2
	movq	-720(%rbp), %rax        ## 8-byte Reload
	movq	%rax, -528(%rbp)
	movq	-528(%rbp), %rcx
	addq	$32, %rcx
	movq	%rcx, -520(%rbp)
	movq	-520(%rbp), %rcx
	movq	%rcx, -512(%rbp)
	movq	-512(%rbp), %rcx
	movq	-688(%rbp), %rdx
	addq	$16, %rdx
	movq	-712(%rbp), %rsi
	movq	(%rsi), %rsi
	addq	$16, %rsi
	movq	%rcx, -536(%rbp)
	movq	%rdx, -544(%rbp)
	movq	%rsi, -552(%rbp)
	movq	-544(%rbp), %rcx
	movl	(%rcx), %edi
	movq	-552(%rbp), %rcx
	cmpl	(%rcx), %edi
	sete	%r8b
	movb	%r8b, -753(%rbp)        ## 1-byte Spill
LBB14_26:                               ##   in Loop: Header=BB14_24 Depth=2
	movb	-753(%rbp), %al         ## 1-byte Reload
	testb	$1, %al
	jne	LBB14_27
	jmp	LBB14_29
LBB14_27:                               ##   in Loop: Header=BB14_24 Depth=2
	jmp	LBB14_28
LBB14_28:                               ##   in Loop: Header=BB14_24 Depth=2
	movq	-712(%rbp), %rax
	movq	(%rax), %rax
	movq	%rax, -712(%rbp)
	jmp	LBB14_24
LBB14_29:                               ##   in Loop: Header=BB14_15 Depth=1
	movq	-712(%rbp), %rax
	movq	(%rax), %rax
	movq	-680(%rbp), %rcx
	movq	%rax, (%rcx)
	movq	-696(%rbp), %rax
	movq	-720(%rbp), %rcx        ## 8-byte Reload
	movq	%rcx, -576(%rbp)
	movq	%rax, -584(%rbp)
	movq	-576(%rbp), %rax
	movq	-584(%rbp), %rdx
	movq	%rax, -568(%rbp)
	movq	-568(%rbp), %rax
	movq	%rax, -560(%rbp)
	movq	-560(%rbp), %rax
	movq	(%rax), %rax
	movq	(%rax,%rdx,8), %rax
	movq	(%rax), %rax
	movq	-712(%rbp), %rdx
	movq	%rax, (%rdx)
	movq	-688(%rbp), %rax
	movq	-696(%rbp), %rdx
	movq	%rcx, -608(%rbp)
	movq	%rdx, -616(%rbp)
	movq	-608(%rbp), %rdx
	movq	-616(%rbp), %rsi
	movq	%rdx, -600(%rbp)
	movq	-600(%rbp), %rdx
	movq	%rdx, -592(%rbp)
	movq	-592(%rbp), %rdx
	movq	(%rdx), %rdx
	movq	(%rdx,%rsi,8), %rdx
	movq	%rax, (%rdx)
LBB14_30:                               ##   in Loop: Header=BB14_15 Depth=1
	jmp	LBB14_31
LBB14_31:                               ##   in Loop: Header=BB14_15 Depth=1
	jmp	LBB14_32
LBB14_32:                               ##   in Loop: Header=BB14_15 Depth=1
	movq	-680(%rbp), %rax
	movq	(%rax), %rax
	movq	%rax, -688(%rbp)
	jmp	LBB14_15
LBB14_33:
	jmp	LBB14_34
LBB14_34:
	jmp	LBB14_35
LBB14_35:
	addq	$768, %rsp              ## imm = 0x300
	popq	%rbp
	retq
	.cfi_endproc

	.globl	__ZNSt3__1lsINS_11char_traitsIcEEEERNS_13basic_ostreamIcT_EES6_c
	.weak_def_can_be_hidden	__ZNSt3__1lsINS_11char_traitsIcEEEERNS_13basic_ostreamIcT_EES6_c
	.align	4, 0x90
__ZNSt3__1lsINS_11char_traitsIcEEEERNS_13basic_ostreamIcT_EES6_c: ## @_ZNSt3__1lsINS_11char_traitsIcEEEERNS_13basic_ostreamIcT_EES6_c
	.cfi_startproc
## BB#0:
	pushq	%rbp
Ltmp91:
	.cfi_def_cfa_offset 16
Ltmp92:
	.cfi_offset %rbp, -16
	movq	%rsp, %rbp
Ltmp93:
	.cfi_def_cfa_register %rbp
	subq	$16, %rsp
	movb	%sil, %al
	leaq	-9(%rbp), %rsi
	movl	$1, %ecx
	movl	%ecx, %edx
	movq	%rdi, -8(%rbp)
	movb	%al, -9(%rbp)
	movq	-8(%rbp), %rdi
	callq	__ZNSt3__124__put_character_sequenceIcNS_11char_traitsIcEEEERNS_13basic_ostreamIT_T0_EES7_PKS4_m
	addq	$16, %rsp
	popq	%rbp
	retq
	.cfi_endproc

	.globl	__ZNSt3__124__put_character_sequenceIcNS_11char_traitsIcEEEERNS_13basic_ostreamIT_T0_EES7_PKS4_m
	.weak_def_can_be_hidden	__ZNSt3__124__put_character_sequenceIcNS_11char_traitsIcEEEERNS_13basic_ostreamIT_T0_EES7_PKS4_m
	.align	4, 0x90
__ZNSt3__124__put_character_sequenceIcNS_11char_traitsIcEEEERNS_13basic_ostreamIT_T0_EES7_PKS4_m: ## @_ZNSt3__124__put_character_sequenceIcNS_11char_traitsIcEEEERNS_13basic_ostreamIT_T0_EES7_PKS4_m
Lfunc_begin16:
	.cfi_startproc
	.cfi_personality 155, ___gxx_personality_v0
	.cfi_lsda 16, Lexception16
## BB#0:
	pushq	%rbp
Ltmp115:
	.cfi_def_cfa_offset 16
Ltmp116:
	.cfi_offset %rbp, -16
	movq	%rsp, %rbp
Ltmp117:
	.cfi_def_cfa_register %rbp
	subq	$384, %rsp              ## imm = 0x180
	movq	%rdi, -184(%rbp)
	movq	%rsi, -192(%rbp)
	movq	%rdx, -200(%rbp)
	movq	-184(%rbp), %rsi
Ltmp94:
	leaq	-216(%rbp), %rdi
	callq	__ZNSt3__113basic_ostreamIcNS_11char_traitsIcEEE6sentryC1ERS3_
Ltmp95:
	jmp	LBB16_1
LBB16_1:
	leaq	-216(%rbp), %rax
	movq	%rax, -176(%rbp)
	movq	-176(%rbp), %rax
	movb	(%rax), %cl
	movb	%cl, -249(%rbp)         ## 1-byte Spill
## BB#2:
	movb	-249(%rbp), %al         ## 1-byte Reload
	testb	$1, %al
	jne	LBB16_3
	jmp	LBB16_26
LBB16_3:
	leaq	-240(%rbp), %rax
	movq	-184(%rbp), %rcx
	movq	%rax, -160(%rbp)
	movq	%rcx, -168(%rbp)
	movq	-160(%rbp), %rax
	movq	-168(%rbp), %rcx
	movq	%rax, -144(%rbp)
	movq	%rcx, -152(%rbp)
	movq	-144(%rbp), %rax
	movq	-152(%rbp), %rcx
	movq	(%rcx), %rdx
	movq	-24(%rdx), %rdx
	addq	%rdx, %rcx
	movq	%rcx, -136(%rbp)
	movq	-136(%rbp), %rcx
	movq	%rcx, -128(%rbp)
	movq	-128(%rbp), %rcx
	movq	40(%rcx), %rcx
	movq	%rcx, (%rax)
	movq	-192(%rbp), %rsi
	movq	-184(%rbp), %rax
	movq	(%rax), %rcx
	movq	-24(%rcx), %rcx
	addq	%rcx, %rax
	movq	%rax, -88(%rbp)
	movq	-88(%rbp), %rax
	movl	8(%rax), %edi
	movq	%rsi, -264(%rbp)        ## 8-byte Spill
	movl	%edi, -268(%rbp)        ## 4-byte Spill
## BB#4:
	movl	-268(%rbp), %eax        ## 4-byte Reload
	andl	$176, %eax
	cmpl	$32, %eax
	jne	LBB16_6
## BB#5:
	movq	-192(%rbp), %rax
	addq	-200(%rbp), %rax
	movq	%rax, -280(%rbp)        ## 8-byte Spill
	jmp	LBB16_7
LBB16_6:
	movq	-192(%rbp), %rax
	movq	%rax, -280(%rbp)        ## 8-byte Spill
LBB16_7:
	movq	-280(%rbp), %rax        ## 8-byte Reload
	movq	-192(%rbp), %rcx
	addq	-200(%rbp), %rcx
	movq	-184(%rbp), %rdx
	movq	(%rdx), %rsi
	movq	-24(%rsi), %rsi
	addq	%rsi, %rdx
	movq	-184(%rbp), %rsi
	movq	(%rsi), %rdi
	movq	-24(%rdi), %rdi
	addq	%rdi, %rsi
	movq	%rsi, -72(%rbp)
	movq	-72(%rbp), %rsi
	movq	%rax, -288(%rbp)        ## 8-byte Spill
	movq	%rcx, -296(%rbp)        ## 8-byte Spill
	movq	%rdx, -304(%rbp)        ## 8-byte Spill
	movq	%rsi, -312(%rbp)        ## 8-byte Spill
	callq	__ZNSt3__111char_traitsIcE3eofEv
	movq	-312(%rbp), %rcx        ## 8-byte Reload
	movl	144(%rcx), %esi
	movl	%eax, %edi
	callq	__ZNSt3__111char_traitsIcE11eq_int_typeEii
	testb	$1, %al
	jne	LBB16_8
	jmp	LBB16_13
LBB16_8:
	movq	-312(%rbp), %rax        ## 8-byte Reload
	movq	%rax, -32(%rbp)
	movb	$32, -33(%rbp)
	movq	-32(%rbp), %rsi
Ltmp97:
	leaq	-48(%rbp), %rdi
	callq	__ZNKSt3__18ios_base6getlocEv
Ltmp98:
	jmp	LBB16_9
LBB16_9:                                ## %.noexc
	leaq	-48(%rbp), %rax
	movq	%rax, -24(%rbp)
Ltmp99:
	movq	__ZNSt3__15ctypeIcE2idE@GOTPCREL(%rip), %rsi
	movq	%rax, %rdi
	callq	__ZNKSt3__16locale9use_facetERNS0_2idE
Ltmp100:
	movq	%rax, -320(%rbp)        ## 8-byte Spill
	jmp	LBB16_10
LBB16_10:                               ## %_ZNSt3__19use_facetINS_5ctypeIcEEEERKT_RKNS_6localeE.exit.i.i
	movb	-33(%rbp), %al
	movq	-320(%rbp), %rcx        ## 8-byte Reload
	movq	%rcx, -8(%rbp)
	movb	%al, -9(%rbp)
	movq	-8(%rbp), %rdx
	movq	(%rdx), %rsi
	movq	56(%rsi), %rsi
	movsbl	-9(%rbp), %edi
Ltmp101:
	movl	%edi, -324(%rbp)        ## 4-byte Spill
	movq	%rdx, %rdi
	movl	-324(%rbp), %r8d        ## 4-byte Reload
	movq	%rsi, -336(%rbp)        ## 8-byte Spill
	movl	%r8d, %esi
	movq	-336(%rbp), %rdx        ## 8-byte Reload
	callq	*%rdx
Ltmp102:
	movb	%al, -337(%rbp)         ## 1-byte Spill
	jmp	LBB16_12
LBB16_11:
Ltmp103:
	movl	%edx, %ecx
	movq	%rax, -56(%rbp)
	movl	%ecx, -60(%rbp)
	leaq	-48(%rbp), %rdi
	callq	__ZNSt3__16localeD1Ev
	movq	-56(%rbp), %rax
	movl	-60(%rbp), %ecx
	movq	%rax, -352(%rbp)        ## 8-byte Spill
	movl	%ecx, -356(%rbp)        ## 4-byte Spill
	jmp	LBB16_21
LBB16_12:                               ## %_ZNKSt3__19basic_iosIcNS_11char_traitsIcEEE5widenEc.exit.i
	leaq	-48(%rbp), %rdi
	callq	__ZNSt3__16localeD1Ev
	movb	-337(%rbp), %al         ## 1-byte Reload
	movsbl	%al, %ecx
	movq	-312(%rbp), %rdi        ## 8-byte Reload
	movl	%ecx, 144(%rdi)
LBB16_13:                               ## %_ZNKSt3__19basic_iosIcNS_11char_traitsIcEEE4fillEv.exit
	movq	-312(%rbp), %rax        ## 8-byte Reload
	movl	144(%rax), %ecx
	movb	%cl, %dl
	movb	%dl, -357(%rbp)         ## 1-byte Spill
## BB#14:
	movq	-240(%rbp), %rdi
Ltmp104:
	movb	-357(%rbp), %al         ## 1-byte Reload
	movsbl	%al, %r9d
	movq	-264(%rbp), %rsi        ## 8-byte Reload
	movq	-288(%rbp), %rdx        ## 8-byte Reload
	movq	-296(%rbp), %rcx        ## 8-byte Reload
	movq	-304(%rbp), %r8         ## 8-byte Reload
	callq	__ZNSt3__116__pad_and_outputIcNS_11char_traitsIcEEEENS_19ostreambuf_iteratorIT_T0_EES6_PKS4_S8_S8_RNS_8ios_baseES4_
Ltmp105:
	movq	%rax, -368(%rbp)        ## 8-byte Spill
	jmp	LBB16_15
LBB16_15:
	leaq	-248(%rbp), %rax
	movq	-368(%rbp), %rcx        ## 8-byte Reload
	movq	%rcx, -248(%rbp)
	movq	%rax, -80(%rbp)
	movq	-80(%rbp), %rax
	cmpq	$0, (%rax)
	jne	LBB16_25
## BB#16:
	movq	-184(%rbp), %rax
	movq	(%rax), %rcx
	movq	-24(%rcx), %rcx
	addq	%rcx, %rax
	movq	%rax, -112(%rbp)
	movl	$5, -116(%rbp)
	movq	-112(%rbp), %rax
	movq	%rax, -96(%rbp)
	movl	$5, -100(%rbp)
	movq	-96(%rbp), %rax
	movl	32(%rax), %edx
	orl	$5, %edx
Ltmp106:
	movq	%rax, %rdi
	movl	%edx, %esi
	callq	__ZNSt3__18ios_base5clearEj
Ltmp107:
	jmp	LBB16_17
LBB16_17:                               ## %_ZNSt3__19basic_iosIcNS_11char_traitsIcEEE8setstateEj.exit
	jmp	LBB16_18
LBB16_18:
	jmp	LBB16_25
LBB16_19:
Ltmp96:
	movl	%edx, %ecx
	movq	%rax, -224(%rbp)
	movl	%ecx, -228(%rbp)
	jmp	LBB16_22
LBB16_20:
Ltmp108:
	movl	%edx, %ecx
	movq	%rax, -352(%rbp)        ## 8-byte Spill
	movl	%ecx, -356(%rbp)        ## 4-byte Spill
	jmp	LBB16_21
LBB16_21:                               ## %.body
	movl	-356(%rbp), %eax        ## 4-byte Reload
	movq	-352(%rbp), %rcx        ## 8-byte Reload
	leaq	-216(%rbp), %rdi
	movq	%rcx, -224(%rbp)
	movl	%eax, -228(%rbp)
	callq	__ZNSt3__113basic_ostreamIcNS_11char_traitsIcEEE6sentryD1Ev
LBB16_22:
	movq	-224(%rbp), %rdi
	callq	___cxa_begin_catch
	movq	-184(%rbp), %rdi
	movq	(%rdi), %rcx
	movq	-24(%rcx), %rcx
	addq	%rcx, %rdi
Ltmp109:
	movq	%rax, -376(%rbp)        ## 8-byte Spill
	callq	__ZNSt3__18ios_base33__set_badbit_and_consider_rethrowEv
Ltmp110:
	jmp	LBB16_23
LBB16_23:
	callq	___cxa_end_catch
LBB16_24:
	movq	-184(%rbp), %rax
	addq	$384, %rsp              ## imm = 0x180
	popq	%rbp
	retq
LBB16_25:
	jmp	LBB16_26
LBB16_26:
	leaq	-216(%rbp), %rdi
	callq	__ZNSt3__113basic_ostreamIcNS_11char_traitsIcEEE6sentryD1Ev
	jmp	LBB16_24
LBB16_27:
Ltmp111:
	movl	%edx, %ecx
	movq	%rax, -224(%rbp)
	movl	%ecx, -228(%rbp)
Ltmp112:
	callq	___cxa_end_catch
Ltmp113:
	jmp	LBB16_28
LBB16_28:
	jmp	LBB16_29
LBB16_29:
	movq	-224(%rbp), %rdi
	callq	__Unwind_Resume
LBB16_30:
Ltmp114:
	movl	%edx, %ecx
	movq	%rax, %rdi
	movl	%ecx, -380(%rbp)        ## 4-byte Spill
	callq	___clang_call_terminate
Lfunc_end16:
	.cfi_endproc
	.section	__TEXT,__gcc_except_tab
	.align	2
GCC_except_table16:
Lexception16:
	.byte	255                     ## @LPStart Encoding = omit
	.byte	155                     ## @TType Encoding = indirect pcrel sdata4
	.asciz	"\201\201\200\200"      ## @TType base offset
	.byte	3                       ## Call site Encoding = udata4
	.byte	117                     ## Call site table length
Lset19 = Ltmp94-Lfunc_begin16           ## >> Call Site 1 <<
	.long	Lset19
Lset20 = Ltmp95-Ltmp94                  ##   Call between Ltmp94 and Ltmp95
	.long	Lset20
Lset21 = Ltmp96-Lfunc_begin16           ##     jumps to Ltmp96
	.long	Lset21
	.byte	5                       ##   On action: 3
Lset22 = Ltmp97-Lfunc_begin16           ## >> Call Site 2 <<
	.long	Lset22
Lset23 = Ltmp98-Ltmp97                  ##   Call between Ltmp97 and Ltmp98
	.long	Lset23
Lset24 = Ltmp108-Lfunc_begin16          ##     jumps to Ltmp108
	.long	Lset24
	.byte	5                       ##   On action: 3
Lset25 = Ltmp99-Lfunc_begin16           ## >> Call Site 3 <<
	.long	Lset25
Lset26 = Ltmp102-Ltmp99                 ##   Call between Ltmp99 and Ltmp102
	.long	Lset26
Lset27 = Ltmp103-Lfunc_begin16          ##     jumps to Ltmp103
	.long	Lset27
	.byte	3                       ##   On action: 2
Lset28 = Ltmp104-Lfunc_begin16          ## >> Call Site 4 <<
	.long	Lset28
Lset29 = Ltmp107-Ltmp104                ##   Call between Ltmp104 and Ltmp107
	.long	Lset29
Lset30 = Ltmp108-Lfunc_begin16          ##     jumps to Ltmp108
	.long	Lset30
	.byte	5                       ##   On action: 3
Lset31 = Ltmp107-Lfunc_begin16          ## >> Call Site 5 <<
	.long	Lset31
Lset32 = Ltmp109-Ltmp107                ##   Call between Ltmp107 and Ltmp109
	.long	Lset32
	.long	0                       ##     has no landing pad
	.byte	0                       ##   On action: cleanup
Lset33 = Ltmp109-Lfunc_begin16          ## >> Call Site 6 <<
	.long	Lset33
Lset34 = Ltmp110-Ltmp109                ##   Call between Ltmp109 and Ltmp110
	.long	Lset34
Lset35 = Ltmp111-Lfunc_begin16          ##     jumps to Ltmp111
	.long	Lset35
	.byte	0                       ##   On action: cleanup
Lset36 = Ltmp110-Lfunc_begin16          ## >> Call Site 7 <<
	.long	Lset36
Lset37 = Ltmp112-Ltmp110                ##   Call between Ltmp110 and Ltmp112
	.long	Lset37
	.long	0                       ##     has no landing pad
	.byte	0                       ##   On action: cleanup
Lset38 = Ltmp112-Lfunc_begin16          ## >> Call Site 8 <<
	.long	Lset38
Lset39 = Ltmp113-Ltmp112                ##   Call between Ltmp112 and Ltmp113
	.long	Lset39
Lset40 = Ltmp114-Lfunc_begin16          ##     jumps to Ltmp114
	.long	Lset40
	.byte	5                       ##   On action: 3
Lset41 = Ltmp113-Lfunc_begin16          ## >> Call Site 9 <<
	.long	Lset41
Lset42 = Lfunc_end16-Ltmp113            ##   Call between Ltmp113 and Lfunc_end16
	.long	Lset42
	.long	0                       ##     has no landing pad
	.byte	0                       ##   On action: cleanup
	.byte	0                       ## >> Action Record 1 <<
                                        ##   Cleanup
	.byte	0                       ##   No further actions
	.byte	1                       ## >> Action Record 2 <<
                                        ##   Catch TypeInfo 1
	.byte	125                     ##   Continue to action 1
	.byte	1                       ## >> Action Record 3 <<
                                        ##   Catch TypeInfo 1
	.byte	0                       ##   No further actions
                                        ## >> Catch TypeInfos <<
	.long	0                       ## TypeInfo 1
	.align	2

	.section	__TEXT,__textcoal_nt,coalesced,pure_instructions
	.private_extern	__ZNSt3__116__pad_and_outputIcNS_11char_traitsIcEEEENS_19ostreambuf_iteratorIT_T0_EES6_PKS4_S8_S8_RNS_8ios_baseES4_
	.globl	__ZNSt3__116__pad_and_outputIcNS_11char_traitsIcEEEENS_19ostreambuf_iteratorIT_T0_EES6_PKS4_S8_S8_RNS_8ios_baseES4_
	.weak_def_can_be_hidden	__ZNSt3__116__pad_and_outputIcNS_11char_traitsIcEEEENS_19ostreambuf_iteratorIT_T0_EES6_PKS4_S8_S8_RNS_8ios_baseES4_
	.align	4, 0x90
__ZNSt3__116__pad_and_outputIcNS_11char_traitsIcEEEENS_19ostreambuf_iteratorIT_T0_EES6_PKS4_S8_S8_RNS_8ios_baseES4_: ## @_ZNSt3__116__pad_and_outputIcNS_11char_traitsIcEEEENS_19ostreambuf_iteratorIT_T0_EES6_PKS4_S8_S8_RNS_8ios_baseES4_
Lfunc_begin17:
	.cfi_startproc
	.cfi_personality 155, ___gxx_personality_v0
	.cfi_lsda 16, Lexception17
## BB#0:
	pushq	%rbp
Ltmp121:
	.cfi_def_cfa_offset 16
Ltmp122:
	.cfi_offset %rbp, -16
	movq	%rsp, %rbp
Ltmp123:
	.cfi_def_cfa_register %rbp
	subq	$480, %rsp              ## imm = 0x1E0
	movb	%r9b, %al
	movq	%rdi, -312(%rbp)
	movq	%rsi, -320(%rbp)
	movq	%rdx, -328(%rbp)
	movq	%rcx, -336(%rbp)
	movq	%r8, -344(%rbp)
	movb	%al, -345(%rbp)
	cmpq	$0, -312(%rbp)
	jne	LBB17_2
## BB#1:
	movq	-312(%rbp), %rax
	movq	%rax, -304(%rbp)
	jmp	LBB17_26
LBB17_2:
	movq	-336(%rbp), %rax
	movq	-320(%rbp), %rcx
	subq	%rcx, %rax
	movq	%rax, -360(%rbp)
	movq	-344(%rbp), %rax
	movq	%rax, -296(%rbp)
	movq	-296(%rbp), %rax
	movq	24(%rax), %rax
	movq	%rax, -368(%rbp)
	movq	-368(%rbp), %rax
	cmpq	-360(%rbp), %rax
	jle	LBB17_4
## BB#3:
	movq	-360(%rbp), %rax
	movq	-368(%rbp), %rcx
	subq	%rax, %rcx
	movq	%rcx, -368(%rbp)
	jmp	LBB17_5
LBB17_4:
	movq	$0, -368(%rbp)
LBB17_5:
	movq	-328(%rbp), %rax
	movq	-320(%rbp), %rcx
	subq	%rcx, %rax
	movq	%rax, -376(%rbp)
	cmpq	$0, -376(%rbp)
	jle	LBB17_9
## BB#6:
	movq	-312(%rbp), %rax
	movq	-320(%rbp), %rcx
	movq	-376(%rbp), %rdx
	movq	%rax, -224(%rbp)
	movq	%rcx, -232(%rbp)
	movq	%rdx, -240(%rbp)
	movq	-224(%rbp), %rax
	movq	(%rax), %rcx
	movq	96(%rcx), %rcx
	movq	-232(%rbp), %rsi
	movq	-240(%rbp), %rdx
	movq	%rax, %rdi
	callq	*%rcx
	cmpq	-376(%rbp), %rax
	je	LBB17_8
## BB#7:
	movq	$0, -312(%rbp)
	movq	-312(%rbp), %rax
	movq	%rax, -304(%rbp)
	jmp	LBB17_26
LBB17_8:
	jmp	LBB17_9
LBB17_9:
	cmpq	$0, -368(%rbp)
	jle	LBB17_21
## BB#10:
	leaq	-400(%rbp), %rax
	movq	-368(%rbp), %rcx
	movb	-345(%rbp), %dl
	movq	%rax, -200(%rbp)
	movq	%rcx, -208(%rbp)
	movb	%dl, -209(%rbp)
	movq	-200(%rbp), %rax
	movq	-208(%rbp), %rcx
	movb	-209(%rbp), %dl
	movq	%rax, -176(%rbp)
	movq	%rcx, -184(%rbp)
	movb	%dl, -185(%rbp)
	movq	-176(%rbp), %rax
	movq	%rax, -168(%rbp)
	movq	-168(%rbp), %rcx
	movq	%rcx, -160(%rbp)
	movq	-160(%rbp), %rcx
	movq	%rcx, -152(%rbp)
	movq	-152(%rbp), %rcx
	movq	%rcx, -144(%rbp)
	movq	-184(%rbp), %rsi
	movq	%rax, %rdi
	movsbl	-185(%rbp), %edx
	callq	__ZNSt3__112basic_stringIcNS_11char_traitsIcEENS_9allocatorIcEEE6__initEmc
	leaq	-400(%rbp), %rax
	movq	-312(%rbp), %rcx
	movq	%rax, -136(%rbp)
	movq	-136(%rbp), %rax
	movq	%rax, -128(%rbp)
	movq	-128(%rbp), %rax
	movq	%rax, -120(%rbp)
	movq	-120(%rbp), %rsi
	movq	%rsi, -112(%rbp)
	movq	-112(%rbp), %rsi
	movq	%rsi, -104(%rbp)
	movq	-104(%rbp), %rsi
	movzbl	(%rsi), %edx
	andl	$1, %edx
	cmpl	$0, %edx
	movq	%rcx, -424(%rbp)        ## 8-byte Spill
	movq	%rax, -432(%rbp)        ## 8-byte Spill
	je	LBB17_12
## BB#11:
	movq	-432(%rbp), %rax        ## 8-byte Reload
	movq	%rax, -56(%rbp)
	movq	-56(%rbp), %rcx
	movq	%rcx, -48(%rbp)
	movq	-48(%rbp), %rcx
	movq	%rcx, -40(%rbp)
	movq	-40(%rbp), %rcx
	movq	16(%rcx), %rcx
	movq	%rcx, -440(%rbp)        ## 8-byte Spill
	jmp	LBB17_13
LBB17_12:
	movq	-432(%rbp), %rax        ## 8-byte Reload
	movq	%rax, -96(%rbp)
	movq	-96(%rbp), %rcx
	movq	%rcx, -88(%rbp)
	movq	-88(%rbp), %rcx
	movq	%rcx, -80(%rbp)
	movq	-80(%rbp), %rcx
	addq	$1, %rcx
	movq	%rcx, -72(%rbp)
	movq	-72(%rbp), %rcx
	movq	%rcx, -64(%rbp)
	movq	-64(%rbp), %rcx
	movq	%rcx, -440(%rbp)        ## 8-byte Spill
LBB17_13:                               ## %_ZNKSt3__112basic_stringIcNS_11char_traitsIcEENS_9allocatorIcEEE4dataEv.exit
	movq	-440(%rbp), %rax        ## 8-byte Reload
	movq	%rax, -32(%rbp)
	movq	-368(%rbp), %rcx
	movq	-424(%rbp), %rdx        ## 8-byte Reload
	movq	%rdx, -8(%rbp)
	movq	%rax, -16(%rbp)
	movq	%rcx, -24(%rbp)
	movq	-8(%rbp), %rax
	movq	(%rax), %rsi
	movq	96(%rsi), %rsi
	movq	-16(%rbp), %rdi
Ltmp118:
	movq	%rdi, -448(%rbp)        ## 8-byte Spill
	movq	%rax, %rdi
	movq	-448(%rbp), %rax        ## 8-byte Reload
	movq	%rsi, -456(%rbp)        ## 8-byte Spill
	movq	%rax, %rsi
	movq	%rcx, %rdx
	movq	-456(%rbp), %rcx        ## 8-byte Reload
	callq	*%rcx
Ltmp119:
	movq	%rax, -464(%rbp)        ## 8-byte Spill
	jmp	LBB17_14
LBB17_14:                               ## %_ZNSt3__115basic_streambufIcNS_11char_traitsIcEEE5sputnEPKcl.exit
	jmp	LBB17_15
LBB17_15:
	movq	-464(%rbp), %rax        ## 8-byte Reload
	cmpq	-368(%rbp), %rax
	je	LBB17_18
## BB#16:
	movq	$0, -312(%rbp)
	movq	-312(%rbp), %rax
	movq	%rax, -304(%rbp)
	movl	$1, -416(%rbp)
	jmp	LBB17_19
LBB17_17:
Ltmp120:
	leaq	-400(%rbp), %rdi
	movl	%edx, %ecx
	movq	%rax, -408(%rbp)
	movl	%ecx, -412(%rbp)
	callq	__ZNSt3__112basic_stringIcNS_11char_traitsIcEENS_9allocatorIcEEED1Ev
	jmp	LBB17_27
LBB17_18:
	movl	$0, -416(%rbp)
LBB17_19:
	leaq	-400(%rbp), %rdi
	callq	__ZNSt3__112basic_stringIcNS_11char_traitsIcEENS_9allocatorIcEEED1Ev
	movl	-416(%rbp), %eax
	subl	$1, %eax
	movl	%eax, -468(%rbp)        ## 4-byte Spill
	je	LBB17_26
	jmp	LBB17_20
LBB17_20:
	jmp	LBB17_21
LBB17_21:
	movq	-336(%rbp), %rax
	movq	-328(%rbp), %rcx
	subq	%rcx, %rax
	movq	%rax, -376(%rbp)
	cmpq	$0, -376(%rbp)
	jle	LBB17_25
## BB#22:
	movq	-312(%rbp), %rax
	movq	-328(%rbp), %rcx
	movq	-376(%rbp), %rdx
	movq	%rax, -248(%rbp)
	movq	%rcx, -256(%rbp)
	movq	%rdx, -264(%rbp)
	movq	-248(%rbp), %rax
	movq	(%rax), %rcx
	movq	96(%rcx), %rcx
	movq	-256(%rbp), %rsi
	movq	-264(%rbp), %rdx
	movq	%rax, %rdi
	callq	*%rcx
	cmpq	-376(%rbp), %rax
	je	LBB17_24
## BB#23:
	movq	$0, -312(%rbp)
	movq	-312(%rbp), %rax
	movq	%rax, -304(%rbp)
	jmp	LBB17_26
LBB17_24:
	jmp	LBB17_25
LBB17_25:
	movq	-344(%rbp), %rax
	movq	%rax, -272(%rbp)
	movq	$0, -280(%rbp)
	movq	-272(%rbp), %rax
	movq	24(%rax), %rcx
	movq	%rcx, -288(%rbp)
	movq	-280(%rbp), %rcx
	movq	%rcx, 24(%rax)
	movq	-312(%rbp), %rax
	movq	%rax, -304(%rbp)
LBB17_26:
	movq	-304(%rbp), %rax
	addq	$480, %rsp              ## imm = 0x1E0
	popq	%rbp
	retq
LBB17_27:
	movq	-408(%rbp), %rdi
	callq	__Unwind_Resume
## BB#28:
Lfunc_end17:
	.cfi_endproc
	.section	__TEXT,__gcc_except_tab
	.align	2
GCC_except_table17:
Lexception17:
	.byte	255                     ## @LPStart Encoding = omit
	.byte	155                     ## @TType Encoding = indirect pcrel sdata4
	.byte	41                      ## @TType base offset
	.byte	3                       ## Call site Encoding = udata4
	.byte	39                      ## Call site table length
Lset43 = Lfunc_begin17-Lfunc_begin17    ## >> Call Site 1 <<
	.long	Lset43
Lset44 = Ltmp118-Lfunc_begin17          ##   Call between Lfunc_begin17 and Ltmp118
	.long	Lset44
	.long	0                       ##     has no landing pad
	.byte	0                       ##   On action: cleanup
Lset45 = Ltmp118-Lfunc_begin17          ## >> Call Site 2 <<
	.long	Lset45
Lset46 = Ltmp119-Ltmp118                ##   Call between Ltmp118 and Ltmp119
	.long	Lset46
Lset47 = Ltmp120-Lfunc_begin17          ##     jumps to Ltmp120
	.long	Lset47
	.byte	0                       ##   On action: cleanup
Lset48 = Ltmp119-Lfunc_begin17          ## >> Call Site 3 <<
	.long	Lset48
Lset49 = Lfunc_end17-Ltmp119            ##   Call between Ltmp119 and Lfunc_end17
	.long	Lset49
	.long	0                       ##     has no landing pad
	.byte	0                       ##   On action: cleanup
	.align	2

	.section	__TEXT,__textcoal_nt,coalesced,pure_instructions
	.globl	__ZNSt3__111char_traitsIcE11eq_int_typeEii
	.weak_def_can_be_hidden	__ZNSt3__111char_traitsIcE11eq_int_typeEii
	.align	4, 0x90
__ZNSt3__111char_traitsIcE11eq_int_typeEii: ## @_ZNSt3__111char_traitsIcE11eq_int_typeEii
	.cfi_startproc
## BB#0:
	pushq	%rbp
Ltmp124:
	.cfi_def_cfa_offset 16
Ltmp125:
	.cfi_offset %rbp, -16
	movq	%rsp, %rbp
Ltmp126:
	.cfi_def_cfa_register %rbp
	movl	%edi, -4(%rbp)
	movl	%esi, -8(%rbp)
	movl	-4(%rbp), %esi
	cmpl	-8(%rbp), %esi
	sete	%al
	andb	$1, %al
	movzbl	%al, %eax
	popq	%rbp
	retq
	.cfi_endproc

	.globl	__ZNSt3__111char_traitsIcE3eofEv
	.weak_def_can_be_hidden	__ZNSt3__111char_traitsIcE3eofEv
	.align	4, 0x90
__ZNSt3__111char_traitsIcE3eofEv:       ## @_ZNSt3__111char_traitsIcE3eofEv
	.cfi_startproc
## BB#0:
	pushq	%rbp
Ltmp127:
	.cfi_def_cfa_offset 16
Ltmp128:
	.cfi_offset %rbp, -16
	movq	%rsp, %rbp
Ltmp129:
	.cfi_def_cfa_register %rbp
	movl	$4294967295, %eax       ## imm = 0xFFFFFFFF
	popq	%rbp
	retq
	.cfi_endproc

	.globl	__ZNSt3__111char_traitsIcE6lengthEPKc
	.weak_def_can_be_hidden	__ZNSt3__111char_traitsIcE6lengthEPKc
	.align	4, 0x90
__ZNSt3__111char_traitsIcE6lengthEPKc:  ## @_ZNSt3__111char_traitsIcE6lengthEPKc
	.cfi_startproc
## BB#0:
	pushq	%rbp
Ltmp130:
	.cfi_def_cfa_offset 16
Ltmp131:
	.cfi_offset %rbp, -16
	movq	%rsp, %rbp
Ltmp132:
	.cfi_def_cfa_register %rbp
	subq	$16, %rsp
	movq	%rdi, -8(%rbp)
	movq	-8(%rbp), %rdi
	callq	_strlen
	addq	$16, %rsp
	popq	%rbp
	retq
	.cfi_endproc

	.globl	__ZNSt3__112__hash_tableIiNS_4hashIiEENS_8equal_toIiEENS_9allocatorIiEEE4findIiEENS_15__hash_iteratorIPNS_11__hash_nodeIiPvEEEERKT_
	.weak_def_can_be_hidden	__ZNSt3__112__hash_tableIiNS_4hashIiEENS_8equal_toIiEENS_9allocatorIiEEE4findIiEENS_15__hash_iteratorIPNS_11__hash_nodeIiPvEEEERKT_
	.align	4, 0x90
__ZNSt3__112__hash_tableIiNS_4hashIiEENS_8equal_toIiEENS_9allocatorIiEEE4findIiEENS_15__hash_iteratorIPNS_11__hash_nodeIiPvEEEERKT_: ## @_ZNSt3__112__hash_tableIiNS_4hashIiEENS_8equal_toIiEENS_9allocatorIiEEE4findIiEENS_15__hash_iteratorIPNS_11__hash_nodeIiPvEEEERKT_
	.cfi_startproc
## BB#0:
	pushq	%rbp
Ltmp133:
	.cfi_def_cfa_offset 16
Ltmp134:
	.cfi_offset %rbp, -16
	movq	%rsp, %rbp
Ltmp135:
	.cfi_def_cfa_register %rbp
	subq	$248, %rsp
	movq	%rdi, -304(%rbp)
	movq	%rsi, -312(%rbp)
	movq	-304(%rbp), %rsi
	movq	%rsi, -288(%rbp)
	movq	-288(%rbp), %rdi
	addq	$24, %rdi
	movq	%rdi, -280(%rbp)
	movq	-280(%rbp), %rdi
	movq	%rdi, -272(%rbp)
	movq	-272(%rbp), %rdi
	movq	-312(%rbp), %rax
	movl	(%rax), %ecx
	movq	%rdi, -8(%rbp)
	movl	%ecx, -12(%rbp)
	movslq	-12(%rbp), %rax
	movq	%rax, -320(%rbp)
	movq	%rsi, -72(%rbp)
	movq	-72(%rbp), %rax
	movq	%rax, -64(%rbp)
	movq	-64(%rbp), %rax
	movq	%rax, -56(%rbp)
	movq	-56(%rbp), %rax
	movq	%rax, -48(%rbp)
	movq	-48(%rbp), %rax
	addq	$8, %rax
	movq	%rax, -40(%rbp)
	movq	-40(%rbp), %rax
	movq	%rax, -32(%rbp)
	movq	-32(%rbp), %rax
	movq	%rax, -24(%rbp)
	movq	-24(%rbp), %rax
	movq	(%rax), %rax
	movq	%rax, -328(%rbp)
	cmpq	$0, -328(%rbp)
	movq	%rsi, -352(%rbp)        ## 8-byte Spill
	je	LBB21_18
## BB#1:
	movq	-320(%rbp), %rax
	movq	-328(%rbp), %rcx
	movq	%rax, -80(%rbp)
	movq	%rcx, -88(%rbp)
	movq	-88(%rbp), %rax
	movq	-88(%rbp), %rcx
	subq	$1, %rcx
	andq	%rcx, %rax
	cmpq	$0, %rax
	jne	LBB21_3
## BB#2:
	movq	-80(%rbp), %rax
	movq	-88(%rbp), %rcx
	subq	$1, %rcx
	andq	%rcx, %rax
	movq	%rax, -360(%rbp)        ## 8-byte Spill
	jmp	LBB21_4
LBB21_3:
	movq	-80(%rbp), %rax
	xorl	%ecx, %ecx
	movl	%ecx, %edx
	divq	-88(%rbp)
	movq	%rdx, -360(%rbp)        ## 8-byte Spill
LBB21_4:                                ## %_ZNSt3__116__constrain_hashEmm.exit1
	movq	-360(%rbp), %rax        ## 8-byte Reload
	movq	%rax, -336(%rbp)
	movq	-336(%rbp), %rax
	movq	-352(%rbp), %rcx        ## 8-byte Reload
	movq	%rcx, -112(%rbp)
	movq	%rax, -120(%rbp)
	movq	-112(%rbp), %rax
	movq	-120(%rbp), %rdx
	movq	%rax, -104(%rbp)
	movq	-104(%rbp), %rax
	movq	%rax, -96(%rbp)
	movq	-96(%rbp), %rax
	movq	(%rax), %rax
	movq	(%rax,%rdx,8), %rax
	movq	%rax, -344(%rbp)
	cmpq	$0, -344(%rbp)
	je	LBB21_17
## BB#5:
	movq	-344(%rbp), %rax
	movq	(%rax), %rax
	movq	%rax, -344(%rbp)
LBB21_6:                                ## =>This Inner Loop Header: Depth=1
	xorl	%eax, %eax
	movb	%al, %cl
	cmpq	$0, -344(%rbp)
	movb	%cl, -361(%rbp)         ## 1-byte Spill
	je	LBB21_11
## BB#7:                                ##   in Loop: Header=BB21_6 Depth=1
	movq	-344(%rbp), %rax
	movq	8(%rax), %rax
	movq	-328(%rbp), %rcx
	movq	%rax, -128(%rbp)
	movq	%rcx, -136(%rbp)
	movq	-136(%rbp), %rax
	movq	-136(%rbp), %rcx
	subq	$1, %rcx
	andq	%rcx, %rax
	cmpq	$0, %rax
	jne	LBB21_9
## BB#8:                                ##   in Loop: Header=BB21_6 Depth=1
	movq	-128(%rbp), %rax
	movq	-136(%rbp), %rcx
	subq	$1, %rcx
	andq	%rcx, %rax
	movq	%rax, -376(%rbp)        ## 8-byte Spill
	jmp	LBB21_10
LBB21_9:                                ##   in Loop: Header=BB21_6 Depth=1
	movq	-128(%rbp), %rax
	xorl	%ecx, %ecx
	movl	%ecx, %edx
	divq	-136(%rbp)
	movq	%rdx, -376(%rbp)        ## 8-byte Spill
LBB21_10:                               ## %_ZNSt3__116__constrain_hashEmm.exit
                                        ##   in Loop: Header=BB21_6 Depth=1
	movq	-376(%rbp), %rax        ## 8-byte Reload
	cmpq	-336(%rbp), %rax
	sete	%cl
	movb	%cl, -361(%rbp)         ## 1-byte Spill
LBB21_11:                               ##   in Loop: Header=BB21_6 Depth=1
	movb	-361(%rbp), %al         ## 1-byte Reload
	testb	$1, %al
	jne	LBB21_12
	jmp	LBB21_16
LBB21_12:                               ##   in Loop: Header=BB21_6 Depth=1
	movq	-352(%rbp), %rax        ## 8-byte Reload
	movq	%rax, -160(%rbp)
	movq	-160(%rbp), %rcx
	addq	$32, %rcx
	movq	%rcx, -152(%rbp)
	movq	-152(%rbp), %rcx
	movq	%rcx, -144(%rbp)
	movq	-144(%rbp), %rcx
	movq	-344(%rbp), %rdx
	addq	$16, %rdx
	movq	-312(%rbp), %rsi
	movq	%rcx, -168(%rbp)
	movq	%rdx, -176(%rbp)
	movq	%rsi, -184(%rbp)
	movq	-176(%rbp), %rcx
	movl	(%rcx), %edi
	movq	-184(%rbp), %rcx
	cmpl	(%rcx), %edi
	jne	LBB21_14
## BB#13:
	leaq	-296(%rbp), %rax
	movq	-344(%rbp), %rcx
	movq	%rax, -208(%rbp)
	movq	%rcx, -216(%rbp)
	movq	-208(%rbp), %rax
	movq	-216(%rbp), %rcx
	movq	%rax, -192(%rbp)
	movq	%rcx, -200(%rbp)
	movq	-192(%rbp), %rax
	movq	-200(%rbp), %rcx
	movq	%rcx, (%rax)
	jmp	LBB21_19
LBB21_14:                               ##   in Loop: Header=BB21_6 Depth=1
	jmp	LBB21_15
LBB21_15:                               ##   in Loop: Header=BB21_6 Depth=1
	movq	-344(%rbp), %rax
	movq	(%rax), %rax
	movq	%rax, -344(%rbp)
	jmp	LBB21_6
LBB21_16:
	jmp	LBB21_17
LBB21_17:
	jmp	LBB21_18
LBB21_18:
	leaq	-256(%rbp), %rax
	movq	-352(%rbp), %rcx        ## 8-byte Reload
	movq	%rcx, -264(%rbp)
	movq	%rax, -240(%rbp)
	movq	$0, -248(%rbp)
	movq	-240(%rbp), %rax
	movq	-248(%rbp), %rdx
	movq	%rax, -224(%rbp)
	movq	%rdx, -232(%rbp)
	movq	-224(%rbp), %rax
	movq	-232(%rbp), %rdx
	movq	%rdx, (%rax)
	movq	-256(%rbp), %rax
	movq	%rax, -296(%rbp)
LBB21_19:
	movq	-296(%rbp), %rax
	addq	$248, %rsp
	popq	%rbp
	retq
	.cfi_endproc

	.section	__TEXT,__cstring,cstring_literals
L_.str:                                 ## @.str
	.asciz	"Enter int you want to check for existance in set: "

L_.str1:                                ## @.str1
	.asciz	" found in set"

L_.str2:                                ## @.str2
	.asciz	" not available in set"

L_.str3:                                ## @.str3
	.asciz	"Number of elements, size() = "

L_.str4:                                ## @.str4
	.asciz	"Max bucket count = "

L_.str5:                                ## @.str5
	.asciz	"Load factor: "

L_.str6:                                ## @.str6
	.asciz	"Max load factor = "

L_.str7:                                ## @.str7
	.asciz	"Uordered set contains: "


.subsections_via_symbols
