	.section	__TEXT,__text,regular,pure_instructions
	.macosx_version_min 10, 10
	.globl	_main
	.align	4, 0x90
_main:                                  ## @main
Lfunc_begin0:
	.cfi_startproc
	.cfi_personality 155, ___gxx_personality_v0
	.cfi_lsda 16, Lexception0
## BB#0:
	pushq	%rbp
Ltmp27:
	.cfi_def_cfa_offset 16
Ltmp28:
	.cfi_offset %rbp, -16
	movq	%rsp, %rbp
Ltmp29:
	.cfi_def_cfa_register %rbp
	subq	$1600, %rsp             ## imm = 0x640
	leaq	-1444(%rbp), %rax
	leaq	-1440(%rbp), %rcx
	leaq	-1336(%rbp), %rdx
	leaq	-1360(%rbp), %rsi
	movl	$0, -1412(%rbp)
	movq	%rcx, -1408(%rbp)
	movq	-1408(%rbp), %rdi
	movq	%rdi, -1400(%rbp)
	movq	-1400(%rbp), %rdi
	movq	%rdi, -1392(%rbp)
	movq	-1392(%rbp), %rdi
	movq	%rdi, %r8
	movq	%r8, -1384(%rbp)
	movq	$0, (%rdi)
	movq	$0, 8(%rdi)
	addq	$16, %rdi
	movq	%rdi, -1368(%rbp)
	movq	$0, -1376(%rbp)
	movq	-1368(%rbp), %rdi
	movq	-1376(%rbp), %r8
	movq	%rdi, -1352(%rbp)
	movq	%r8, -1360(%rbp)
	movq	-1352(%rbp), %rdi
	movq	%rsi, -1344(%rbp)
	movq	-1344(%rbp), %rsi
	movq	(%rsi), %rsi
	movq	%rdi, -1328(%rbp)
	movq	%rsi, -1336(%rbp)
	movq	-1328(%rbp), %rsi
	movq	%rsi, %rdi
	movq	%rdi, -1320(%rbp)
	movq	%rdx, -1312(%rbp)
	movq	-1312(%rbp), %rdx
	movq	(%rdx), %rdx
	movq	%rdx, (%rsi)
	movl	$50, -1444(%rbp)
	movq	%rcx, -1288(%rbp)
	movq	%rax, -1296(%rbp)
	movq	-1288(%rbp), %rax
	movq	8(%rax), %rcx
	movq	%rax, %rdx
	movq	%rdx, -1280(%rbp)
	movq	-1280(%rbp), %rdx
	addq	$16, %rdx
	movq	%rdx, -1272(%rbp)
	movq	-1272(%rbp), %rdx
	movq	%rdx, -1264(%rbp)
	movq	-1264(%rbp), %rdx
	cmpq	(%rdx), %rcx
	movq	%rax, -1528(%rbp)       ## 8-byte Spill
	jae	LBB0_3
## BB#1:
Ltmp2:
	movl	$1, %eax
	movl	%eax, %edx
	leaq	-1304(%rbp), %rdi
	movq	-1528(%rbp), %rsi       ## 8-byte Reload
	callq	__ZNSt3__16vectorIiNS_9allocatorIiEEE24__RAII_IncreaseAnnotatorC1ERKS3_m
Ltmp3:
	jmp	LBB0_2
LBB0_2:                                 ## %.noexc
	leaq	-1304(%rbp), %rdi
	movq	-1528(%rbp), %rax       ## 8-byte Reload
	movq	%rax, -1256(%rbp)
	movq	-1256(%rbp), %rax
	addq	$16, %rax
	movq	%rax, -1248(%rbp)
	movq	-1248(%rbp), %rax
	movq	%rax, -1240(%rbp)
	movq	-1240(%rbp), %rax
	movq	-1528(%rbp), %rcx       ## 8-byte Reload
	movq	8(%rcx), %rdx
	movq	%rdx, -1224(%rbp)
	movq	-1224(%rbp), %rdx
	movq	-1296(%rbp), %rsi
	movq	%rsi, -1096(%rbp)
	movq	-1096(%rbp), %rsi
	movq	%rax, -1184(%rbp)
	movq	%rdx, -1192(%rbp)
	movq	%rsi, -1200(%rbp)
	movq	-1184(%rbp), %rax
	movq	-1192(%rbp), %rdx
	movq	-1200(%rbp), %rsi
	movq	%rsi, -1176(%rbp)
	movq	-1176(%rbp), %rsi
	movq	%rax, -1152(%rbp)
	movq	%rdx, -1160(%rbp)
	movq	%rsi, -1168(%rbp)
	movq	-1152(%rbp), %rax
	movq	-1160(%rbp), %rdx
	movq	-1168(%rbp), %rsi
	movq	%rsi, -1136(%rbp)
	movq	-1136(%rbp), %rsi
	movq	%rax, -1112(%rbp)
	movq	%rdx, -1120(%rbp)
	movq	%rsi, -1128(%rbp)
	movq	-1120(%rbp), %rax
	movq	-1128(%rbp), %rdx
	movq	%rdx, -1104(%rbp)
	movq	-1104(%rbp), %rdx
	movl	(%rdx), %r8d
	movl	%r8d, (%rax)
	callq	__ZNSt3__16vectorIiNS_9allocatorIiEEE24__RAII_IncreaseAnnotator6__doneEv
	movq	-1528(%rbp), %rax       ## 8-byte Reload
	movq	8(%rax), %rcx
	addq	$4, %rcx
	movq	%rcx, 8(%rax)
	jmp	LBB0_5
LBB0_3:
	movq	-1296(%rbp), %rax
	movq	%rax, -1232(%rbp)
Ltmp0:
	movq	-1528(%rbp), %rdi       ## 8-byte Reload
	movq	%rax, %rsi
	callq	__ZNSt3__16vectorIiNS_9allocatorIiEEE21__push_back_slow_pathIiEEvOT_
Ltmp1:
	jmp	LBB0_4
LBB0_4:                                 ## %.noexc1
	jmp	LBB0_5
LBB0_5:                                 ## %_ZNSt3__16vectorIiNS_9allocatorIiEEE9push_backEOi.exit
	jmp	LBB0_6
LBB0_6:
	leaq	-1464(%rbp), %rax
	leaq	-1440(%rbp), %rcx
	movl	$1, -1464(%rbp)
	movq	%rcx, -1072(%rbp)
	movq	%rax, -1080(%rbp)
	movq	-1072(%rbp), %rax
	movq	8(%rax), %rcx
	movq	%rax, %rdx
	movq	%rdx, -1064(%rbp)
	movq	-1064(%rbp), %rdx
	addq	$16, %rdx
	movq	%rdx, -1056(%rbp)
	movq	-1056(%rbp), %rdx
	movq	%rdx, -1048(%rbp)
	movq	-1048(%rbp), %rdx
	cmpq	(%rdx), %rcx
	movq	%rax, -1536(%rbp)       ## 8-byte Spill
	jae	LBB0_9
## BB#7:
Ltmp6:
	movl	$1, %eax
	movl	%eax, %edx
	leaq	-1088(%rbp), %rdi
	movq	-1536(%rbp), %rsi       ## 8-byte Reload
	callq	__ZNSt3__16vectorIiNS_9allocatorIiEEE24__RAII_IncreaseAnnotatorC1ERKS3_m
Ltmp7:
	jmp	LBB0_8
LBB0_8:                                 ## %.noexc3
	leaq	-1088(%rbp), %rdi
	movq	-1536(%rbp), %rax       ## 8-byte Reload
	movq	%rax, -1040(%rbp)
	movq	-1040(%rbp), %rax
	addq	$16, %rax
	movq	%rax, -1032(%rbp)
	movq	-1032(%rbp), %rax
	movq	%rax, -1024(%rbp)
	movq	-1024(%rbp), %rax
	movq	-1536(%rbp), %rcx       ## 8-byte Reload
	movq	8(%rcx), %rdx
	movq	%rdx, -1008(%rbp)
	movq	-1008(%rbp), %rdx
	movq	-1080(%rbp), %rsi
	movq	%rsi, -880(%rbp)
	movq	-880(%rbp), %rsi
	movq	%rax, -968(%rbp)
	movq	%rdx, -976(%rbp)
	movq	%rsi, -984(%rbp)
	movq	-968(%rbp), %rax
	movq	-976(%rbp), %rdx
	movq	-984(%rbp), %rsi
	movq	%rsi, -960(%rbp)
	movq	-960(%rbp), %rsi
	movq	%rax, -936(%rbp)
	movq	%rdx, -944(%rbp)
	movq	%rsi, -952(%rbp)
	movq	-936(%rbp), %rax
	movq	-944(%rbp), %rdx
	movq	-952(%rbp), %rsi
	movq	%rsi, -920(%rbp)
	movq	-920(%rbp), %rsi
	movq	%rax, -896(%rbp)
	movq	%rdx, -904(%rbp)
	movq	%rsi, -912(%rbp)
	movq	-904(%rbp), %rax
	movq	-912(%rbp), %rdx
	movq	%rdx, -888(%rbp)
	movq	-888(%rbp), %rdx
	movl	(%rdx), %r8d
	movl	%r8d, (%rax)
	callq	__ZNSt3__16vectorIiNS_9allocatorIiEEE24__RAII_IncreaseAnnotator6__doneEv
	movq	-1536(%rbp), %rax       ## 8-byte Reload
	movq	8(%rax), %rcx
	addq	$4, %rcx
	movq	%rcx, 8(%rax)
	jmp	LBB0_11
LBB0_9:
	movq	-1080(%rbp), %rax
	movq	%rax, -1016(%rbp)
Ltmp4:
	movq	-1536(%rbp), %rdi       ## 8-byte Reload
	movq	%rax, %rsi
	callq	__ZNSt3__16vectorIiNS_9allocatorIiEEE21__push_back_slow_pathIiEEvOT_
Ltmp5:
	jmp	LBB0_10
LBB0_10:                                ## %.noexc4
	jmp	LBB0_11
LBB0_11:                                ## %_ZNSt3__16vectorIiNS_9allocatorIiEEE9push_backEOi.exit5
	jmp	LBB0_12
LBB0_12:
	leaq	-1468(%rbp), %rax
	leaq	-1440(%rbp), %rcx
	movl	$987, -1468(%rbp)       ## imm = 0x3DB
	movq	%rcx, -856(%rbp)
	movq	%rax, -864(%rbp)
	movq	-856(%rbp), %rax
	movq	8(%rax), %rcx
	movq	%rax, %rdx
	movq	%rdx, -848(%rbp)
	movq	-848(%rbp), %rdx
	addq	$16, %rdx
	movq	%rdx, -840(%rbp)
	movq	-840(%rbp), %rdx
	movq	%rdx, -832(%rbp)
	movq	-832(%rbp), %rdx
	cmpq	(%rdx), %rcx
	movq	%rax, -1544(%rbp)       ## 8-byte Spill
	jae	LBB0_15
## BB#13:
Ltmp10:
	movl	$1, %eax
	movl	%eax, %edx
	leaq	-872(%rbp), %rdi
	movq	-1544(%rbp), %rsi       ## 8-byte Reload
	callq	__ZNSt3__16vectorIiNS_9allocatorIiEEE24__RAII_IncreaseAnnotatorC1ERKS3_m
Ltmp11:
	jmp	LBB0_14
LBB0_14:                                ## %.noexc7
	leaq	-872(%rbp), %rdi
	movq	-1544(%rbp), %rax       ## 8-byte Reload
	movq	%rax, -824(%rbp)
	movq	-824(%rbp), %rax
	addq	$16, %rax
	movq	%rax, -816(%rbp)
	movq	-816(%rbp), %rax
	movq	%rax, -808(%rbp)
	movq	-808(%rbp), %rax
	movq	-1544(%rbp), %rcx       ## 8-byte Reload
	movq	8(%rcx), %rdx
	movq	%rdx, -792(%rbp)
	movq	-792(%rbp), %rdx
	movq	-864(%rbp), %rsi
	movq	%rsi, -664(%rbp)
	movq	-664(%rbp), %rsi
	movq	%rax, -752(%rbp)
	movq	%rdx, -760(%rbp)
	movq	%rsi, -768(%rbp)
	movq	-752(%rbp), %rax
	movq	-760(%rbp), %rdx
	movq	-768(%rbp), %rsi
	movq	%rsi, -744(%rbp)
	movq	-744(%rbp), %rsi
	movq	%rax, -720(%rbp)
	movq	%rdx, -728(%rbp)
	movq	%rsi, -736(%rbp)
	movq	-720(%rbp), %rax
	movq	-728(%rbp), %rdx
	movq	-736(%rbp), %rsi
	movq	%rsi, -704(%rbp)
	movq	-704(%rbp), %rsi
	movq	%rax, -680(%rbp)
	movq	%rdx, -688(%rbp)
	movq	%rsi, -696(%rbp)
	movq	-688(%rbp), %rax
	movq	-696(%rbp), %rdx
	movq	%rdx, -672(%rbp)
	movq	-672(%rbp), %rdx
	movl	(%rdx), %r8d
	movl	%r8d, (%rax)
	callq	__ZNSt3__16vectorIiNS_9allocatorIiEEE24__RAII_IncreaseAnnotator6__doneEv
	movq	-1544(%rbp), %rax       ## 8-byte Reload
	movq	8(%rax), %rcx
	addq	$4, %rcx
	movq	%rcx, 8(%rax)
	jmp	LBB0_17
LBB0_15:
	movq	-864(%rbp), %rax
	movq	%rax, -800(%rbp)
Ltmp8:
	movq	-1544(%rbp), %rdi       ## 8-byte Reload
	movq	%rax, %rsi
	callq	__ZNSt3__16vectorIiNS_9allocatorIiEEE21__push_back_slow_pathIiEEvOT_
Ltmp9:
	jmp	LBB0_16
LBB0_16:                                ## %.noexc8
	jmp	LBB0_17
LBB0_17:                                ## %_ZNSt3__16vectorIiNS_9allocatorIiEEE9push_backEOi.exit9
	jmp	LBB0_18
LBB0_18:
	leaq	-1472(%rbp), %rax
	leaq	-1440(%rbp), %rcx
	movl	$2001, -1472(%rbp)      ## imm = 0x7D1
	movq	%rcx, -640(%rbp)
	movq	%rax, -648(%rbp)
	movq	-640(%rbp), %rax
	movq	8(%rax), %rcx
	movq	%rax, %rdx
	movq	%rdx, -632(%rbp)
	movq	-632(%rbp), %rdx
	addq	$16, %rdx
	movq	%rdx, -624(%rbp)
	movq	-624(%rbp), %rdx
	movq	%rdx, -616(%rbp)
	movq	-616(%rbp), %rdx
	cmpq	(%rdx), %rcx
	movq	%rax, -1552(%rbp)       ## 8-byte Spill
	jae	LBB0_21
## BB#19:
Ltmp14:
	movl	$1, %eax
	movl	%eax, %edx
	leaq	-656(%rbp), %rdi
	movq	-1552(%rbp), %rsi       ## 8-byte Reload
	callq	__ZNSt3__16vectorIiNS_9allocatorIiEEE24__RAII_IncreaseAnnotatorC1ERKS3_m
Ltmp15:
	jmp	LBB0_20
LBB0_20:                                ## %.noexc11
	leaq	-656(%rbp), %rdi
	movq	-1552(%rbp), %rax       ## 8-byte Reload
	movq	%rax, -608(%rbp)
	movq	-608(%rbp), %rax
	addq	$16, %rax
	movq	%rax, -600(%rbp)
	movq	-600(%rbp), %rax
	movq	%rax, -592(%rbp)
	movq	-592(%rbp), %rax
	movq	-1552(%rbp), %rcx       ## 8-byte Reload
	movq	8(%rcx), %rdx
	movq	%rdx, -576(%rbp)
	movq	-576(%rbp), %rdx
	movq	-648(%rbp), %rsi
	movq	%rsi, -448(%rbp)
	movq	-448(%rbp), %rsi
	movq	%rax, -536(%rbp)
	movq	%rdx, -544(%rbp)
	movq	%rsi, -552(%rbp)
	movq	-536(%rbp), %rax
	movq	-544(%rbp), %rdx
	movq	-552(%rbp), %rsi
	movq	%rsi, -528(%rbp)
	movq	-528(%rbp), %rsi
	movq	%rax, -504(%rbp)
	movq	%rdx, -512(%rbp)
	movq	%rsi, -520(%rbp)
	movq	-504(%rbp), %rax
	movq	-512(%rbp), %rdx
	movq	-520(%rbp), %rsi
	movq	%rsi, -488(%rbp)
	movq	-488(%rbp), %rsi
	movq	%rax, -464(%rbp)
	movq	%rdx, -472(%rbp)
	movq	%rsi, -480(%rbp)
	movq	-472(%rbp), %rax
	movq	-480(%rbp), %rdx
	movq	%rdx, -456(%rbp)
	movq	-456(%rbp), %rdx
	movl	(%rdx), %r8d
	movl	%r8d, (%rax)
	callq	__ZNSt3__16vectorIiNS_9allocatorIiEEE24__RAII_IncreaseAnnotator6__doneEv
	movq	-1552(%rbp), %rax       ## 8-byte Reload
	movq	8(%rax), %rcx
	addq	$4, %rcx
	movq	%rcx, 8(%rax)
	jmp	LBB0_23
LBB0_21:
	movq	-648(%rbp), %rax
	movq	%rax, -584(%rbp)
Ltmp12:
	movq	-1552(%rbp), %rdi       ## 8-byte Reload
	movq	%rax, %rsi
	callq	__ZNSt3__16vectorIiNS_9allocatorIiEEE21__push_back_slow_pathIiEEvOT_
Ltmp13:
	jmp	LBB0_22
LBB0_22:                                ## %.noexc12
	jmp	LBB0_23
LBB0_23:                                ## %_ZNSt3__16vectorIiNS_9allocatorIiEEE9push_backEOi.exit13
	jmp	LBB0_24
LBB0_24:
	leaq	-392(%rbp), %rax
	leaq	-1440(%rbp), %rcx
	movq	%rcx, -440(%rbp)
	movq	-440(%rbp), %rcx
	movq	%rcx, -424(%rbp)
	movq	-424(%rbp), %rcx
	movq	(%rcx), %rdx
	movq	%rcx, -400(%rbp)
	movq	%rdx, -408(%rbp)
	movq	-408(%rbp), %rcx
	movq	%rax, -376(%rbp)
	movq	%rcx, -384(%rbp)
	movq	-376(%rbp), %rax
	movq	-384(%rbp), %rcx
	movq	%rax, -360(%rbp)
	movq	%rcx, -368(%rbp)
	movq	-360(%rbp), %rax
	movq	-368(%rbp), %rcx
	movq	%rcx, (%rax)
	movq	-392(%rbp), %rax
	movq	%rax, -416(%rbp)
	movq	-416(%rbp), %rax
	movq	%rax, -432(%rbp)
	movq	-432(%rbp), %rax
	movq	%rax, -1480(%rbp)
LBB0_25:                                ## =>This Inner Loop Header: Depth=1
	leaq	-1488(%rbp), %rax
	leaq	-1480(%rbp), %rcx
	leaq	-304(%rbp), %rdx
	leaq	-1440(%rbp), %rsi
	movq	%rsi, -352(%rbp)
	movq	-352(%rbp), %rsi
	movq	%rsi, -336(%rbp)
	movq	-336(%rbp), %rsi
	movq	8(%rsi), %rdi
	movq	%rsi, -312(%rbp)
	movq	%rdi, -320(%rbp)
	movq	-320(%rbp), %rsi
	movq	%rdx, -288(%rbp)
	movq	%rsi, -296(%rbp)
	movq	-288(%rbp), %rdx
	movq	-296(%rbp), %rsi
	movq	%rdx, -272(%rbp)
	movq	%rsi, -280(%rbp)
	movq	-272(%rbp), %rdx
	movq	-280(%rbp), %rsi
	movq	%rsi, (%rdx)
	movq	-304(%rbp), %rdx
	movq	%rdx, -328(%rbp)
	movq	-328(%rbp), %rdx
	movq	%rdx, -344(%rbp)
	movq	-344(%rbp), %rdx
	movq	%rdx, -1488(%rbp)
	movq	%rcx, -256(%rbp)
	movq	%rax, -264(%rbp)
	movq	-256(%rbp), %rax
	movq	-264(%rbp), %rcx
	movq	%rax, -240(%rbp)
	movq	%rcx, -248(%rbp)
	movq	-240(%rbp), %rax
	movq	%rax, -232(%rbp)
	movq	-232(%rbp), %rax
	movq	(%rax), %rax
	movq	-248(%rbp), %rcx
	movq	%rcx, -224(%rbp)
	movq	-224(%rbp), %rcx
	cmpq	(%rcx), %rax
	sete	%r8b
	xorb	$1, %r8b
	testb	$1, %r8b
	jne	LBB0_26
	jmp	LBB0_35
LBB0_26:                                ##   in Loop: Header=BB0_25 Depth=1
	leaq	-72(%rbp), %rax
	leaq	-80(%rbp), %rcx
	leaq	-168(%rbp), %rdx
	leaq	-1440(%rbp), %rsi
	movq	%rsi, -216(%rbp)
	movq	-216(%rbp), %rsi
	movq	%rsi, -200(%rbp)
	movq	-200(%rbp), %rsi
	movq	(%rsi), %rdi
	movq	%rsi, -176(%rbp)
	movq	%rdi, -184(%rbp)
	movq	-184(%rbp), %rsi
	movq	%rdx, -152(%rbp)
	movq	%rsi, -160(%rbp)
	movq	-152(%rbp), %rdx
	movq	-160(%rbp), %rsi
	movq	%rdx, -136(%rbp)
	movq	%rsi, -144(%rbp)
	movq	-136(%rbp), %rdx
	movq	-144(%rbp), %rsi
	movq	%rsi, (%rdx)
	movq	-168(%rbp), %rdx
	movq	%rdx, -192(%rbp)
	movq	-192(%rbp), %rdx
	movq	%rdx, -208(%rbp)
	movq	-208(%rbp), %rdx
	movq	%rdx, -1504(%rbp)
	movq	-1480(%rbp), %rdx
	movq	%rdx, -1512(%rbp)
	movq	-1504(%rbp), %rdx
	movq	-1512(%rbp), %rsi
	movq	%rdx, -96(%rbp)
	movq	%rsi, -104(%rbp)
	movq	-96(%rbp), %rdx
	movq	%rdx, -112(%rbp)
	movq	-104(%rbp), %rdx
	movq	%rdx, -120(%rbp)
	movq	-112(%rbp), %rdx
	movq	-120(%rbp), %rsi
	movq	%rdx, -72(%rbp)
	movq	%rsi, -80(%rbp)
	movq	%rcx, -56(%rbp)
	movq	%rax, -64(%rbp)
	movq	-56(%rbp), %rax
	movq	%rax, -48(%rbp)
	movq	-48(%rbp), %rax
	movq	(%rax), %rax
	movq	-64(%rbp), %rcx
	movq	%rcx, -40(%rbp)
	movq	-40(%rbp), %rcx
	movq	(%rcx), %rcx
	subq	%rcx, %rax
	sarq	$2, %rax
	movq	%rax, -1560(%rbp)       ## 8-byte Spill
## BB#27:                               ##   in Loop: Header=BB0_25 Depth=1
	movq	-1560(%rbp), %rax       ## 8-byte Reload
	movq	%rax, -1496(%rbp)
Ltmp16:
	movq	__ZNSt3__14coutE@GOTPCREL(%rip), %rdi
	leaq	L_.str(%rip), %rsi
	callq	__ZNSt3__1lsINS_11char_traitsIcEEEERNS_13basic_ostreamIcT_EES6_PKc
Ltmp17:
	movq	%rax, -1568(%rbp)       ## 8-byte Spill
	jmp	LBB0_28
LBB0_28:                                ##   in Loop: Header=BB0_25 Depth=1
	movq	-1496(%rbp), %rsi
Ltmp18:
	movq	__ZNSt3__14coutE@GOTPCREL(%rip), %rdi
	callq	__ZNSt3__113basic_ostreamIcNS_11char_traitsIcEEElsEm
Ltmp19:
	movq	%rax, -1576(%rbp)       ## 8-byte Spill
	jmp	LBB0_29
LBB0_29:                                ##   in Loop: Header=BB0_25 Depth=1
Ltmp20:
	leaq	L_.str1(%rip), %rsi
	movq	-1576(%rbp), %rdi       ## 8-byte Reload
	callq	__ZNSt3__1lsINS_11char_traitsIcEEEERNS_13basic_ostreamIcT_EES6_PKc
Ltmp21:
	movq	%rax, -1584(%rbp)       ## 8-byte Spill
	jmp	LBB0_30
LBB0_30:                                ##   in Loop: Header=BB0_25 Depth=1
	leaq	-1480(%rbp), %rax
	movq	%rax, -32(%rbp)
	movq	-1480(%rbp), %rax
	movl	(%rax), %esi
Ltmp22:
	movq	-1584(%rbp), %rdi       ## 8-byte Reload
	callq	__ZNSt3__113basic_ostreamIcNS_11char_traitsIcEEElsEi
Ltmp23:
	movq	%rax, -1592(%rbp)       ## 8-byte Spill
	jmp	LBB0_31
LBB0_31:                                ##   in Loop: Header=BB0_25 Depth=1
	movq	-1592(%rbp), %rax       ## 8-byte Reload
	movq	%rax, -16(%rbp)
	leaq	__ZNSt3__14endlIcNS_11char_traitsIcEEEERNS_13basic_ostreamIT_T0_EES7_(%rip), %rcx
	movq	%rcx, -24(%rbp)
	movq	-16(%rbp), %rdi
Ltmp24:
	callq	*%rcx
Ltmp25:
	movq	%rax, -1600(%rbp)       ## 8-byte Spill
	jmp	LBB0_32
LBB0_32:                                ## %_ZNSt3__113basic_ostreamIcNS_11char_traitsIcEEElsEPFRS3_S4_E.exit
                                        ##   in Loop: Header=BB0_25 Depth=1
	jmp	LBB0_33
LBB0_33:                                ##   in Loop: Header=BB0_25 Depth=1
	leaq	-1480(%rbp), %rax
	movq	%rax, -8(%rbp)
	movq	-8(%rbp), %rax
	movq	(%rax), %rcx
	addq	$4, %rcx
	movq	%rcx, (%rax)
	jmp	LBB0_25
LBB0_34:
Ltmp26:
	leaq	-1440(%rbp), %rdi
	movl	%edx, %ecx
	movq	%rax, -1456(%rbp)
	movl	%ecx, -1460(%rbp)
	callq	__ZNSt3__16vectorIiNS_9allocatorIiEEED1Ev
	jmp	LBB0_36
LBB0_35:
	leaq	-1440(%rbp), %rdi
	movl	$0, -1412(%rbp)
	movl	$1, -1516(%rbp)
	callq	__ZNSt3__16vectorIiNS_9allocatorIiEEED1Ev
	movl	-1412(%rbp), %eax
	addq	$1600, %rsp             ## imm = 0x640
	popq	%rbp
	retq
LBB0_36:
	movq	-1456(%rbp), %rdi
	callq	__Unwind_Resume
Lfunc_end0:
	.cfi_endproc
	.section	__TEXT,__gcc_except_tab
	.align	2
GCC_except_table0:
Lexception0:
	.byte	255                     ## @LPStart Encoding = omit
	.byte	155                     ## @TType Encoding = indirect pcrel sdata4
	.asciz	"\234"                  ## @TType base offset
	.byte	3                       ## Call site Encoding = udata4
	.byte	26                      ## Call site table length
Lset0 = Ltmp2-Lfunc_begin0              ## >> Call Site 1 <<
	.long	Lset0
Lset1 = Ltmp25-Ltmp2                    ##   Call between Ltmp2 and Ltmp25
	.long	Lset1
Lset2 = Ltmp26-Lfunc_begin0             ##     jumps to Ltmp26
	.long	Lset2
	.byte	0                       ##   On action: cleanup
Lset3 = Ltmp25-Lfunc_begin0             ## >> Call Site 2 <<
	.long	Lset3
Lset4 = Lfunc_end0-Ltmp25               ##   Call between Ltmp25 and Lfunc_end0
	.long	Lset4
	.long	0                       ##     has no landing pad
	.byte	0                       ##   On action: cleanup
	.align	2

	.section	__TEXT,__textcoal_nt,coalesced,pure_instructions
	.globl	__ZNSt3__1lsINS_11char_traitsIcEEEERNS_13basic_ostreamIcT_EES6_PKc
	.weak_def_can_be_hidden	__ZNSt3__1lsINS_11char_traitsIcEEEERNS_13basic_ostreamIcT_EES6_PKc
	.align	4, 0x90
__ZNSt3__1lsINS_11char_traitsIcEEEERNS_13basic_ostreamIcT_EES6_PKc: ## @_ZNSt3__1lsINS_11char_traitsIcEEEERNS_13basic_ostreamIcT_EES6_PKc
	.cfi_startproc
## BB#0:
	pushq	%rbp
Ltmp30:
	.cfi_def_cfa_offset 16
Ltmp31:
	.cfi_offset %rbp, -16
	movq	%rsp, %rbp
Ltmp32:
	.cfi_def_cfa_register %rbp
	subq	$32, %rsp
	movq	%rdi, -8(%rbp)
	movq	%rsi, -16(%rbp)
	movq	-8(%rbp), %rdi
	movq	-16(%rbp), %rsi
	movq	-16(%rbp), %rax
	movq	%rdi, -24(%rbp)         ## 8-byte Spill
	movq	%rax, %rdi
	movq	%rsi, -32(%rbp)         ## 8-byte Spill
	callq	__ZNSt3__111char_traitsIcE6lengthEPKc
	movq	-24(%rbp), %rdi         ## 8-byte Reload
	movq	-32(%rbp), %rsi         ## 8-byte Reload
	movq	%rax, %rdx
	callq	__ZNSt3__124__put_character_sequenceIcNS_11char_traitsIcEEEERNS_13basic_ostreamIT_T0_EES7_PKS4_m
	addq	$32, %rsp
	popq	%rbp
	retq
	.cfi_endproc

	.private_extern	__ZNSt3__14endlIcNS_11char_traitsIcEEEERNS_13basic_ostreamIT_T0_EES7_
	.globl	__ZNSt3__14endlIcNS_11char_traitsIcEEEERNS_13basic_ostreamIT_T0_EES7_
	.weak_definition	__ZNSt3__14endlIcNS_11char_traitsIcEEEERNS_13basic_ostreamIT_T0_EES7_
	.align	4, 0x90
__ZNSt3__14endlIcNS_11char_traitsIcEEEERNS_13basic_ostreamIT_T0_EES7_: ## @_ZNSt3__14endlIcNS_11char_traitsIcEEEERNS_13basic_ostreamIT_T0_EES7_
Lfunc_begin2:
	.cfi_startproc
	.cfi_personality 155, ___gxx_personality_v0
	.cfi_lsda 16, Lexception2
## BB#0:
	pushq	%rbp
Ltmp38:
	.cfi_def_cfa_offset 16
Ltmp39:
	.cfi_offset %rbp, -16
	movq	%rsp, %rbp
Ltmp40:
	.cfi_def_cfa_register %rbp
	subq	$144, %rsp
	movq	%rdi, -72(%rbp)
	movq	%rdi, %rax
	movq	(%rdi), %rcx
	movq	-24(%rcx), %rcx
	addq	%rcx, %rdi
	movq	%rdi, -32(%rbp)
	movb	$10, -33(%rbp)
	movq	-32(%rbp), %rsi
	leaq	-48(%rbp), %rcx
	movq	%rcx, %rdi
	movq	%rax, -80(%rbp)         ## 8-byte Spill
	movq	%rcx, -88(%rbp)         ## 8-byte Spill
	callq	__ZNKSt3__18ios_base6getlocEv
	movq	-88(%rbp), %rax         ## 8-byte Reload
	movq	%rax, -24(%rbp)
Ltmp33:
	movq	__ZNSt3__15ctypeIcE2idE@GOTPCREL(%rip), %rsi
	movq	%rax, %rdi
	callq	__ZNKSt3__16locale9use_facetERNS0_2idE
Ltmp34:
	movq	%rax, -96(%rbp)         ## 8-byte Spill
	jmp	LBB2_1
LBB2_1:                                 ## %_ZNSt3__19use_facetINS_5ctypeIcEEEERKT_RKNS_6localeE.exit.i
	movb	-33(%rbp), %al
	movq	-96(%rbp), %rcx         ## 8-byte Reload
	movq	%rcx, -8(%rbp)
	movb	%al, -9(%rbp)
	movq	-8(%rbp), %rdx
	movq	(%rdx), %rsi
	movq	56(%rsi), %rsi
	movsbl	-9(%rbp), %edi
Ltmp35:
	movl	%edi, -100(%rbp)        ## 4-byte Spill
	movq	%rdx, %rdi
	movl	-100(%rbp), %r8d        ## 4-byte Reload
	movq	%rsi, -112(%rbp)        ## 8-byte Spill
	movl	%r8d, %esi
	movq	-112(%rbp), %rdx        ## 8-byte Reload
	callq	*%rdx
Ltmp36:
	movb	%al, -113(%rbp)         ## 1-byte Spill
	jmp	LBB2_3
LBB2_2:
Ltmp37:
	leaq	-48(%rbp), %rdi
	movl	%edx, %ecx
	movq	%rax, -56(%rbp)
	movl	%ecx, -60(%rbp)
	callq	__ZNSt3__16localeD1Ev
	movq	-56(%rbp), %rdi
	callq	__Unwind_Resume
LBB2_3:                                 ## %_ZNKSt3__19basic_iosIcNS_11char_traitsIcEEE5widenEc.exit
	leaq	-48(%rbp), %rdi
	callq	__ZNSt3__16localeD1Ev
	movq	-80(%rbp), %rdi         ## 8-byte Reload
	movb	-113(%rbp), %al         ## 1-byte Reload
	movsbl	%al, %esi
	callq	__ZNSt3__113basic_ostreamIcNS_11char_traitsIcEEE3putEc
	movq	-72(%rbp), %rdi
	movq	%rax, -128(%rbp)        ## 8-byte Spill
	callq	__ZNSt3__113basic_ostreamIcNS_11char_traitsIcEEE5flushEv
	movq	-72(%rbp), %rdi
	movq	%rax, -136(%rbp)        ## 8-byte Spill
	movq	%rdi, %rax
	addq	$144, %rsp
	popq	%rbp
	retq
Lfunc_end2:
	.cfi_endproc
	.section	__TEXT,__gcc_except_tab
	.align	2
GCC_except_table2:
Lexception2:
	.byte	255                     ## @LPStart Encoding = omit
	.byte	155                     ## @TType Encoding = indirect pcrel sdata4
	.byte	41                      ## @TType base offset
	.byte	3                       ## Call site Encoding = udata4
	.byte	39                      ## Call site table length
Lset5 = Lfunc_begin2-Lfunc_begin2       ## >> Call Site 1 <<
	.long	Lset5
Lset6 = Ltmp33-Lfunc_begin2             ##   Call between Lfunc_begin2 and Ltmp33
	.long	Lset6
	.long	0                       ##     has no landing pad
	.byte	0                       ##   On action: cleanup
Lset7 = Ltmp33-Lfunc_begin2             ## >> Call Site 2 <<
	.long	Lset7
Lset8 = Ltmp36-Ltmp33                   ##   Call between Ltmp33 and Ltmp36
	.long	Lset8
Lset9 = Ltmp37-Lfunc_begin2             ##     jumps to Ltmp37
	.long	Lset9
	.byte	0                       ##   On action: cleanup
Lset10 = Ltmp36-Lfunc_begin2            ## >> Call Site 3 <<
	.long	Lset10
Lset11 = Lfunc_end2-Ltmp36              ##   Call between Ltmp36 and Lfunc_end2
	.long	Lset11
	.long	0                       ##     has no landing pad
	.byte	0                       ##   On action: cleanup
	.align	2

	.section	__TEXT,__textcoal_nt,coalesced,pure_instructions
	.globl	__ZNSt3__16vectorIiNS_9allocatorIiEEED1Ev
	.weak_def_can_be_hidden	__ZNSt3__16vectorIiNS_9allocatorIiEEED1Ev
	.align	4, 0x90
__ZNSt3__16vectorIiNS_9allocatorIiEEED1Ev: ## @_ZNSt3__16vectorIiNS_9allocatorIiEEED1Ev
	.cfi_startproc
## BB#0:
	pushq	%rbp
Ltmp41:
	.cfi_def_cfa_offset 16
Ltmp42:
	.cfi_offset %rbp, -16
	movq	%rsp, %rbp
Ltmp43:
	.cfi_def_cfa_register %rbp
	subq	$16, %rsp
	movq	%rdi, -8(%rbp)
	movq	-8(%rbp), %rdi
	callq	__ZNSt3__16vectorIiNS_9allocatorIiEEED2Ev
	addq	$16, %rsp
	popq	%rbp
	retq
	.cfi_endproc

	.globl	__ZNSt3__16vectorIiNS_9allocatorIiEEED2Ev
	.weak_def_can_be_hidden	__ZNSt3__16vectorIiNS_9allocatorIiEEED2Ev
	.align	4, 0x90
__ZNSt3__16vectorIiNS_9allocatorIiEEED2Ev: ## @_ZNSt3__16vectorIiNS_9allocatorIiEEED2Ev
	.cfi_startproc
## BB#0:
	pushq	%rbp
Ltmp44:
	.cfi_def_cfa_offset 16
Ltmp45:
	.cfi_offset %rbp, -16
	movq	%rsp, %rbp
Ltmp46:
	.cfi_def_cfa_register %rbp
	subq	$16, %rsp
	movq	%rdi, -8(%rbp)
	movq	-8(%rbp), %rdi
	callq	__ZNSt3__113__vector_baseIiNS_9allocatorIiEEED2Ev
	addq	$16, %rsp
	popq	%rbp
	retq
	.cfi_endproc

	.globl	__ZNSt3__113__vector_baseIiNS_9allocatorIiEEED2Ev
	.weak_def_can_be_hidden	__ZNSt3__113__vector_baseIiNS_9allocatorIiEEED2Ev
	.align	4, 0x90
__ZNSt3__113__vector_baseIiNS_9allocatorIiEEED2Ev: ## @_ZNSt3__113__vector_baseIiNS_9allocatorIiEEED2Ev
	.cfi_startproc
## BB#0:
	pushq	%rbp
Ltmp47:
	.cfi_def_cfa_offset 16
Ltmp48:
	.cfi_offset %rbp, -16
	movq	%rsp, %rbp
Ltmp49:
	.cfi_def_cfa_register %rbp
	subq	$272, %rsp              ## imm = 0x110
	movq	%rdi, -248(%rbp)
	movq	-248(%rbp), %rdi
	cmpq	$0, (%rdi)
	movq	%rdi, -256(%rbp)        ## 8-byte Spill
	je	LBB5_5
## BB#1:
	movq	-256(%rbp), %rax        ## 8-byte Reload
	movq	%rax, -240(%rbp)
	movq	-240(%rbp), %rcx
	movq	(%rcx), %rdx
	movq	%rcx, -224(%rbp)
	movq	%rdx, -232(%rbp)
	movq	-224(%rbp), %rcx
	movq	%rcx, -264(%rbp)        ## 8-byte Spill
LBB5_2:                                 ## =>This Inner Loop Header: Depth=1
	movq	-232(%rbp), %rax
	movq	-264(%rbp), %rcx        ## 8-byte Reload
	cmpq	8(%rcx), %rax
	je	LBB5_4
## BB#3:                                ##   in Loop: Header=BB5_2 Depth=1
	movq	-264(%rbp), %rax        ## 8-byte Reload
	movq	%rax, -216(%rbp)
	movq	-216(%rbp), %rcx
	addq	$16, %rcx
	movq	%rcx, -208(%rbp)
	movq	-208(%rbp), %rcx
	movq	%rcx, -200(%rbp)
	movq	-200(%rbp), %rcx
	movq	8(%rax), %rdx
	addq	$-4, %rdx
	movq	%rdx, 8(%rax)
	movq	%rdx, -192(%rbp)
	movq	-192(%rbp), %rdx
	movq	%rcx, -160(%rbp)
	movq	%rdx, -168(%rbp)
	movq	-160(%rbp), %rcx
	movq	-168(%rbp), %rdx
	movq	%rcx, -144(%rbp)
	movq	%rdx, -152(%rbp)
	movq	-144(%rbp), %rcx
	movq	-152(%rbp), %rdx
	movq	%rcx, -120(%rbp)
	movq	%rdx, -128(%rbp)
	jmp	LBB5_2
LBB5_4:                                 ## %_ZNSt3__113__vector_baseIiNS_9allocatorIiEEE5clearEv.exit
	movq	-256(%rbp), %rax        ## 8-byte Reload
	movq	%rax, -56(%rbp)
	movq	-56(%rbp), %rcx
	addq	$16, %rcx
	movq	%rcx, -48(%rbp)
	movq	-48(%rbp), %rcx
	movq	%rcx, -40(%rbp)
	movq	-40(%rbp), %rcx
	movq	(%rax), %rdx
	movq	%rax, -32(%rbp)
	movq	-32(%rbp), %rsi
	movq	%rsi, -24(%rbp)
	movq	-24(%rbp), %rdi
	addq	$16, %rdi
	movq	%rdi, -16(%rbp)
	movq	-16(%rbp), %rdi
	movq	%rdi, -8(%rbp)
	movq	-8(%rbp), %rdi
	movq	(%rdi), %rdi
	movq	(%rsi), %rsi
	subq	%rsi, %rdi
	sarq	$2, %rdi
	movq	%rcx, -96(%rbp)
	movq	%rdx, -104(%rbp)
	movq	%rdi, -112(%rbp)
	movq	-96(%rbp), %rcx
	movq	-104(%rbp), %rdx
	movq	-112(%rbp), %rsi
	movq	%rcx, -72(%rbp)
	movq	%rdx, -80(%rbp)
	movq	%rsi, -88(%rbp)
	movq	-80(%rbp), %rcx
	movq	%rcx, -64(%rbp)
	movq	-64(%rbp), %rdi
	callq	__ZdlPv
LBB5_5:
	addq	$272, %rsp              ## imm = 0x110
	popq	%rbp
	retq
	.cfi_endproc

	.private_extern	___clang_call_terminate
	.globl	___clang_call_terminate
	.weak_def_can_be_hidden	___clang_call_terminate
	.align	4, 0x90
___clang_call_terminate:                ## @__clang_call_terminate
## BB#0:
	pushq	%rbp
	movq	%rsp, %rbp
	subq	$16, %rsp
	callq	___cxa_begin_catch
	movq	%rax, -8(%rbp)          ## 8-byte Spill
	callq	__ZSt9terminatev

	.globl	__ZNSt3__16vectorIiNS_9allocatorIiEEE24__RAII_IncreaseAnnotatorC1ERKS3_m
	.weak_def_can_be_hidden	__ZNSt3__16vectorIiNS_9allocatorIiEEE24__RAII_IncreaseAnnotatorC1ERKS3_m
	.align	4, 0x90
__ZNSt3__16vectorIiNS_9allocatorIiEEE24__RAII_IncreaseAnnotatorC1ERKS3_m: ## @_ZNSt3__16vectorIiNS_9allocatorIiEEE24__RAII_IncreaseAnnotatorC1ERKS3_m
	.cfi_startproc
## BB#0:
	pushq	%rbp
Ltmp50:
	.cfi_def_cfa_offset 16
Ltmp51:
	.cfi_offset %rbp, -16
	movq	%rsp, %rbp
Ltmp52:
	.cfi_def_cfa_register %rbp
	subq	$32, %rsp
	movq	%rdi, -8(%rbp)
	movq	%rsi, -16(%rbp)
	movq	%rdx, -24(%rbp)
	movq	-8(%rbp), %rdi
	movq	-24(%rbp), %rdx
	movq	-16(%rbp), %rsi
	callq	__ZNSt3__16vectorIiNS_9allocatorIiEEE24__RAII_IncreaseAnnotatorC2ERKS3_m
	addq	$32, %rsp
	popq	%rbp
	retq
	.cfi_endproc

	.globl	__ZNSt3__16vectorIiNS_9allocatorIiEEE24__RAII_IncreaseAnnotator6__doneEv
	.weak_def_can_be_hidden	__ZNSt3__16vectorIiNS_9allocatorIiEEE24__RAII_IncreaseAnnotator6__doneEv
	.align	4, 0x90
__ZNSt3__16vectorIiNS_9allocatorIiEEE24__RAII_IncreaseAnnotator6__doneEv: ## @_ZNSt3__16vectorIiNS_9allocatorIiEEE24__RAII_IncreaseAnnotator6__doneEv
	.cfi_startproc
## BB#0:
	pushq	%rbp
Ltmp53:
	.cfi_def_cfa_offset 16
Ltmp54:
	.cfi_offset %rbp, -16
	movq	%rsp, %rbp
Ltmp55:
	.cfi_def_cfa_register %rbp
	movq	%rdi, -8(%rbp)
	popq	%rbp
	retq
	.cfi_endproc

	.globl	__ZNSt3__16vectorIiNS_9allocatorIiEEE21__push_back_slow_pathIiEEvOT_
	.weak_def_can_be_hidden	__ZNSt3__16vectorIiNS_9allocatorIiEEE21__push_back_slow_pathIiEEvOT_
	.align	4, 0x90
__ZNSt3__16vectorIiNS_9allocatorIiEEE21__push_back_slow_pathIiEEvOT_: ## @_ZNSt3__16vectorIiNS_9allocatorIiEEE21__push_back_slow_pathIiEEvOT_
Lfunc_begin9:
	.cfi_startproc
	.cfi_personality 155, ___gxx_personality_v0
	.cfi_lsda 16, Lexception9
## BB#0:
	pushq	%rbp
Ltmp59:
	.cfi_def_cfa_offset 16
Ltmp60:
	.cfi_offset %rbp, -16
	movq	%rsp, %rbp
Ltmp61:
	.cfi_def_cfa_register %rbp
	subq	$448, %rsp              ## imm = 0x1C0
	movq	%rdi, -344(%rbp)
	movq	%rsi, -352(%rbp)
	movq	-344(%rbp), %rsi
	movq	%rsi, %rdi
	movq	%rdi, -336(%rbp)
	movq	-336(%rbp), %rdi
	addq	$16, %rdi
	movq	%rdi, -328(%rbp)
	movq	-328(%rbp), %rdi
	movq	%rdi, -320(%rbp)
	movq	-320(%rbp), %rdi
	movq	%rdi, -360(%rbp)
	movq	%rsi, -312(%rbp)
	movq	-312(%rbp), %rdi
	movq	8(%rdi), %rax
	movq	(%rdi), %rdi
	subq	%rdi, %rax
	sarq	$2, %rax
	addq	$1, %rax
	movq	%rsi, -272(%rbp)
	movq	%rax, -280(%rbp)
	movq	-272(%rbp), %rax
	movq	%rax, %rdi
	movq	%rsi, -424(%rbp)        ## 8-byte Spill
	movq	%rax, -432(%rbp)        ## 8-byte Spill
	callq	__ZNKSt3__16vectorIiNS_9allocatorIiEEE8max_sizeEv
	movq	%rax, -288(%rbp)
	movq	-280(%rbp), %rax
	cmpq	-288(%rbp), %rax
	jbe	LBB9_2
## BB#1:
	movq	-432(%rbp), %rax        ## 8-byte Reload
	movq	%rax, %rdi
	callq	__ZNKSt3__120__vector_base_commonILb1EE20__throw_length_errorEv
LBB9_2:
	movq	-432(%rbp), %rax        ## 8-byte Reload
	movq	%rax, -256(%rbp)
	movq	-256(%rbp), %rcx
	movq	%rcx, -248(%rbp)
	movq	-248(%rbp), %rcx
	movq	%rcx, -240(%rbp)
	movq	-240(%rbp), %rdx
	addq	$16, %rdx
	movq	%rdx, -232(%rbp)
	movq	-232(%rbp), %rdx
	movq	%rdx, -224(%rbp)
	movq	-224(%rbp), %rdx
	movq	(%rdx), %rdx
	movq	(%rcx), %rcx
	subq	%rcx, %rdx
	sarq	$2, %rdx
	movq	%rdx, -296(%rbp)
	movq	-296(%rbp), %rcx
	movq	-288(%rbp), %rdx
	shrq	$1, %rdx
	cmpq	%rdx, %rcx
	jb	LBB9_4
## BB#3:
	movq	-288(%rbp), %rax
	movq	%rax, -264(%rbp)
	jmp	LBB9_8
LBB9_4:
	leaq	-176(%rbp), %rax
	leaq	-280(%rbp), %rcx
	leaq	-304(%rbp), %rdx
	movq	-296(%rbp), %rsi
	shlq	$1, %rsi
	movq	%rsi, -304(%rbp)
	movq	%rdx, -200(%rbp)
	movq	%rcx, -208(%rbp)
	movq	-200(%rbp), %rcx
	movq	-208(%rbp), %rdx
	movq	%rcx, -184(%rbp)
	movq	%rdx, -192(%rbp)
	movq	-184(%rbp), %rcx
	movq	-192(%rbp), %rdx
	movq	%rax, -152(%rbp)
	movq	%rcx, -160(%rbp)
	movq	%rdx, -168(%rbp)
	movq	-160(%rbp), %rax
	movq	(%rax), %rax
	movq	-168(%rbp), %rcx
	cmpq	(%rcx), %rax
	jae	LBB9_6
## BB#5:
	movq	-192(%rbp), %rax
	movq	%rax, -440(%rbp)        ## 8-byte Spill
	jmp	LBB9_7
LBB9_6:
	movq	-184(%rbp), %rax
	movq	%rax, -440(%rbp)        ## 8-byte Spill
LBB9_7:                                 ## %_ZNSt3__13maxImEERKT_S3_S3_.exit.i
	movq	-440(%rbp), %rax        ## 8-byte Reload
	movq	(%rax), %rax
	movq	%rax, -264(%rbp)
LBB9_8:                                 ## %_ZNKSt3__16vectorIiNS_9allocatorIiEEE11__recommendEm.exit
	leaq	-400(%rbp), %rdi
	movq	-264(%rbp), %rsi
	movq	-424(%rbp), %rax        ## 8-byte Reload
	movq	%rax, -144(%rbp)
	movq	-144(%rbp), %rcx
	movq	8(%rcx), %rdx
	movq	(%rcx), %rcx
	subq	%rcx, %rdx
	sarq	$2, %rdx
	movq	-360(%rbp), %rcx
	callq	__ZNSt3__114__split_bufferIiRNS_9allocatorIiEEEC1EmmS3_
	movq	-360(%rbp), %rax
	movq	-384(%rbp), %rcx
	movq	%rcx, -136(%rbp)
	movq	-136(%rbp), %rcx
	movq	-352(%rbp), %rdx
	movq	%rdx, -128(%rbp)
	movq	-128(%rbp), %rdx
	movq	%rax, -88(%rbp)
	movq	%rcx, -96(%rbp)
	movq	%rdx, -104(%rbp)
	movq	-88(%rbp), %rax
	movq	-96(%rbp), %rcx
	movq	-104(%rbp), %rdx
	movq	%rdx, -80(%rbp)
	movq	-80(%rbp), %rdx
	movq	%rax, -56(%rbp)
	movq	%rcx, -64(%rbp)
	movq	%rdx, -72(%rbp)
	movq	-56(%rbp), %rax
	movq	-64(%rbp), %rcx
	movq	-72(%rbp), %rdx
	movq	%rdx, -40(%rbp)
	movq	-40(%rbp), %rdx
	movq	%rax, -16(%rbp)
	movq	%rcx, -24(%rbp)
	movq	%rdx, -32(%rbp)
	movq	-24(%rbp), %rax
	movq	-32(%rbp), %rcx
	movq	%rcx, -8(%rbp)
	movq	-8(%rbp), %rcx
	movl	(%rcx), %r8d
	movl	%r8d, (%rax)
## BB#9:
	movq	-384(%rbp), %rax
	addq	$4, %rax
	movq	%rax, -384(%rbp)
Ltmp56:
	leaq	-400(%rbp), %rsi
	movq	-424(%rbp), %rdi        ## 8-byte Reload
	callq	__ZNSt3__16vectorIiNS_9allocatorIiEEE26__swap_out_circular_bufferERNS_14__split_bufferIiRS2_EE
Ltmp57:
	jmp	LBB9_10
LBB9_10:
	leaq	-400(%rbp), %rdi
	callq	__ZNSt3__114__split_bufferIiRNS_9allocatorIiEEED1Ev
	addq	$448, %rsp              ## imm = 0x1C0
	popq	%rbp
	retq
LBB9_11:
Ltmp58:
	leaq	-400(%rbp), %rdi
	movl	%edx, %ecx
	movq	%rax, -408(%rbp)
	movl	%ecx, -412(%rbp)
	callq	__ZNSt3__114__split_bufferIiRNS_9allocatorIiEEED1Ev
## BB#12:
	movq	-408(%rbp), %rdi
	callq	__Unwind_Resume
Lfunc_end9:
	.cfi_endproc
	.section	__TEXT,__gcc_except_tab
	.align	2
GCC_except_table9:
Lexception9:
	.byte	255                     ## @LPStart Encoding = omit
	.byte	155                     ## @TType Encoding = indirect pcrel sdata4
	.byte	41                      ## @TType base offset
	.byte	3                       ## Call site Encoding = udata4
	.byte	39                      ## Call site table length
Lset12 = Lfunc_begin9-Lfunc_begin9      ## >> Call Site 1 <<
	.long	Lset12
Lset13 = Ltmp56-Lfunc_begin9            ##   Call between Lfunc_begin9 and Ltmp56
	.long	Lset13
	.long	0                       ##     has no landing pad
	.byte	0                       ##   On action: cleanup
Lset14 = Ltmp56-Lfunc_begin9            ## >> Call Site 2 <<
	.long	Lset14
Lset15 = Ltmp57-Ltmp56                  ##   Call between Ltmp56 and Ltmp57
	.long	Lset15
Lset16 = Ltmp58-Lfunc_begin9            ##     jumps to Ltmp58
	.long	Lset16
	.byte	0                       ##   On action: cleanup
Lset17 = Ltmp57-Lfunc_begin9            ## >> Call Site 3 <<
	.long	Lset17
Lset18 = Lfunc_end9-Ltmp57              ##   Call between Ltmp57 and Lfunc_end9
	.long	Lset18
	.long	0                       ##     has no landing pad
	.byte	0                       ##   On action: cleanup
	.align	2

	.section	__TEXT,__textcoal_nt,coalesced,pure_instructions
	.globl	__ZNSt3__16vectorIiNS_9allocatorIiEEE24__RAII_IncreaseAnnotatorC2ERKS3_m
	.weak_def_can_be_hidden	__ZNSt3__16vectorIiNS_9allocatorIiEEE24__RAII_IncreaseAnnotatorC2ERKS3_m
	.align	4, 0x90
__ZNSt3__16vectorIiNS_9allocatorIiEEE24__RAII_IncreaseAnnotatorC2ERKS3_m: ## @_ZNSt3__16vectorIiNS_9allocatorIiEEE24__RAII_IncreaseAnnotatorC2ERKS3_m
	.cfi_startproc
## BB#0:
	pushq	%rbp
Ltmp62:
	.cfi_def_cfa_offset 16
Ltmp63:
	.cfi_offset %rbp, -16
	movq	%rsp, %rbp
Ltmp64:
	.cfi_def_cfa_register %rbp
	movq	%rdi, -8(%rbp)
	movq	%rsi, -16(%rbp)
	movq	%rdx, -24(%rbp)
	popq	%rbp
	retq
	.cfi_endproc

	.globl	__ZNSt3__114__split_bufferIiRNS_9allocatorIiEEEC1EmmS3_
	.weak_def_can_be_hidden	__ZNSt3__114__split_bufferIiRNS_9allocatorIiEEEC1EmmS3_
	.align	4, 0x90
__ZNSt3__114__split_bufferIiRNS_9allocatorIiEEEC1EmmS3_: ## @_ZNSt3__114__split_bufferIiRNS_9allocatorIiEEEC1EmmS3_
	.cfi_startproc
## BB#0:
	pushq	%rbp
Ltmp65:
	.cfi_def_cfa_offset 16
Ltmp66:
	.cfi_offset %rbp, -16
	movq	%rsp, %rbp
Ltmp67:
	.cfi_def_cfa_register %rbp
	subq	$32, %rsp
	movq	%rdi, -8(%rbp)
	movq	%rsi, -16(%rbp)
	movq	%rdx, -24(%rbp)
	movq	%rcx, -32(%rbp)
	movq	-8(%rbp), %rdi
	movq	-16(%rbp), %rsi
	movq	-24(%rbp), %rdx
	movq	-32(%rbp), %rcx
	callq	__ZNSt3__114__split_bufferIiRNS_9allocatorIiEEEC2EmmS3_
	addq	$32, %rsp
	popq	%rbp
	retq
	.cfi_endproc

	.globl	__ZNSt3__16vectorIiNS_9allocatorIiEEE26__swap_out_circular_bufferERNS_14__split_bufferIiRS2_EE
	.weak_def_can_be_hidden	__ZNSt3__16vectorIiNS_9allocatorIiEEE26__swap_out_circular_bufferERNS_14__split_bufferIiRS2_EE
	.align	4, 0x90
__ZNSt3__16vectorIiNS_9allocatorIiEEE26__swap_out_circular_bufferERNS_14__split_bufferIiRS2_EE: ## @_ZNSt3__16vectorIiNS_9allocatorIiEEE26__swap_out_circular_bufferERNS_14__split_bufferIiRS2_EE
	.cfi_startproc
## BB#0:
	pushq	%rbp
Ltmp68:
	.cfi_def_cfa_offset 16
Ltmp69:
	.cfi_offset %rbp, -16
	movq	%rsp, %rbp
Ltmp70:
	.cfi_def_cfa_register %rbp
	pushq	%rbx
	subq	$328, %rsp              ## imm = 0x148
Ltmp71:
	.cfi_offset %rbx, -24
	movq	%rdi, -288(%rbp)
	movq	%rsi, -296(%rbp)
	movq	-288(%rbp), %rsi
	movq	%rsi, %rdi
	movq	%rsi, -304(%rbp)        ## 8-byte Spill
	callq	__ZNKSt3__16vectorIiNS_9allocatorIiEEE17__annotate_deleteEv
	leaq	-200(%rbp), %rsi
	leaq	-104(%rbp), %rdi
	leaq	-56(%rbp), %rax
	xorl	%ecx, %ecx
	movl	%ecx, %edx
	movq	-304(%rbp), %r8         ## 8-byte Reload
	movq	%r8, -280(%rbp)
	movq	-280(%rbp), %r8
	addq	$16, %r8
	movq	%r8, -272(%rbp)
	movq	-272(%rbp), %r8
	movq	%r8, -264(%rbp)
	movq	-264(%rbp), %r8
	movq	-304(%rbp), %r9         ## 8-byte Reload
	movq	(%r9), %r10
	movq	8(%r9), %r11
	movq	-296(%rbp), %rbx
	addq	$8, %rbx
	movq	%r8, -216(%rbp)
	movq	%r10, -224(%rbp)
	movq	%r11, -232(%rbp)
	movq	%rbx, -240(%rbp)
	movq	-232(%rbp), %r8
	movq	-224(%rbp), %r10
	subq	%r10, %r8
	sarq	$2, %r8
	movq	%r8, -248(%rbp)
	movq	-248(%rbp), %r8
	movq	-240(%rbp), %r10
	movq	(%r10), %r11
	subq	%r8, %rdx
	shlq	$2, %rdx
	addq	%rdx, %r11
	movq	%r11, (%r10)
	movq	-240(%rbp), %rdx
	movq	(%rdx), %rdx
	movq	-224(%rbp), %r8
	movq	-248(%rbp), %r10
	shlq	$2, %r10
	movq	%rdi, -312(%rbp)        ## 8-byte Spill
	movq	%rdx, %rdi
	movq	%rsi, -320(%rbp)        ## 8-byte Spill
	movq	%r8, %rsi
	movq	%r10, %rdx
	movq	%rax, -328(%rbp)        ## 8-byte Spill
	callq	_memcpy
	movq	-304(%rbp), %rax        ## 8-byte Reload
	movq	-296(%rbp), %rdx
	addq	$8, %rdx
	movq	%rax, -40(%rbp)
	movq	%rdx, -48(%rbp)
	movq	-40(%rbp), %rax
	movq	%rax, -32(%rbp)
	movq	-32(%rbp), %rax
	movq	(%rax), %rax
	movq	%rax, -56(%rbp)
	movq	-48(%rbp), %rax
	movq	%rax, -16(%rbp)
	movq	-16(%rbp), %rax
	movq	(%rax), %rax
	movq	-40(%rbp), %rdx
	movq	%rax, (%rdx)
	movq	-328(%rbp), %rax        ## 8-byte Reload
	movq	%rax, -24(%rbp)
	movq	-24(%rbp), %rdx
	movq	(%rdx), %rdx
	movq	-48(%rbp), %rsi
	movq	%rdx, (%rsi)
	movq	-304(%rbp), %rdx        ## 8-byte Reload
	addq	$8, %rdx
	movq	-296(%rbp), %rsi
	addq	$16, %rsi
	movq	%rdx, -88(%rbp)
	movq	%rsi, -96(%rbp)
	movq	-88(%rbp), %rdx
	movq	%rdx, -80(%rbp)
	movq	-80(%rbp), %rdx
	movq	(%rdx), %rdx
	movq	%rdx, -104(%rbp)
	movq	-96(%rbp), %rdx
	movq	%rdx, -64(%rbp)
	movq	-64(%rbp), %rdx
	movq	(%rdx), %rdx
	movq	-88(%rbp), %rsi
	movq	%rdx, (%rsi)
	movq	-312(%rbp), %rdx        ## 8-byte Reload
	movq	%rdx, -72(%rbp)
	movq	-72(%rbp), %rsi
	movq	(%rsi), %rsi
	movq	-96(%rbp), %rdi
	movq	%rsi, (%rdi)
	movq	-304(%rbp), %rsi        ## 8-byte Reload
	movq	%rsi, -128(%rbp)
	movq	-128(%rbp), %rsi
	addq	$16, %rsi
	movq	%rsi, -120(%rbp)
	movq	-120(%rbp), %rsi
	movq	%rsi, -112(%rbp)
	movq	-112(%rbp), %rsi
	movq	-296(%rbp), %rdi
	movq	%rdi, -152(%rbp)
	movq	-152(%rbp), %rdi
	addq	$24, %rdi
	movq	%rdi, -144(%rbp)
	movq	-144(%rbp), %rdi
	movq	%rdi, -136(%rbp)
	movq	-136(%rbp), %rdi
	movq	%rsi, -184(%rbp)
	movq	%rdi, -192(%rbp)
	movq	-184(%rbp), %rsi
	movq	%rsi, -176(%rbp)
	movq	-176(%rbp), %rsi
	movq	(%rsi), %rsi
	movq	%rsi, -200(%rbp)
	movq	-192(%rbp), %rsi
	movq	%rsi, -160(%rbp)
	movq	-160(%rbp), %rsi
	movq	(%rsi), %rsi
	movq	-184(%rbp), %rdi
	movq	%rsi, (%rdi)
	movq	-320(%rbp), %rsi        ## 8-byte Reload
	movq	%rsi, -168(%rbp)
	movq	-168(%rbp), %rdi
	movq	(%rdi), %rdi
	movq	-192(%rbp), %r8
	movq	%rdi, (%r8)
	movq	-296(%rbp), %rdi
	movq	8(%rdi), %rdi
	movq	-296(%rbp), %r8
	movq	%rdi, (%r8)
	movq	-304(%rbp), %rdi        ## 8-byte Reload
	movq	%rdi, -208(%rbp)
	movq	-208(%rbp), %r8
	movq	8(%r8), %r9
	movq	(%r8), %r8
	subq	%r8, %r9
	sarq	$2, %r9
	movq	%r9, %rsi
	callq	__ZNKSt3__16vectorIiNS_9allocatorIiEEE14__annotate_newEm
	movq	-304(%rbp), %rax        ## 8-byte Reload
	movq	%rax, -256(%rbp)
	addq	$328, %rsp              ## imm = 0x148
	popq	%rbx
	popq	%rbp
	retq
	.cfi_endproc

	.globl	__ZNSt3__114__split_bufferIiRNS_9allocatorIiEEED1Ev
	.weak_def_can_be_hidden	__ZNSt3__114__split_bufferIiRNS_9allocatorIiEEED1Ev
	.align	4, 0x90
__ZNSt3__114__split_bufferIiRNS_9allocatorIiEEED1Ev: ## @_ZNSt3__114__split_bufferIiRNS_9allocatorIiEEED1Ev
	.cfi_startproc
## BB#0:
	pushq	%rbp
Ltmp72:
	.cfi_def_cfa_offset 16
Ltmp73:
	.cfi_offset %rbp, -16
	movq	%rsp, %rbp
Ltmp74:
	.cfi_def_cfa_register %rbp
	subq	$16, %rsp
	movq	%rdi, -8(%rbp)
	movq	-8(%rbp), %rdi
	callq	__ZNSt3__114__split_bufferIiRNS_9allocatorIiEEED2Ev
	addq	$16, %rsp
	popq	%rbp
	retq
	.cfi_endproc

	.globl	__ZNKSt3__16vectorIiNS_9allocatorIiEEE8max_sizeEv
	.weak_def_can_be_hidden	__ZNKSt3__16vectorIiNS_9allocatorIiEEE8max_sizeEv
	.align	4, 0x90
__ZNKSt3__16vectorIiNS_9allocatorIiEEE8max_sizeEv: ## @_ZNKSt3__16vectorIiNS_9allocatorIiEEE8max_sizeEv
	.cfi_startproc
## BB#0:
	pushq	%rbp
Ltmp75:
	.cfi_def_cfa_offset 16
Ltmp76:
	.cfi_offset %rbp, -16
	movq	%rsp, %rbp
Ltmp77:
	.cfi_def_cfa_register %rbp
	subq	$56, %rsp
	leaq	-32(%rbp), %rax
	leaq	-168(%rbp), %rcx
	leaq	-160(%rbp), %rdx
	movq	$-1, %rsi
	movabsq	$4611686018427387903, %r8 ## imm = 0x3FFFFFFFFFFFFFFF
	movq	%rdi, -152(%rbp)
	movq	-152(%rbp), %rdi
	movq	%rdi, -144(%rbp)
	movq	-144(%rbp), %rdi
	addq	$16, %rdi
	movq	%rdi, -136(%rbp)
	movq	-136(%rbp), %rdi
	movq	%rdi, -128(%rbp)
	movq	-128(%rbp), %rdi
	movq	%rdi, -104(%rbp)
	movq	-104(%rbp), %rdi
	movq	%rdi, -96(%rbp)
	movq	-96(%rbp), %rdi
	movq	%rdi, -80(%rbp)
	movq	%r8, -160(%rbp)
	shrq	$1, %rsi
	movq	%rsi, -168(%rbp)
	movq	%rdx, -56(%rbp)
	movq	%rcx, -64(%rbp)
	movq	-56(%rbp), %rcx
	movq	-64(%rbp), %rdx
	movq	%rcx, -40(%rbp)
	movq	%rdx, -48(%rbp)
	movq	-48(%rbp), %rcx
	movq	-40(%rbp), %rdx
	movq	%rax, -8(%rbp)
	movq	%rcx, -16(%rbp)
	movq	%rdx, -24(%rbp)
	movq	-16(%rbp), %rax
	movq	(%rax), %rax
	movq	-24(%rbp), %rcx
	cmpq	(%rcx), %rax
	jae	LBB14_2
## BB#1:
	movq	-48(%rbp), %rax
	movq	%rax, -176(%rbp)        ## 8-byte Spill
	jmp	LBB14_3
LBB14_2:
	movq	-40(%rbp), %rax
	movq	%rax, -176(%rbp)        ## 8-byte Spill
LBB14_3:                                ## %_ZNSt3__13minImEERKT_S3_S3_.exit
	movq	-176(%rbp), %rax        ## 8-byte Reload
	movq	%rax, -184(%rbp)        ## 8-byte Spill
## BB#4:
	movq	-184(%rbp), %rax        ## 8-byte Reload
	movq	(%rax), %rax
	addq	$56, %rsp
	popq	%rbp
	retq
	.cfi_endproc

	.globl	__ZNSt3__114__split_bufferIiRNS_9allocatorIiEEEC2EmmS3_
	.weak_def_can_be_hidden	__ZNSt3__114__split_bufferIiRNS_9allocatorIiEEEC2EmmS3_
	.align	4, 0x90
__ZNSt3__114__split_bufferIiRNS_9allocatorIiEEEC2EmmS3_: ## @_ZNSt3__114__split_bufferIiRNS_9allocatorIiEEEC2EmmS3_
	.cfi_startproc
## BB#0:
	pushq	%rbp
Ltmp78:
	.cfi_def_cfa_offset 16
Ltmp79:
	.cfi_offset %rbp, -16
	movq	%rsp, %rbp
Ltmp80:
	.cfi_def_cfa_register %rbp
	subq	$256, %rsp              ## imm = 0x100
	leaq	-136(%rbp), %rax
	leaq	-168(%rbp), %r8
	movq	%rdi, -208(%rbp)
	movq	%rsi, -216(%rbp)
	movq	%rdx, -224(%rbp)
	movq	%rcx, -232(%rbp)
	movq	-208(%rbp), %rcx
	movq	%rcx, %rdx
	addq	$24, %rdx
	movq	-232(%rbp), %rsi
	movq	%rdx, -184(%rbp)
	movq	$0, -192(%rbp)
	movq	%rsi, -200(%rbp)
	movq	-184(%rbp), %rdx
	movq	-192(%rbp), %rsi
	movq	-200(%rbp), %rdi
	movq	%rdx, -160(%rbp)
	movq	%rsi, -168(%rbp)
	movq	%rdi, -176(%rbp)
	movq	-160(%rbp), %rdx
	movq	%r8, -152(%rbp)
	movq	-152(%rbp), %rsi
	movq	(%rsi), %rsi
	movq	-176(%rbp), %rdi
	movq	%rdi, -104(%rbp)
	movq	-104(%rbp), %rdi
	movq	%rdx, -128(%rbp)
	movq	%rsi, -136(%rbp)
	movq	%rdi, -144(%rbp)
	movq	-128(%rbp), %rdx
	movq	%rax, -120(%rbp)
	movq	-120(%rbp), %rax
	movq	(%rax), %rax
	movq	%rax, (%rdx)
	movq	-144(%rbp), %rax
	movq	%rax, -112(%rbp)
	movq	-112(%rbp), %rax
	movq	%rax, 8(%rdx)
	cmpq	$0, -216(%rbp)
	movq	%rcx, -240(%rbp)        ## 8-byte Spill
	je	LBB15_2
## BB#1:
	movq	-240(%rbp), %rax        ## 8-byte Reload
	movq	%rax, -24(%rbp)
	movq	-24(%rbp), %rcx
	addq	$24, %rcx
	movq	%rcx, -16(%rbp)
	movq	-16(%rbp), %rcx
	movq	%rcx, -8(%rbp)
	movq	-8(%rbp), %rcx
	movq	8(%rcx), %rcx
	movq	-216(%rbp), %rdx
	movq	%rcx, -64(%rbp)
	movq	%rdx, -72(%rbp)
	movq	-64(%rbp), %rcx
	movq	-72(%rbp), %rdx
	movq	%rcx, -40(%rbp)
	movq	%rdx, -48(%rbp)
	movq	$0, -56(%rbp)
	movq	-48(%rbp), %rcx
	shlq	$2, %rcx
	movq	%rcx, -32(%rbp)
	movq	-32(%rbp), %rdi
	callq	__Znwm
	movq	%rax, -248(%rbp)        ## 8-byte Spill
	jmp	LBB15_3
LBB15_2:
	xorl	%eax, %eax
	movl	%eax, %ecx
	movq	%rcx, -248(%rbp)        ## 8-byte Spill
	jmp	LBB15_3
LBB15_3:
	movq	-248(%rbp), %rax        ## 8-byte Reload
	movq	-240(%rbp), %rcx        ## 8-byte Reload
	movq	%rax, (%rcx)
	movq	(%rcx), %rax
	movq	-224(%rbp), %rdx
	shlq	$2, %rdx
	addq	%rdx, %rax
	movq	%rax, 16(%rcx)
	movq	%rax, 8(%rcx)
	movq	(%rcx), %rax
	movq	-216(%rbp), %rdx
	shlq	$2, %rdx
	addq	%rdx, %rax
	movq	%rcx, -96(%rbp)
	movq	-96(%rbp), %rdx
	addq	$24, %rdx
	movq	%rdx, -88(%rbp)
	movq	-88(%rbp), %rdx
	movq	%rdx, -80(%rbp)
	movq	-80(%rbp), %rdx
	movq	%rax, (%rdx)
	addq	$256, %rsp              ## imm = 0x100
	popq	%rbp
	retq
	.cfi_endproc

	.globl	__ZNKSt3__16vectorIiNS_9allocatorIiEEE17__annotate_deleteEv
	.weak_def_can_be_hidden	__ZNKSt3__16vectorIiNS_9allocatorIiEEE17__annotate_deleteEv
	.align	4, 0x90
__ZNKSt3__16vectorIiNS_9allocatorIiEEE17__annotate_deleteEv: ## @_ZNKSt3__16vectorIiNS_9allocatorIiEEE17__annotate_deleteEv
	.cfi_startproc
## BB#0:
	pushq	%rbp
Ltmp81:
	.cfi_def_cfa_offset 16
Ltmp82:
	.cfi_offset %rbp, -16
	movq	%rsp, %rbp
Ltmp83:
	.cfi_def_cfa_register %rbp
	subq	$176, %rsp
	movq	%rdi, -160(%rbp)
	movq	-160(%rbp), %rdi
	movq	%rdi, -152(%rbp)
	movq	-152(%rbp), %rax
	movq	(%rax), %rax
	movq	%rax, -144(%rbp)
	movq	-144(%rbp), %rax
	movq	%rdi, -136(%rbp)
	movq	-136(%rbp), %rcx
	movq	(%rcx), %rcx
	movq	%rcx, -128(%rbp)
	movq	-128(%rbp), %rcx
	movq	%rdi, -40(%rbp)
	movq	-40(%rbp), %rdx
	movq	%rdx, -32(%rbp)
	movq	-32(%rbp), %rdx
	movq	%rdx, -24(%rbp)
	movq	-24(%rbp), %rsi
	addq	$16, %rsi
	movq	%rsi, -16(%rbp)
	movq	-16(%rbp), %rsi
	movq	%rsi, -8(%rbp)
	movq	-8(%rbp), %rsi
	movq	(%rsi), %rsi
	movq	(%rdx), %rdx
	subq	%rdx, %rsi
	sarq	$2, %rsi
	shlq	$2, %rsi
	addq	%rsi, %rcx
	movq	%rdi, -56(%rbp)
	movq	-56(%rbp), %rdx
	movq	(%rdx), %rdx
	movq	%rdx, -48(%rbp)
	movq	-48(%rbp), %rdx
	movq	%rdi, -64(%rbp)
	movq	-64(%rbp), %rsi
	movq	8(%rsi), %r8
	movq	(%rsi), %rsi
	subq	%rsi, %r8
	sarq	$2, %r8
	shlq	$2, %r8
	addq	%r8, %rdx
	movq	%rdi, -80(%rbp)
	movq	-80(%rbp), %rsi
	movq	(%rsi), %rsi
	movq	%rsi, -72(%rbp)
	movq	-72(%rbp), %rsi
	movq	%rdi, -120(%rbp)
	movq	-120(%rbp), %r8
	movq	%r8, -112(%rbp)
	movq	-112(%rbp), %r8
	movq	%r8, -104(%rbp)
	movq	-104(%rbp), %r9
	addq	$16, %r9
	movq	%r9, -96(%rbp)
	movq	-96(%rbp), %r9
	movq	%r9, -88(%rbp)
	movq	-88(%rbp), %r9
	movq	(%r9), %r9
	movq	(%r8), %r8
	subq	%r8, %r9
	sarq	$2, %r9
	shlq	$2, %r9
	addq	%r9, %rsi
	movq	%rsi, -168(%rbp)        ## 8-byte Spill
	movq	%rax, %rsi
	movq	%rdx, -176(%rbp)        ## 8-byte Spill
	movq	%rcx, %rdx
	movq	-176(%rbp), %rcx        ## 8-byte Reload
	movq	-168(%rbp), %r8         ## 8-byte Reload
	callq	__ZNKSt3__16vectorIiNS_9allocatorIiEEE31__annotate_contiguous_containerEPKvS5_S5_S5_
	addq	$176, %rsp
	popq	%rbp
	retq
	.cfi_endproc

	.globl	__ZNKSt3__16vectorIiNS_9allocatorIiEEE14__annotate_newEm
	.weak_def_can_be_hidden	__ZNKSt3__16vectorIiNS_9allocatorIiEEE14__annotate_newEm
	.align	4, 0x90
__ZNKSt3__16vectorIiNS_9allocatorIiEEE14__annotate_newEm: ## @_ZNKSt3__16vectorIiNS_9allocatorIiEEE14__annotate_newEm
	.cfi_startproc
## BB#0:
	pushq	%rbp
Ltmp84:
	.cfi_def_cfa_offset 16
Ltmp85:
	.cfi_offset %rbp, -16
	movq	%rsp, %rbp
Ltmp86:
	.cfi_def_cfa_register %rbp
	subq	$176, %rsp
	movq	%rdi, -152(%rbp)
	movq	%rsi, -160(%rbp)
	movq	-152(%rbp), %rsi
	movq	%rsi, -144(%rbp)
	movq	-144(%rbp), %rdi
	movq	(%rdi), %rdi
	movq	%rdi, -136(%rbp)
	movq	-136(%rbp), %rdi
	movq	%rsi, -128(%rbp)
	movq	-128(%rbp), %rax
	movq	(%rax), %rax
	movq	%rax, -120(%rbp)
	movq	-120(%rbp), %rax
	movq	%rsi, -40(%rbp)
	movq	-40(%rbp), %rcx
	movq	%rcx, -32(%rbp)
	movq	-32(%rbp), %rcx
	movq	%rcx, -24(%rbp)
	movq	-24(%rbp), %rdx
	addq	$16, %rdx
	movq	%rdx, -16(%rbp)
	movq	-16(%rbp), %rdx
	movq	%rdx, -8(%rbp)
	movq	-8(%rbp), %rdx
	movq	(%rdx), %rdx
	movq	(%rcx), %rcx
	subq	%rcx, %rdx
	sarq	$2, %rdx
	shlq	$2, %rdx
	addq	%rdx, %rax
	movq	%rsi, -56(%rbp)
	movq	-56(%rbp), %rcx
	movq	(%rcx), %rcx
	movq	%rcx, -48(%rbp)
	movq	-48(%rbp), %rcx
	movq	%rsi, -96(%rbp)
	movq	-96(%rbp), %rdx
	movq	%rdx, -88(%rbp)
	movq	-88(%rbp), %rdx
	movq	%rdx, -80(%rbp)
	movq	-80(%rbp), %r8
	addq	$16, %r8
	movq	%r8, -72(%rbp)
	movq	-72(%rbp), %r8
	movq	%r8, -64(%rbp)
	movq	-64(%rbp), %r8
	movq	(%r8), %r8
	movq	(%rdx), %rdx
	subq	%rdx, %r8
	sarq	$2, %r8
	shlq	$2, %r8
	addq	%r8, %rcx
	movq	%rsi, -112(%rbp)
	movq	-112(%rbp), %rdx
	movq	(%rdx), %rdx
	movq	%rdx, -104(%rbp)
	movq	-104(%rbp), %rdx
	movq	-160(%rbp), %r8
	shlq	$2, %r8
	addq	%r8, %rdx
	movq	%rdi, -168(%rbp)        ## 8-byte Spill
	movq	%rsi, %rdi
	movq	-168(%rbp), %rsi        ## 8-byte Reload
	movq	%rdx, -176(%rbp)        ## 8-byte Spill
	movq	%rax, %rdx
	movq	-176(%rbp), %r8         ## 8-byte Reload
	callq	__ZNKSt3__16vectorIiNS_9allocatorIiEEE31__annotate_contiguous_containerEPKvS5_S5_S5_
	addq	$176, %rsp
	popq	%rbp
	retq
	.cfi_endproc

	.globl	__ZNKSt3__16vectorIiNS_9allocatorIiEEE31__annotate_contiguous_containerEPKvS5_S5_S5_
	.weak_def_can_be_hidden	__ZNKSt3__16vectorIiNS_9allocatorIiEEE31__annotate_contiguous_containerEPKvS5_S5_S5_
	.align	4, 0x90
__ZNKSt3__16vectorIiNS_9allocatorIiEEE31__annotate_contiguous_containerEPKvS5_S5_S5_: ## @_ZNKSt3__16vectorIiNS_9allocatorIiEEE31__annotate_contiguous_containerEPKvS5_S5_S5_
	.cfi_startproc
## BB#0:
	pushq	%rbp
Ltmp87:
	.cfi_def_cfa_offset 16
Ltmp88:
	.cfi_offset %rbp, -16
	movq	%rsp, %rbp
Ltmp89:
	.cfi_def_cfa_register %rbp
	movq	%rdi, -8(%rbp)
	movq	%rsi, -16(%rbp)
	movq	%rdx, -24(%rbp)
	movq	%rcx, -32(%rbp)
	movq	%r8, -40(%rbp)
	popq	%rbp
	retq
	.cfi_endproc

	.globl	__ZNSt3__114__split_bufferIiRNS_9allocatorIiEEED2Ev
	.weak_def_can_be_hidden	__ZNSt3__114__split_bufferIiRNS_9allocatorIiEEED2Ev
	.align	4, 0x90
__ZNSt3__114__split_bufferIiRNS_9allocatorIiEEED2Ev: ## @_ZNSt3__114__split_bufferIiRNS_9allocatorIiEEED2Ev
	.cfi_startproc
## BB#0:
	pushq	%rbp
Ltmp90:
	.cfi_def_cfa_offset 16
Ltmp91:
	.cfi_offset %rbp, -16
	movq	%rsp, %rbp
Ltmp92:
	.cfi_def_cfa_register %rbp
	subq	$320, %rsp              ## imm = 0x140
	movq	%rdi, -280(%rbp)
	movq	-280(%rbp), %rdi
	movq	%rdi, -272(%rbp)
	movq	-272(%rbp), %rax
	movq	8(%rax), %rcx
	movq	%rax, -248(%rbp)
	movq	%rcx, -256(%rbp)
	movq	-248(%rbp), %rax
	movq	-256(%rbp), %rcx
	movq	%rax, -232(%rbp)
	movq	%rcx, -240(%rbp)
	movq	-232(%rbp), %rax
	movq	%rdi, -288(%rbp)        ## 8-byte Spill
	movq	%rax, -296(%rbp)        ## 8-byte Spill
LBB19_1:                                ## =>This Inner Loop Header: Depth=1
	movq	-240(%rbp), %rax
	movq	-296(%rbp), %rcx        ## 8-byte Reload
	cmpq	16(%rcx), %rax
	je	LBB19_3
## BB#2:                                ##   in Loop: Header=BB19_1 Depth=1
	movq	-296(%rbp), %rax        ## 8-byte Reload
	movq	%rax, -216(%rbp)
	movq	-216(%rbp), %rcx
	addq	$24, %rcx
	movq	%rcx, -208(%rbp)
	movq	-208(%rbp), %rcx
	movq	%rcx, -200(%rbp)
	movq	-200(%rbp), %rcx
	movq	8(%rcx), %rcx
	movq	16(%rax), %rdx
	addq	$-4, %rdx
	movq	%rdx, 16(%rax)
	movq	%rdx, -192(%rbp)
	movq	-192(%rbp), %rdx
	movq	%rcx, -160(%rbp)
	movq	%rdx, -168(%rbp)
	movq	-160(%rbp), %rcx
	movq	-168(%rbp), %rdx
	movq	%rcx, -144(%rbp)
	movq	%rdx, -152(%rbp)
	movq	-144(%rbp), %rcx
	movq	-152(%rbp), %rdx
	movq	%rcx, -120(%rbp)
	movq	%rdx, -128(%rbp)
	jmp	LBB19_1
LBB19_3:                                ## %_ZNSt3__114__split_bufferIiRNS_9allocatorIiEEE5clearEv.exit
	movq	-288(%rbp), %rax        ## 8-byte Reload
	cmpq	$0, (%rax)
	je	LBB19_6
## BB#4:
	movq	-288(%rbp), %rax        ## 8-byte Reload
	movq	%rax, -112(%rbp)
	movq	-112(%rbp), %rcx
	addq	$24, %rcx
	movq	%rcx, -104(%rbp)
	movq	-104(%rbp), %rcx
	movq	%rcx, -96(%rbp)
	movq	-96(%rbp), %rcx
	movq	8(%rcx), %rcx
	movq	(%rax), %rdx
	movq	%rax, -32(%rbp)
	movq	-32(%rbp), %rsi
	movq	%rsi, -24(%rbp)
	movq	-24(%rbp), %rdi
	addq	$24, %rdi
	movq	%rdi, -16(%rbp)
	movq	-16(%rbp), %rdi
	movq	%rdi, -8(%rbp)
	movq	-8(%rbp), %rdi
	movq	(%rdi), %rdi
	movq	(%rsi), %rsi
	subq	%rsi, %rdi
	sarq	$2, %rdi
	movq	%rcx, -304(%rbp)        ## 8-byte Spill
	movq	%rdx, -312(%rbp)        ## 8-byte Spill
	movq	%rdi, -320(%rbp)        ## 8-byte Spill
## BB#5:
	movq	-304(%rbp), %rax        ## 8-byte Reload
	movq	%rax, -72(%rbp)
	movq	-312(%rbp), %rcx        ## 8-byte Reload
	movq	%rcx, -80(%rbp)
	movq	-320(%rbp), %rdx        ## 8-byte Reload
	movq	%rdx, -88(%rbp)
	movq	-72(%rbp), %rsi
	movq	-80(%rbp), %rdi
	movq	-88(%rbp), %r8
	movq	%rsi, -48(%rbp)
	movq	%rdi, -56(%rbp)
	movq	%r8, -64(%rbp)
	movq	-56(%rbp), %rsi
	movq	%rsi, -40(%rbp)
	movq	-40(%rbp), %rdi
	callq	__ZdlPv
LBB19_6:
	addq	$320, %rsp              ## imm = 0x140
	popq	%rbp
	retq
	.cfi_endproc

	.globl	__ZNSt3__124__put_character_sequenceIcNS_11char_traitsIcEEEERNS_13basic_ostreamIT_T0_EES7_PKS4_m
	.weak_def_can_be_hidden	__ZNSt3__124__put_character_sequenceIcNS_11char_traitsIcEEEERNS_13basic_ostreamIT_T0_EES7_PKS4_m
	.align	4, 0x90
__ZNSt3__124__put_character_sequenceIcNS_11char_traitsIcEEEERNS_13basic_ostreamIT_T0_EES7_PKS4_m: ## @_ZNSt3__124__put_character_sequenceIcNS_11char_traitsIcEEEERNS_13basic_ostreamIT_T0_EES7_PKS4_m
Lfunc_begin20:
	.cfi_startproc
	.cfi_personality 155, ___gxx_personality_v0
	.cfi_lsda 16, Lexception20
## BB#0:
	pushq	%rbp
Ltmp114:
	.cfi_def_cfa_offset 16
Ltmp115:
	.cfi_offset %rbp, -16
	movq	%rsp, %rbp
Ltmp116:
	.cfi_def_cfa_register %rbp
	subq	$384, %rsp              ## imm = 0x180
	movq	%rdi, -184(%rbp)
	movq	%rsi, -192(%rbp)
	movq	%rdx, -200(%rbp)
	movq	-184(%rbp), %rsi
Ltmp93:
	leaq	-216(%rbp), %rdi
	callq	__ZNSt3__113basic_ostreamIcNS_11char_traitsIcEEE6sentryC1ERS3_
Ltmp94:
	jmp	LBB20_1
LBB20_1:
	leaq	-216(%rbp), %rax
	movq	%rax, -176(%rbp)
	movq	-176(%rbp), %rax
	movb	(%rax), %cl
	movb	%cl, -249(%rbp)         ## 1-byte Spill
## BB#2:
	movb	-249(%rbp), %al         ## 1-byte Reload
	testb	$1, %al
	jne	LBB20_3
	jmp	LBB20_26
LBB20_3:
	leaq	-240(%rbp), %rax
	movq	-184(%rbp), %rcx
	movq	%rax, -160(%rbp)
	movq	%rcx, -168(%rbp)
	movq	-160(%rbp), %rax
	movq	-168(%rbp), %rcx
	movq	%rax, -144(%rbp)
	movq	%rcx, -152(%rbp)
	movq	-144(%rbp), %rax
	movq	-152(%rbp), %rcx
	movq	(%rcx), %rdx
	movq	-24(%rdx), %rdx
	addq	%rdx, %rcx
	movq	%rcx, -136(%rbp)
	movq	-136(%rbp), %rcx
	movq	%rcx, -128(%rbp)
	movq	-128(%rbp), %rcx
	movq	40(%rcx), %rcx
	movq	%rcx, (%rax)
	movq	-192(%rbp), %rsi
	movq	-184(%rbp), %rax
	movq	(%rax), %rcx
	movq	-24(%rcx), %rcx
	addq	%rcx, %rax
	movq	%rax, -88(%rbp)
	movq	-88(%rbp), %rax
	movl	8(%rax), %edi
	movq	%rsi, -264(%rbp)        ## 8-byte Spill
	movl	%edi, -268(%rbp)        ## 4-byte Spill
## BB#4:
	movl	-268(%rbp), %eax        ## 4-byte Reload
	andl	$176, %eax
	cmpl	$32, %eax
	jne	LBB20_6
## BB#5:
	movq	-192(%rbp), %rax
	addq	-200(%rbp), %rax
	movq	%rax, -280(%rbp)        ## 8-byte Spill
	jmp	LBB20_7
LBB20_6:
	movq	-192(%rbp), %rax
	movq	%rax, -280(%rbp)        ## 8-byte Spill
LBB20_7:
	movq	-280(%rbp), %rax        ## 8-byte Reload
	movq	-192(%rbp), %rcx
	addq	-200(%rbp), %rcx
	movq	-184(%rbp), %rdx
	movq	(%rdx), %rsi
	movq	-24(%rsi), %rsi
	addq	%rsi, %rdx
	movq	-184(%rbp), %rsi
	movq	(%rsi), %rdi
	movq	-24(%rdi), %rdi
	addq	%rdi, %rsi
	movq	%rsi, -72(%rbp)
	movq	-72(%rbp), %rsi
	movq	%rax, -288(%rbp)        ## 8-byte Spill
	movq	%rcx, -296(%rbp)        ## 8-byte Spill
	movq	%rdx, -304(%rbp)        ## 8-byte Spill
	movq	%rsi, -312(%rbp)        ## 8-byte Spill
	callq	__ZNSt3__111char_traitsIcE3eofEv
	movq	-312(%rbp), %rcx        ## 8-byte Reload
	movl	144(%rcx), %esi
	movl	%eax, %edi
	callq	__ZNSt3__111char_traitsIcE11eq_int_typeEii
	testb	$1, %al
	jne	LBB20_8
	jmp	LBB20_13
LBB20_8:
	movq	-312(%rbp), %rax        ## 8-byte Reload
	movq	%rax, -32(%rbp)
	movb	$32, -33(%rbp)
	movq	-32(%rbp), %rsi
Ltmp96:
	leaq	-48(%rbp), %rdi
	callq	__ZNKSt3__18ios_base6getlocEv
Ltmp97:
	jmp	LBB20_9
LBB20_9:                                ## %.noexc
	leaq	-48(%rbp), %rax
	movq	%rax, -24(%rbp)
Ltmp98:
	movq	__ZNSt3__15ctypeIcE2idE@GOTPCREL(%rip), %rsi
	movq	%rax, %rdi
	callq	__ZNKSt3__16locale9use_facetERNS0_2idE
Ltmp99:
	movq	%rax, -320(%rbp)        ## 8-byte Spill
	jmp	LBB20_10
LBB20_10:                               ## %_ZNSt3__19use_facetINS_5ctypeIcEEEERKT_RKNS_6localeE.exit.i.i
	movb	-33(%rbp), %al
	movq	-320(%rbp), %rcx        ## 8-byte Reload
	movq	%rcx, -8(%rbp)
	movb	%al, -9(%rbp)
	movq	-8(%rbp), %rdx
	movq	(%rdx), %rsi
	movq	56(%rsi), %rsi
	movsbl	-9(%rbp), %edi
Ltmp100:
	movl	%edi, -324(%rbp)        ## 4-byte Spill
	movq	%rdx, %rdi
	movl	-324(%rbp), %r8d        ## 4-byte Reload
	movq	%rsi, -336(%rbp)        ## 8-byte Spill
	movl	%r8d, %esi
	movq	-336(%rbp), %rdx        ## 8-byte Reload
	callq	*%rdx
Ltmp101:
	movb	%al, -337(%rbp)         ## 1-byte Spill
	jmp	LBB20_12
LBB20_11:
Ltmp102:
	movl	%edx, %ecx
	movq	%rax, -56(%rbp)
	movl	%ecx, -60(%rbp)
	leaq	-48(%rbp), %rdi
	callq	__ZNSt3__16localeD1Ev
	movq	-56(%rbp), %rax
	movl	-60(%rbp), %ecx
	movq	%rax, -352(%rbp)        ## 8-byte Spill
	movl	%ecx, -356(%rbp)        ## 4-byte Spill
	jmp	LBB20_21
LBB20_12:                               ## %_ZNKSt3__19basic_iosIcNS_11char_traitsIcEEE5widenEc.exit.i
	leaq	-48(%rbp), %rdi
	callq	__ZNSt3__16localeD1Ev
	movb	-337(%rbp), %al         ## 1-byte Reload
	movsbl	%al, %ecx
	movq	-312(%rbp), %rdi        ## 8-byte Reload
	movl	%ecx, 144(%rdi)
LBB20_13:                               ## %_ZNKSt3__19basic_iosIcNS_11char_traitsIcEEE4fillEv.exit
	movq	-312(%rbp), %rax        ## 8-byte Reload
	movl	144(%rax), %ecx
	movb	%cl, %dl
	movb	%dl, -357(%rbp)         ## 1-byte Spill
## BB#14:
	movq	-240(%rbp), %rdi
Ltmp103:
	movb	-357(%rbp), %al         ## 1-byte Reload
	movsbl	%al, %r9d
	movq	-264(%rbp), %rsi        ## 8-byte Reload
	movq	-288(%rbp), %rdx        ## 8-byte Reload
	movq	-296(%rbp), %rcx        ## 8-byte Reload
	movq	-304(%rbp), %r8         ## 8-byte Reload
	callq	__ZNSt3__116__pad_and_outputIcNS_11char_traitsIcEEEENS_19ostreambuf_iteratorIT_T0_EES6_PKS4_S8_S8_RNS_8ios_baseES4_
Ltmp104:
	movq	%rax, -368(%rbp)        ## 8-byte Spill
	jmp	LBB20_15
LBB20_15:
	leaq	-248(%rbp), %rax
	movq	-368(%rbp), %rcx        ## 8-byte Reload
	movq	%rcx, -248(%rbp)
	movq	%rax, -80(%rbp)
	movq	-80(%rbp), %rax
	cmpq	$0, (%rax)
	jne	LBB20_25
## BB#16:
	movq	-184(%rbp), %rax
	movq	(%rax), %rcx
	movq	-24(%rcx), %rcx
	addq	%rcx, %rax
	movq	%rax, -112(%rbp)
	movl	$5, -116(%rbp)
	movq	-112(%rbp), %rax
	movq	%rax, -96(%rbp)
	movl	$5, -100(%rbp)
	movq	-96(%rbp), %rax
	movl	32(%rax), %edx
	orl	$5, %edx
Ltmp105:
	movq	%rax, %rdi
	movl	%edx, %esi
	callq	__ZNSt3__18ios_base5clearEj
Ltmp106:
	jmp	LBB20_17
LBB20_17:                               ## %_ZNSt3__19basic_iosIcNS_11char_traitsIcEEE8setstateEj.exit
	jmp	LBB20_18
LBB20_18:
	jmp	LBB20_25
LBB20_19:
Ltmp95:
	movl	%edx, %ecx
	movq	%rax, -224(%rbp)
	movl	%ecx, -228(%rbp)
	jmp	LBB20_22
LBB20_20:
Ltmp107:
	movl	%edx, %ecx
	movq	%rax, -352(%rbp)        ## 8-byte Spill
	movl	%ecx, -356(%rbp)        ## 4-byte Spill
	jmp	LBB20_21
LBB20_21:                               ## %.body
	movl	-356(%rbp), %eax        ## 4-byte Reload
	movq	-352(%rbp), %rcx        ## 8-byte Reload
	leaq	-216(%rbp), %rdi
	movq	%rcx, -224(%rbp)
	movl	%eax, -228(%rbp)
	callq	__ZNSt3__113basic_ostreamIcNS_11char_traitsIcEEE6sentryD1Ev
LBB20_22:
	movq	-224(%rbp), %rdi
	callq	___cxa_begin_catch
	movq	-184(%rbp), %rdi
	movq	(%rdi), %rcx
	movq	-24(%rcx), %rcx
	addq	%rcx, %rdi
Ltmp108:
	movq	%rax, -376(%rbp)        ## 8-byte Spill
	callq	__ZNSt3__18ios_base33__set_badbit_and_consider_rethrowEv
Ltmp109:
	jmp	LBB20_23
LBB20_23:
	callq	___cxa_end_catch
LBB20_24:
	movq	-184(%rbp), %rax
	addq	$384, %rsp              ## imm = 0x180
	popq	%rbp
	retq
LBB20_25:
	jmp	LBB20_26
LBB20_26:
	leaq	-216(%rbp), %rdi
	callq	__ZNSt3__113basic_ostreamIcNS_11char_traitsIcEEE6sentryD1Ev
	jmp	LBB20_24
LBB20_27:
Ltmp110:
	movl	%edx, %ecx
	movq	%rax, -224(%rbp)
	movl	%ecx, -228(%rbp)
Ltmp111:
	callq	___cxa_end_catch
Ltmp112:
	jmp	LBB20_28
LBB20_28:
	jmp	LBB20_29
LBB20_29:
	movq	-224(%rbp), %rdi
	callq	__Unwind_Resume
LBB20_30:
Ltmp113:
	movl	%edx, %ecx
	movq	%rax, %rdi
	movl	%ecx, -380(%rbp)        ## 4-byte Spill
	callq	___clang_call_terminate
Lfunc_end20:
	.cfi_endproc
	.section	__TEXT,__gcc_except_tab
	.align	2
GCC_except_table20:
Lexception20:
	.byte	255                     ## @LPStart Encoding = omit
	.byte	155                     ## @TType Encoding = indirect pcrel sdata4
	.asciz	"\201\201\200\200"      ## @TType base offset
	.byte	3                       ## Call site Encoding = udata4
	.byte	117                     ## Call site table length
Lset19 = Ltmp93-Lfunc_begin20           ## >> Call Site 1 <<
	.long	Lset19
Lset20 = Ltmp94-Ltmp93                  ##   Call between Ltmp93 and Ltmp94
	.long	Lset20
Lset21 = Ltmp95-Lfunc_begin20           ##     jumps to Ltmp95
	.long	Lset21
	.byte	5                       ##   On action: 3
Lset22 = Ltmp96-Lfunc_begin20           ## >> Call Site 2 <<
	.long	Lset22
Lset23 = Ltmp97-Ltmp96                  ##   Call between Ltmp96 and Ltmp97
	.long	Lset23
Lset24 = Ltmp107-Lfunc_begin20          ##     jumps to Ltmp107
	.long	Lset24
	.byte	5                       ##   On action: 3
Lset25 = Ltmp98-Lfunc_begin20           ## >> Call Site 3 <<
	.long	Lset25
Lset26 = Ltmp101-Ltmp98                 ##   Call between Ltmp98 and Ltmp101
	.long	Lset26
Lset27 = Ltmp102-Lfunc_begin20          ##     jumps to Ltmp102
	.long	Lset27
	.byte	3                       ##   On action: 2
Lset28 = Ltmp103-Lfunc_begin20          ## >> Call Site 4 <<
	.long	Lset28
Lset29 = Ltmp106-Ltmp103                ##   Call between Ltmp103 and Ltmp106
	.long	Lset29
Lset30 = Ltmp107-Lfunc_begin20          ##     jumps to Ltmp107
	.long	Lset30
	.byte	5                       ##   On action: 3
Lset31 = Ltmp106-Lfunc_begin20          ## >> Call Site 5 <<
	.long	Lset31
Lset32 = Ltmp108-Ltmp106                ##   Call between Ltmp106 and Ltmp108
	.long	Lset32
	.long	0                       ##     has no landing pad
	.byte	0                       ##   On action: cleanup
Lset33 = Ltmp108-Lfunc_begin20          ## >> Call Site 6 <<
	.long	Lset33
Lset34 = Ltmp109-Ltmp108                ##   Call between Ltmp108 and Ltmp109
	.long	Lset34
Lset35 = Ltmp110-Lfunc_begin20          ##     jumps to Ltmp110
	.long	Lset35
	.byte	0                       ##   On action: cleanup
Lset36 = Ltmp109-Lfunc_begin20          ## >> Call Site 7 <<
	.long	Lset36
Lset37 = Ltmp111-Ltmp109                ##   Call between Ltmp109 and Ltmp111
	.long	Lset37
	.long	0                       ##     has no landing pad
	.byte	0                       ##   On action: cleanup
Lset38 = Ltmp111-Lfunc_begin20          ## >> Call Site 8 <<
	.long	Lset38
Lset39 = Ltmp112-Ltmp111                ##   Call between Ltmp111 and Ltmp112
	.long	Lset39
Lset40 = Ltmp113-Lfunc_begin20          ##     jumps to Ltmp113
	.long	Lset40
	.byte	5                       ##   On action: 3
Lset41 = Ltmp112-Lfunc_begin20          ## >> Call Site 9 <<
	.long	Lset41
Lset42 = Lfunc_end20-Ltmp112            ##   Call between Ltmp112 and Lfunc_end20
	.long	Lset42
	.long	0                       ##     has no landing pad
	.byte	0                       ##   On action: cleanup
	.byte	0                       ## >> Action Record 1 <<
                                        ##   Cleanup
	.byte	0                       ##   No further actions
	.byte	1                       ## >> Action Record 2 <<
                                        ##   Catch TypeInfo 1
	.byte	125                     ##   Continue to action 1
	.byte	1                       ## >> Action Record 3 <<
                                        ##   Catch TypeInfo 1
	.byte	0                       ##   No further actions
                                        ## >> Catch TypeInfos <<
	.long	0                       ## TypeInfo 1
	.align	2

	.section	__TEXT,__textcoal_nt,coalesced,pure_instructions
	.globl	__ZNSt3__111char_traitsIcE6lengthEPKc
	.weak_def_can_be_hidden	__ZNSt3__111char_traitsIcE6lengthEPKc
	.align	4, 0x90
__ZNSt3__111char_traitsIcE6lengthEPKc:  ## @_ZNSt3__111char_traitsIcE6lengthEPKc
	.cfi_startproc
## BB#0:
	pushq	%rbp
Ltmp117:
	.cfi_def_cfa_offset 16
Ltmp118:
	.cfi_offset %rbp, -16
	movq	%rsp, %rbp
Ltmp119:
	.cfi_def_cfa_register %rbp
	subq	$16, %rsp
	movq	%rdi, -8(%rbp)
	movq	-8(%rbp), %rdi
	callq	_strlen
	addq	$16, %rsp
	popq	%rbp
	retq
	.cfi_endproc

	.private_extern	__ZNSt3__116__pad_and_outputIcNS_11char_traitsIcEEEENS_19ostreambuf_iteratorIT_T0_EES6_PKS4_S8_S8_RNS_8ios_baseES4_
	.globl	__ZNSt3__116__pad_and_outputIcNS_11char_traitsIcEEEENS_19ostreambuf_iteratorIT_T0_EES6_PKS4_S8_S8_RNS_8ios_baseES4_
	.weak_def_can_be_hidden	__ZNSt3__116__pad_and_outputIcNS_11char_traitsIcEEEENS_19ostreambuf_iteratorIT_T0_EES6_PKS4_S8_S8_RNS_8ios_baseES4_
	.align	4, 0x90
__ZNSt3__116__pad_and_outputIcNS_11char_traitsIcEEEENS_19ostreambuf_iteratorIT_T0_EES6_PKS4_S8_S8_RNS_8ios_baseES4_: ## @_ZNSt3__116__pad_and_outputIcNS_11char_traitsIcEEEENS_19ostreambuf_iteratorIT_T0_EES6_PKS4_S8_S8_RNS_8ios_baseES4_
Lfunc_begin22:
	.cfi_startproc
	.cfi_personality 155, ___gxx_personality_v0
	.cfi_lsda 16, Lexception22
## BB#0:
	pushq	%rbp
Ltmp123:
	.cfi_def_cfa_offset 16
Ltmp124:
	.cfi_offset %rbp, -16
	movq	%rsp, %rbp
Ltmp125:
	.cfi_def_cfa_register %rbp
	subq	$480, %rsp              ## imm = 0x1E0
	movb	%r9b, %al
	movq	%rdi, -312(%rbp)
	movq	%rsi, -320(%rbp)
	movq	%rdx, -328(%rbp)
	movq	%rcx, -336(%rbp)
	movq	%r8, -344(%rbp)
	movb	%al, -345(%rbp)
	cmpq	$0, -312(%rbp)
	jne	LBB22_2
## BB#1:
	movq	-312(%rbp), %rax
	movq	%rax, -304(%rbp)
	jmp	LBB22_26
LBB22_2:
	movq	-336(%rbp), %rax
	movq	-320(%rbp), %rcx
	subq	%rcx, %rax
	movq	%rax, -360(%rbp)
	movq	-344(%rbp), %rax
	movq	%rax, -296(%rbp)
	movq	-296(%rbp), %rax
	movq	24(%rax), %rax
	movq	%rax, -368(%rbp)
	movq	-368(%rbp), %rax
	cmpq	-360(%rbp), %rax
	jle	LBB22_4
## BB#3:
	movq	-360(%rbp), %rax
	movq	-368(%rbp), %rcx
	subq	%rax, %rcx
	movq	%rcx, -368(%rbp)
	jmp	LBB22_5
LBB22_4:
	movq	$0, -368(%rbp)
LBB22_5:
	movq	-328(%rbp), %rax
	movq	-320(%rbp), %rcx
	subq	%rcx, %rax
	movq	%rax, -376(%rbp)
	cmpq	$0, -376(%rbp)
	jle	LBB22_9
## BB#6:
	movq	-312(%rbp), %rax
	movq	-320(%rbp), %rcx
	movq	-376(%rbp), %rdx
	movq	%rax, -224(%rbp)
	movq	%rcx, -232(%rbp)
	movq	%rdx, -240(%rbp)
	movq	-224(%rbp), %rax
	movq	(%rax), %rcx
	movq	96(%rcx), %rcx
	movq	-232(%rbp), %rsi
	movq	-240(%rbp), %rdx
	movq	%rax, %rdi
	callq	*%rcx
	cmpq	-376(%rbp), %rax
	je	LBB22_8
## BB#7:
	movq	$0, -312(%rbp)
	movq	-312(%rbp), %rax
	movq	%rax, -304(%rbp)
	jmp	LBB22_26
LBB22_8:
	jmp	LBB22_9
LBB22_9:
	cmpq	$0, -368(%rbp)
	jle	LBB22_21
## BB#10:
	leaq	-400(%rbp), %rax
	movq	-368(%rbp), %rcx
	movb	-345(%rbp), %dl
	movq	%rax, -200(%rbp)
	movq	%rcx, -208(%rbp)
	movb	%dl, -209(%rbp)
	movq	-200(%rbp), %rax
	movq	-208(%rbp), %rcx
	movb	-209(%rbp), %dl
	movq	%rax, -176(%rbp)
	movq	%rcx, -184(%rbp)
	movb	%dl, -185(%rbp)
	movq	-176(%rbp), %rax
	movq	%rax, -168(%rbp)
	movq	-168(%rbp), %rcx
	movq	%rcx, -160(%rbp)
	movq	-160(%rbp), %rcx
	movq	%rcx, -152(%rbp)
	movq	-152(%rbp), %rcx
	movq	%rcx, -144(%rbp)
	movq	-184(%rbp), %rsi
	movq	%rax, %rdi
	movsbl	-185(%rbp), %edx
	callq	__ZNSt3__112basic_stringIcNS_11char_traitsIcEENS_9allocatorIcEEE6__initEmc
	leaq	-400(%rbp), %rax
	movq	-312(%rbp), %rcx
	movq	%rax, -136(%rbp)
	movq	-136(%rbp), %rax
	movq	%rax, -128(%rbp)
	movq	-128(%rbp), %rax
	movq	%rax, -120(%rbp)
	movq	-120(%rbp), %rsi
	movq	%rsi, -112(%rbp)
	movq	-112(%rbp), %rsi
	movq	%rsi, -104(%rbp)
	movq	-104(%rbp), %rsi
	movzbl	(%rsi), %edx
	andl	$1, %edx
	cmpl	$0, %edx
	movq	%rcx, -424(%rbp)        ## 8-byte Spill
	movq	%rax, -432(%rbp)        ## 8-byte Spill
	je	LBB22_12
## BB#11:
	movq	-432(%rbp), %rax        ## 8-byte Reload
	movq	%rax, -56(%rbp)
	movq	-56(%rbp), %rcx
	movq	%rcx, -48(%rbp)
	movq	-48(%rbp), %rcx
	movq	%rcx, -40(%rbp)
	movq	-40(%rbp), %rcx
	movq	16(%rcx), %rcx
	movq	%rcx, -440(%rbp)        ## 8-byte Spill
	jmp	LBB22_13
LBB22_12:
	movq	-432(%rbp), %rax        ## 8-byte Reload
	movq	%rax, -96(%rbp)
	movq	-96(%rbp), %rcx
	movq	%rcx, -88(%rbp)
	movq	-88(%rbp), %rcx
	movq	%rcx, -80(%rbp)
	movq	-80(%rbp), %rcx
	addq	$1, %rcx
	movq	%rcx, -72(%rbp)
	movq	-72(%rbp), %rcx
	movq	%rcx, -64(%rbp)
	movq	-64(%rbp), %rcx
	movq	%rcx, -440(%rbp)        ## 8-byte Spill
LBB22_13:                               ## %_ZNKSt3__112basic_stringIcNS_11char_traitsIcEENS_9allocatorIcEEE4dataEv.exit
	movq	-440(%rbp), %rax        ## 8-byte Reload
	movq	%rax, -32(%rbp)
	movq	-368(%rbp), %rcx
	movq	-424(%rbp), %rdx        ## 8-byte Reload
	movq	%rdx, -8(%rbp)
	movq	%rax, -16(%rbp)
	movq	%rcx, -24(%rbp)
	movq	-8(%rbp), %rax
	movq	(%rax), %rsi
	movq	96(%rsi), %rsi
	movq	-16(%rbp), %rdi
Ltmp120:
	movq	%rdi, -448(%rbp)        ## 8-byte Spill
	movq	%rax, %rdi
	movq	-448(%rbp), %rax        ## 8-byte Reload
	movq	%rsi, -456(%rbp)        ## 8-byte Spill
	movq	%rax, %rsi
	movq	%rcx, %rdx
	movq	-456(%rbp), %rcx        ## 8-byte Reload
	callq	*%rcx
Ltmp121:
	movq	%rax, -464(%rbp)        ## 8-byte Spill
	jmp	LBB22_14
LBB22_14:                               ## %_ZNSt3__115basic_streambufIcNS_11char_traitsIcEEE5sputnEPKcl.exit
	jmp	LBB22_15
LBB22_15:
	movq	-464(%rbp), %rax        ## 8-byte Reload
	cmpq	-368(%rbp), %rax
	je	LBB22_18
## BB#16:
	movq	$0, -312(%rbp)
	movq	-312(%rbp), %rax
	movq	%rax, -304(%rbp)
	movl	$1, -416(%rbp)
	jmp	LBB22_19
LBB22_17:
Ltmp122:
	leaq	-400(%rbp), %rdi
	movl	%edx, %ecx
	movq	%rax, -408(%rbp)
	movl	%ecx, -412(%rbp)
	callq	__ZNSt3__112basic_stringIcNS_11char_traitsIcEENS_9allocatorIcEEED1Ev
	jmp	LBB22_27
LBB22_18:
	movl	$0, -416(%rbp)
LBB22_19:
	leaq	-400(%rbp), %rdi
	callq	__ZNSt3__112basic_stringIcNS_11char_traitsIcEENS_9allocatorIcEEED1Ev
	movl	-416(%rbp), %eax
	subl	$1, %eax
	movl	%eax, -468(%rbp)        ## 4-byte Spill
	je	LBB22_26
	jmp	LBB22_20
LBB22_20:
	jmp	LBB22_21
LBB22_21:
	movq	-336(%rbp), %rax
	movq	-328(%rbp), %rcx
	subq	%rcx, %rax
	movq	%rax, -376(%rbp)
	cmpq	$0, -376(%rbp)
	jle	LBB22_25
## BB#22:
	movq	-312(%rbp), %rax
	movq	-328(%rbp), %rcx
	movq	-376(%rbp), %rdx
	movq	%rax, -248(%rbp)
	movq	%rcx, -256(%rbp)
	movq	%rdx, -264(%rbp)
	movq	-248(%rbp), %rax
	movq	(%rax), %rcx
	movq	96(%rcx), %rcx
	movq	-256(%rbp), %rsi
	movq	-264(%rbp), %rdx
	movq	%rax, %rdi
	callq	*%rcx
	cmpq	-376(%rbp), %rax
	je	LBB22_24
## BB#23:
	movq	$0, -312(%rbp)
	movq	-312(%rbp), %rax
	movq	%rax, -304(%rbp)
	jmp	LBB22_26
LBB22_24:
	jmp	LBB22_25
LBB22_25:
	movq	-344(%rbp), %rax
	movq	%rax, -272(%rbp)
	movq	$0, -280(%rbp)
	movq	-272(%rbp), %rax
	movq	24(%rax), %rcx
	movq	%rcx, -288(%rbp)
	movq	-280(%rbp), %rcx
	movq	%rcx, 24(%rax)
	movq	-312(%rbp), %rax
	movq	%rax, -304(%rbp)
LBB22_26:
	movq	-304(%rbp), %rax
	addq	$480, %rsp              ## imm = 0x1E0
	popq	%rbp
	retq
LBB22_27:
	movq	-408(%rbp), %rdi
	callq	__Unwind_Resume
## BB#28:
Lfunc_end22:
	.cfi_endproc
	.section	__TEXT,__gcc_except_tab
	.align	2
GCC_except_table22:
Lexception22:
	.byte	255                     ## @LPStart Encoding = omit
	.byte	155                     ## @TType Encoding = indirect pcrel sdata4
	.byte	41                      ## @TType base offset
	.byte	3                       ## Call site Encoding = udata4
	.byte	39                      ## Call site table length
Lset43 = Lfunc_begin22-Lfunc_begin22    ## >> Call Site 1 <<
	.long	Lset43
Lset44 = Ltmp120-Lfunc_begin22          ##   Call between Lfunc_begin22 and Ltmp120
	.long	Lset44
	.long	0                       ##     has no landing pad
	.byte	0                       ##   On action: cleanup
Lset45 = Ltmp120-Lfunc_begin22          ## >> Call Site 2 <<
	.long	Lset45
Lset46 = Ltmp121-Ltmp120                ##   Call between Ltmp120 and Ltmp121
	.long	Lset46
Lset47 = Ltmp122-Lfunc_begin22          ##     jumps to Ltmp122
	.long	Lset47
	.byte	0                       ##   On action: cleanup
Lset48 = Ltmp121-Lfunc_begin22          ## >> Call Site 3 <<
	.long	Lset48
Lset49 = Lfunc_end22-Ltmp121            ##   Call between Ltmp121 and Lfunc_end22
	.long	Lset49
	.long	0                       ##     has no landing pad
	.byte	0                       ##   On action: cleanup
	.align	2

	.section	__TEXT,__textcoal_nt,coalesced,pure_instructions
	.globl	__ZNSt3__111char_traitsIcE11eq_int_typeEii
	.weak_def_can_be_hidden	__ZNSt3__111char_traitsIcE11eq_int_typeEii
	.align	4, 0x90
__ZNSt3__111char_traitsIcE11eq_int_typeEii: ## @_ZNSt3__111char_traitsIcE11eq_int_typeEii
	.cfi_startproc
## BB#0:
	pushq	%rbp
Ltmp126:
	.cfi_def_cfa_offset 16
Ltmp127:
	.cfi_offset %rbp, -16
	movq	%rsp, %rbp
Ltmp128:
	.cfi_def_cfa_register %rbp
	movl	%edi, -4(%rbp)
	movl	%esi, -8(%rbp)
	movl	-4(%rbp), %esi
	cmpl	-8(%rbp), %esi
	sete	%al
	andb	$1, %al
	movzbl	%al, %eax
	popq	%rbp
	retq
	.cfi_endproc

	.globl	__ZNSt3__111char_traitsIcE3eofEv
	.weak_def_can_be_hidden	__ZNSt3__111char_traitsIcE3eofEv
	.align	4, 0x90
__ZNSt3__111char_traitsIcE3eofEv:       ## @_ZNSt3__111char_traitsIcE3eofEv
	.cfi_startproc
## BB#0:
	pushq	%rbp
Ltmp129:
	.cfi_def_cfa_offset 16
Ltmp130:
	.cfi_offset %rbp, -16
	movq	%rsp, %rbp
Ltmp131:
	.cfi_def_cfa_register %rbp
	movl	$4294967295, %eax       ## imm = 0xFFFFFFFF
	popq	%rbp
	retq
	.cfi_endproc

	.section	__TEXT,__cstring,cstring_literals
L_.str:                                 ## @.str
	.asciz	"Element at position "

L_.str1:                                ## @.str1
	.asciz	"is: "


.subsections_via_symbols
