	.section	__TEXT,__text,regular,pure_instructions
	.macosx_version_min 10, 10
	.globl	_main
	.align	4, 0x90
_main:                                  ## @main
Lfunc_begin0:
	.cfi_startproc
	.cfi_personality 155, ___gxx_personality_v0
	.cfi_lsda 16, Lexception0
## BB#0:
	pushq	%rbp
Ltmp29:
	.cfi_def_cfa_offset 16
Ltmp30:
	.cfi_offset %rbp, -16
	movq	%rsp, %rbp
Ltmp31:
	.cfi_def_cfa_register %rbp
	subq	$592, %rsp              ## imm = 0x250
	leaq	-360(%rbp), %rax
	leaq	-288(%rbp), %rcx
	leaq	-312(%rbp), %rdx
	leaq	-440(%rbp), %rsi
	leaq	-24(%rbp), %rdi
	movq	___stack_chk_guard@GOTPCREL(%rip), %r8
	movq	(%r8), %r8
	movq	%r8, -8(%rbp)
	movl	$0, -412(%rbp)
	movl	$50, -24(%rbp)
	movl	$1, -20(%rbp)
	movl	$987, -16(%rbp)         ## imm = 0x3DB
	movl	$1001, -12(%rbp)        ## imm = 0x3E9
	movq	%rdi, -456(%rbp)
	movq	$4, -448(%rbp)
	movq	-456(%rbp), %rdi
	movq	-448(%rbp), %r8
	movq	%rdi, -400(%rbp)
	movq	%r8, -392(%rbp)
	movq	%rsi, -408(%rbp)
	movq	-408(%rbp), %rsi
	movq	-400(%rbp), %rdi
	movq	-392(%rbp), %r8
	movq	%rdi, -360(%rbp)
	movq	%r8, -352(%rbp)
	movq	%rsi, -368(%rbp)
	movq	-368(%rbp), %rsi
	movq	%rsi, %rdi
	movq	%rdi, -344(%rbp)
	movq	-344(%rbp), %rdi
	movq	%rdi, %r8
	movq	%r8, -336(%rbp)
	movq	$0, (%rdi)
	movq	$0, 8(%rdi)
	addq	$16, %rdi
	movq	%rdi, -320(%rbp)
	movq	$0, -328(%rbp)
	movq	-320(%rbp), %rdi
	movq	-328(%rbp), %r8
	movq	%rdi, -304(%rbp)
	movq	%r8, -312(%rbp)
	movq	-304(%rbp), %rdi
	movq	%rdx, -296(%rbp)
	movq	-296(%rbp), %rdx
	movq	(%rdx), %rdx
	movq	%rdi, -280(%rbp)
	movq	%rdx, -288(%rbp)
	movq	-280(%rbp), %rdx
	movq	%rdx, %rdi
	movq	%rdi, -272(%rbp)
	movq	%rcx, -264(%rbp)
	movq	-264(%rbp), %rcx
	movq	(%rcx), %rcx
	movq	%rcx, (%rdx)
	movq	%rax, -256(%rbp)
	movq	-256(%rbp), %rax
	cmpq	$0, 8(%rax)
	movq	%rsi, -480(%rbp)        ## 8-byte Spill
	jbe	LBB0_5
## BB#1:
	leaq	-360(%rbp), %rax
	movq	%rax, -248(%rbp)
	movq	-352(%rbp), %rsi
Ltmp0:
	movq	-480(%rbp), %rdi        ## 8-byte Reload
	callq	__ZNSt3__16vectorIiNS_9allocatorIiEEE8allocateEm
Ltmp1:
	jmp	LBB0_2
LBB0_2:
	leaq	-360(%rbp), %rax
	movq	%rax, -224(%rbp)
	movq	-360(%rbp), %rsi
	movq	%rax, -232(%rbp)
	movq	-360(%rbp), %rcx
	movq	-352(%rbp), %rdx
	leaq	(%rcx,%rdx,4), %rdx
	movq	%rax, -240(%rbp)
	movq	-352(%rbp), %rcx
Ltmp2:
	movq	-480(%rbp), %rdi        ## 8-byte Reload
	callq	__ZNSt3__16vectorIiNS_9allocatorIiEEE18__construct_at_endIPKiEENS_9enable_ifIXsr21__is_forward_iteratorIT_EE5valueEvE4typeES8_S8_m
Ltmp3:
	jmp	LBB0_3
LBB0_3:
	jmp	LBB0_5
LBB0_4:
Ltmp4:
	movl	%edx, %ecx
	movq	%rax, -376(%rbp)
	movl	%ecx, -380(%rbp)
	movq	-480(%rbp), %rax        ## 8-byte Reload
	movq	%rax, %rdi
	callq	__ZNSt3__113__vector_baseIiNS_9allocatorIiEEED2Ev
	movq	-376(%rbp), %rax
	movq	%rax, -488(%rbp)        ## 8-byte Spill
	jmp	LBB0_26
LBB0_5:                                 ## %_ZNSt3__16vectorIiNS_9allocatorIiEEEC1ESt16initializer_listIiE.exit
Ltmp5:
	movq	__ZNSt3__14coutE@GOTPCREL(%rip), %rdi
	leaq	L_.str(%rip), %rsi
	callq	__ZNSt3__1lsINS_11char_traitsIcEEEERNS_13basic_ostreamIcT_EES6_PKc
Ltmp6:
	movq	%rax, -496(%rbp)        ## 8-byte Spill
	jmp	LBB0_6
LBB0_6:
	leaq	-440(%rbp), %rax
	movq	%rax, -216(%rbp)
	movq	-440(%rbp), %rax
	movq	-432(%rbp), %rcx
	subq	%rax, %rcx
	sarq	$2, %rcx
Ltmp7:
	movq	-496(%rbp), %rdi        ## 8-byte Reload
	movq	%rcx, %rsi
	callq	__ZNSt3__113basic_ostreamIcNS_11char_traitsIcEEElsEm
Ltmp8:
	movq	%rax, -504(%rbp)        ## 8-byte Spill
	jmp	LBB0_7
LBB0_7:
Ltmp9:
	leaq	L_.str1(%rip), %rsi
	movq	-504(%rbp), %rdi        ## 8-byte Reload
	callq	__ZNSt3__1lsINS_11char_traitsIcEEEERNS_13basic_ostreamIcT_EES6_PKc
Ltmp10:
	movq	%rax, -512(%rbp)        ## 8-byte Spill
	jmp	LBB0_8
LBB0_8:
Ltmp11:
	leaq	-440(%rbp), %rdi
	callq	__Z13DisplayVectorIiEvRKNSt3__16vectorIT_NS0_9allocatorIS2_EEEE
Ltmp12:
	jmp	LBB0_9
LBB0_9:
	leaq	-440(%rbp), %rax
	movq	%rax, -208(%rbp)
	movq	-208(%rbp), %rax
	movq	8(%rax), %rcx
	addq	$-4, %rcx
	movq	%rax, -184(%rbp)
	movq	%rcx, -192(%rbp)
	movq	-184(%rbp), %rax
	movq	%rax, -176(%rbp)
	movq	-176(%rbp), %rcx
	movq	8(%rcx), %rdx
	movq	(%rcx), %rcx
	subq	%rcx, %rdx
	sarq	$2, %rdx
	movq	%rdx, -200(%rbp)
	movq	%rax, %rcx
	movq	-192(%rbp), %rdx
	movq	%rcx, -160(%rbp)
	movq	%rdx, -168(%rbp)
	movq	-160(%rbp), %rcx
	movq	%rax, -520(%rbp)        ## 8-byte Spill
	movq	%rcx, -528(%rbp)        ## 8-byte Spill
LBB0_10:                                ## =>This Inner Loop Header: Depth=1
	movq	-168(%rbp), %rax
	movq	-528(%rbp), %rcx        ## 8-byte Reload
	cmpq	8(%rcx), %rax
	je	LBB0_12
## BB#11:                               ##   in Loop: Header=BB0_10 Depth=1
	movq	-528(%rbp), %rax        ## 8-byte Reload
	movq	%rax, -152(%rbp)
	movq	-152(%rbp), %rcx
	addq	$16, %rcx
	movq	%rcx, -144(%rbp)
	movq	-144(%rbp), %rcx
	movq	%rcx, -136(%rbp)
	movq	-136(%rbp), %rcx
	movq	8(%rax), %rdx
	addq	$-4, %rdx
	movq	%rdx, 8(%rax)
	movq	%rdx, -128(%rbp)
	movq	-128(%rbp), %rdx
	movq	%rcx, -96(%rbp)
	movq	%rdx, -104(%rbp)
	movq	-96(%rbp), %rcx
	movq	-104(%rbp), %rdx
	movq	%rcx, -80(%rbp)
	movq	%rdx, -88(%rbp)
	movq	-80(%rbp), %rcx
	movq	-88(%rbp), %rdx
	movq	%rcx, -56(%rbp)
	movq	%rdx, -64(%rbp)
	jmp	LBB0_10
LBB0_12:                                ## %_ZNSt3__113__vector_baseIiNS_9allocatorIiEEE17__destruct_at_endEPi.exit.i.i
	movq	-200(%rbp), %rsi
Ltmp13:
	movq	-520(%rbp), %rdi        ## 8-byte Reload
	callq	__ZNKSt3__16vectorIiNS_9allocatorIiEEE17__annotate_shrinkEm
Ltmp14:
	jmp	LBB0_14
LBB0_13:
Ltmp15:
	movl	%edx, %ecx
	movq	%rax, %rdi
	movl	%ecx, -532(%rbp)        ## 4-byte Spill
	callq	___clang_call_terminate
LBB0_14:                                ## %_ZNSt3__16vectorIiNS_9allocatorIiEEE8pop_backEv.exit
	jmp	LBB0_15
LBB0_15:
Ltmp16:
	movq	__ZNSt3__14coutE@GOTPCREL(%rip), %rdi
	leaq	L_.str2(%rip), %rsi
	callq	__ZNSt3__1lsINS_11char_traitsIcEEEERNS_13basic_ostreamIcT_EES6_PKc
Ltmp17:
	movq	%rax, -544(%rbp)        ## 8-byte Spill
	jmp	LBB0_16
LBB0_16:
	movq	-544(%rbp), %rax        ## 8-byte Reload
	movq	%rax, -40(%rbp)
	leaq	__ZNSt3__14endlIcNS_11char_traitsIcEEEERNS_13basic_ostreamIT_T0_EES7_(%rip), %rcx
	movq	%rcx, -48(%rbp)
	movq	-40(%rbp), %rdi
Ltmp18:
	callq	*%rcx
Ltmp19:
	movq	%rax, -552(%rbp)        ## 8-byte Spill
	jmp	LBB0_17
LBB0_17:                                ## %_ZNSt3__113basic_ostreamIcNS_11char_traitsIcEEElsEPFRS3_S4_E.exit
	jmp	LBB0_18
LBB0_18:
Ltmp20:
	movq	__ZNSt3__14coutE@GOTPCREL(%rip), %rdi
	leaq	L_.str(%rip), %rsi
	callq	__ZNSt3__1lsINS_11char_traitsIcEEEERNS_13basic_ostreamIcT_EES6_PKc
Ltmp21:
	movq	%rax, -560(%rbp)        ## 8-byte Spill
	jmp	LBB0_19
LBB0_19:
	leaq	-440(%rbp), %rax
	movq	%rax, -32(%rbp)
	movq	-440(%rbp), %rax
	movq	-432(%rbp), %rcx
	subq	%rax, %rcx
	sarq	$2, %rcx
Ltmp22:
	movq	-560(%rbp), %rdi        ## 8-byte Reload
	movq	%rcx, %rsi
	callq	__ZNSt3__113basic_ostreamIcNS_11char_traitsIcEEElsEm
Ltmp23:
	movq	%rax, -568(%rbp)        ## 8-byte Spill
	jmp	LBB0_20
LBB0_20:
Ltmp24:
	leaq	L_.str1(%rip), %rsi
	movq	-568(%rbp), %rdi        ## 8-byte Reload
	callq	__ZNSt3__1lsINS_11char_traitsIcEEEERNS_13basic_ostreamIcT_EES6_PKc
Ltmp25:
	movq	%rax, -576(%rbp)        ## 8-byte Spill
	jmp	LBB0_21
LBB0_21:
Ltmp26:
	leaq	-440(%rbp), %rdi
	callq	__Z13DisplayVectorIiEvRKNSt3__16vectorIT_NS0_9allocatorIS2_EEEE
Ltmp27:
	jmp	LBB0_22
LBB0_22:
	leaq	-440(%rbp), %rdi
	movl	$0, -412(%rbp)
	movl	$1, -472(%rbp)
	callq	__ZNSt3__16vectorIiNS_9allocatorIiEEED1Ev
	movq	___stack_chk_guard@GOTPCREL(%rip), %rdi
	movl	-412(%rbp), %eax
	movq	(%rdi), %rdi
	cmpq	-8(%rbp), %rdi
	movl	%eax, -580(%rbp)        ## 4-byte Spill
	jne	LBB0_27
## BB#23:                               ## %SP_return
	movl	-580(%rbp), %eax        ## 4-byte Reload
	addq	$592, %rsp              ## imm = 0x250
	popq	%rbp
	retq
LBB0_24:
Ltmp28:
	leaq	-440(%rbp), %rdi
	movl	%edx, %ecx
	movq	%rax, -464(%rbp)
	movl	%ecx, -468(%rbp)
	callq	__ZNSt3__16vectorIiNS_9allocatorIiEEED1Ev
## BB#25:
	movq	-464(%rbp), %rax
	movq	%rax, -488(%rbp)        ## 8-byte Spill
LBB0_26:                                ## %unwind_resume
	movq	-488(%rbp), %rax        ## 8-byte Reload
	movq	%rax, %rdi
	callq	__Unwind_Resume
LBB0_27:                                ## %CallStackCheckFailBlk
	callq	___stack_chk_fail
Lfunc_end0:
	.cfi_endproc
	.section	__TEXT,__gcc_except_tab
	.align	2
GCC_except_table0:
Lexception0:
	.byte	255                     ## @LPStart Encoding = omit
	.byte	155                     ## @TType Encoding = indirect pcrel sdata4
	.asciz	"\313\200"              ## @TType base offset
	.byte	3                       ## Call site Encoding = udata4
	.byte	65                      ## Call site table length
Lset0 = Ltmp0-Lfunc_begin0              ## >> Call Site 1 <<
	.long	Lset0
Lset1 = Ltmp3-Ltmp0                     ##   Call between Ltmp0 and Ltmp3
	.long	Lset1
Lset2 = Ltmp4-Lfunc_begin0              ##     jumps to Ltmp4
	.long	Lset2
	.byte	0                       ##   On action: cleanup
Lset3 = Ltmp5-Lfunc_begin0              ## >> Call Site 2 <<
	.long	Lset3
Lset4 = Ltmp12-Ltmp5                    ##   Call between Ltmp5 and Ltmp12
	.long	Lset4
Lset5 = Ltmp28-Lfunc_begin0             ##     jumps to Ltmp28
	.long	Lset5
	.byte	0                       ##   On action: cleanup
Lset6 = Ltmp13-Lfunc_begin0             ## >> Call Site 3 <<
	.long	Lset6
Lset7 = Ltmp14-Ltmp13                   ##   Call between Ltmp13 and Ltmp14
	.long	Lset7
Lset8 = Ltmp15-Lfunc_begin0             ##     jumps to Ltmp15
	.long	Lset8
	.byte	3                       ##   On action: 2
Lset9 = Ltmp16-Lfunc_begin0             ## >> Call Site 4 <<
	.long	Lset9
Lset10 = Ltmp27-Ltmp16                  ##   Call between Ltmp16 and Ltmp27
	.long	Lset10
Lset11 = Ltmp28-Lfunc_begin0            ##     jumps to Ltmp28
	.long	Lset11
	.byte	0                       ##   On action: cleanup
Lset12 = Ltmp27-Lfunc_begin0            ## >> Call Site 5 <<
	.long	Lset12
Lset13 = Lfunc_end0-Ltmp27              ##   Call between Ltmp27 and Lfunc_end0
	.long	Lset13
	.long	0                       ##     has no landing pad
	.byte	0                       ##   On action: cleanup
	.byte	0                       ## >> Action Record 1 <<
                                        ##   Cleanup
	.byte	0                       ##   No further actions
	.byte	1                       ## >> Action Record 2 <<
                                        ##   Catch TypeInfo 1
	.byte	125                     ##   Continue to action 1
                                        ## >> Catch TypeInfos <<
	.long	0                       ## TypeInfo 1
	.align	2

	.section	__TEXT,__textcoal_nt,coalesced,pure_instructions
	.globl	__ZNSt3__1lsINS_11char_traitsIcEEEERNS_13basic_ostreamIcT_EES6_PKc
	.weak_def_can_be_hidden	__ZNSt3__1lsINS_11char_traitsIcEEEERNS_13basic_ostreamIcT_EES6_PKc
	.align	4, 0x90
__ZNSt3__1lsINS_11char_traitsIcEEEERNS_13basic_ostreamIcT_EES6_PKc: ## @_ZNSt3__1lsINS_11char_traitsIcEEEERNS_13basic_ostreamIcT_EES6_PKc
	.cfi_startproc
## BB#0:
	pushq	%rbp
Ltmp32:
	.cfi_def_cfa_offset 16
Ltmp33:
	.cfi_offset %rbp, -16
	movq	%rsp, %rbp
Ltmp34:
	.cfi_def_cfa_register %rbp
	subq	$32, %rsp
	movq	%rdi, -8(%rbp)
	movq	%rsi, -16(%rbp)
	movq	-8(%rbp), %rdi
	movq	-16(%rbp), %rsi
	movq	-16(%rbp), %rax
	movq	%rdi, -24(%rbp)         ## 8-byte Spill
	movq	%rax, %rdi
	movq	%rsi, -32(%rbp)         ## 8-byte Spill
	callq	__ZNSt3__111char_traitsIcE6lengthEPKc
	movq	-24(%rbp), %rdi         ## 8-byte Reload
	movq	-32(%rbp), %rsi         ## 8-byte Reload
	movq	%rax, %rdx
	callq	__ZNSt3__124__put_character_sequenceIcNS_11char_traitsIcEEEERNS_13basic_ostreamIT_T0_EES7_PKS4_m
	addq	$32, %rsp
	popq	%rbp
	retq
	.cfi_endproc

	.globl	__Z13DisplayVectorIiEvRKNSt3__16vectorIT_NS0_9allocatorIS2_EEEE
	.weak_def_can_be_hidden	__Z13DisplayVectorIiEvRKNSt3__16vectorIT_NS0_9allocatorIS2_EEEE
	.align	4, 0x90
__Z13DisplayVectorIiEvRKNSt3__16vectorIT_NS0_9allocatorIS2_EEEE: ## @_Z13DisplayVectorIiEvRKNSt3__16vectorIT_NS0_9allocatorIS2_EEEE
	.cfi_startproc
## BB#0:
	pushq	%rbp
Ltmp35:
	.cfi_def_cfa_offset 16
Ltmp36:
	.cfi_offset %rbp, -16
	movq	%rsp, %rbp
Ltmp37:
	.cfi_def_cfa_register %rbp
	subq	$304, %rsp              ## imm = 0x130
	leaq	-208(%rbp), %rax
	movq	%rdi, -264(%rbp)
	movq	-264(%rbp), %rdi
	movq	%rdi, -256(%rbp)
	movq	-256(%rbp), %rdi
	movq	%rdi, -240(%rbp)
	movq	-240(%rbp), %rdi
	movq	(%rdi), %rcx
	movq	%rdi, -216(%rbp)
	movq	%rcx, -224(%rbp)
	movq	-224(%rbp), %rcx
	movq	%rax, -192(%rbp)
	movq	%rcx, -200(%rbp)
	movq	-192(%rbp), %rax
	movq	-200(%rbp), %rcx
	movq	%rax, -176(%rbp)
	movq	%rcx, -184(%rbp)
	movq	-176(%rbp), %rax
	movq	-184(%rbp), %rcx
	movq	%rcx, (%rax)
	movq	-208(%rbp), %rax
	movq	%rax, -232(%rbp)
	movq	-232(%rbp), %rax
	movq	%rax, -248(%rbp)
	movq	-248(%rbp), %rax
	movq	%rax, -272(%rbp)
LBB2_1:                                 ## =>This Inner Loop Header: Depth=1
	leaq	-280(%rbp), %rax
	leaq	-272(%rbp), %rcx
	leaq	-104(%rbp), %rdx
	movq	-264(%rbp), %rsi
	movq	%rsi, -152(%rbp)
	movq	-152(%rbp), %rsi
	movq	%rsi, -136(%rbp)
	movq	-136(%rbp), %rsi
	movq	8(%rsi), %rdi
	movq	%rsi, -112(%rbp)
	movq	%rdi, -120(%rbp)
	movq	-120(%rbp), %rsi
	movq	%rdx, -88(%rbp)
	movq	%rsi, -96(%rbp)
	movq	-88(%rbp), %rdx
	movq	-96(%rbp), %rsi
	movq	%rdx, -72(%rbp)
	movq	%rsi, -80(%rbp)
	movq	-72(%rbp), %rdx
	movq	-80(%rbp), %rsi
	movq	%rsi, (%rdx)
	movq	-104(%rbp), %rdx
	movq	%rdx, -128(%rbp)
	movq	-128(%rbp), %rdx
	movq	%rdx, -144(%rbp)
	movq	-144(%rbp), %rdx
	movq	%rdx, -280(%rbp)
	movq	%rcx, -48(%rbp)
	movq	%rax, -56(%rbp)
	movq	-48(%rbp), %rax
	movq	-56(%rbp), %rcx
	movq	%rax, -32(%rbp)
	movq	%rcx, -40(%rbp)
	movq	-32(%rbp), %rax
	movq	%rax, -24(%rbp)
	movq	-24(%rbp), %rax
	movq	(%rax), %rax
	movq	-40(%rbp), %rcx
	movq	%rcx, -16(%rbp)
	movq	-16(%rbp), %rcx
	cmpq	(%rcx), %rax
	sete	%r8b
	xorb	$1, %r8b
	testb	$1, %r8b
	jne	LBB2_2
	jmp	LBB2_4
LBB2_2:                                 ##   in Loop: Header=BB2_1 Depth=1
	movq	__ZNSt3__14coutE@GOTPCREL(%rip), %rdi
	leaq	-272(%rbp), %rax
	movq	%rax, -8(%rbp)
	movq	-8(%rbp), %rax
	movq	(%rax), %rax
	movl	(%rax), %esi
	callq	__ZNSt3__113basic_ostreamIcNS_11char_traitsIcEEElsEi
	movl	$32, %esi
	movq	%rax, %rdi
	callq	__ZNSt3__1lsINS_11char_traitsIcEEEERNS_13basic_ostreamIcT_EES6_c
	movq	%rax, -288(%rbp)        ## 8-byte Spill
## BB#3:                                ##   in Loop: Header=BB2_1 Depth=1
	leaq	-272(%rbp), %rax
	movq	%rax, -64(%rbp)
	movq	-64(%rbp), %rax
	movq	(%rax), %rcx
	addq	$4, %rcx
	movq	%rcx, (%rax)
	jmp	LBB2_1
LBB2_4:
	leaq	__ZNSt3__14endlIcNS_11char_traitsIcEEEERNS_13basic_ostreamIT_T0_EES7_(%rip), %rax
	movq	__ZNSt3__14coutE@GOTPCREL(%rip), %rcx
	movq	%rcx, -160(%rbp)
	movq	%rax, -168(%rbp)
	movq	-160(%rbp), %rdi
	callq	*-168(%rbp)
	movq	%rax, -296(%rbp)        ## 8-byte Spill
	addq	$304, %rsp              ## imm = 0x130
	popq	%rbp
	retq
	.cfi_endproc

	.private_extern	__ZNSt3__14endlIcNS_11char_traitsIcEEEERNS_13basic_ostreamIT_T0_EES7_
	.globl	__ZNSt3__14endlIcNS_11char_traitsIcEEEERNS_13basic_ostreamIT_T0_EES7_
	.weak_definition	__ZNSt3__14endlIcNS_11char_traitsIcEEEERNS_13basic_ostreamIT_T0_EES7_
	.align	4, 0x90
__ZNSt3__14endlIcNS_11char_traitsIcEEEERNS_13basic_ostreamIT_T0_EES7_: ## @_ZNSt3__14endlIcNS_11char_traitsIcEEEERNS_13basic_ostreamIT_T0_EES7_
Lfunc_begin3:
	.cfi_startproc
	.cfi_personality 155, ___gxx_personality_v0
	.cfi_lsda 16, Lexception3
## BB#0:
	pushq	%rbp
Ltmp43:
	.cfi_def_cfa_offset 16
Ltmp44:
	.cfi_offset %rbp, -16
	movq	%rsp, %rbp
Ltmp45:
	.cfi_def_cfa_register %rbp
	subq	$144, %rsp
	movq	%rdi, -72(%rbp)
	movq	%rdi, %rax
	movq	(%rdi), %rcx
	movq	-24(%rcx), %rcx
	addq	%rcx, %rdi
	movq	%rdi, -32(%rbp)
	movb	$10, -33(%rbp)
	movq	-32(%rbp), %rsi
	leaq	-48(%rbp), %rcx
	movq	%rcx, %rdi
	movq	%rax, -80(%rbp)         ## 8-byte Spill
	movq	%rcx, -88(%rbp)         ## 8-byte Spill
	callq	__ZNKSt3__18ios_base6getlocEv
	movq	-88(%rbp), %rax         ## 8-byte Reload
	movq	%rax, -24(%rbp)
Ltmp38:
	movq	__ZNSt3__15ctypeIcE2idE@GOTPCREL(%rip), %rsi
	movq	%rax, %rdi
	callq	__ZNKSt3__16locale9use_facetERNS0_2idE
Ltmp39:
	movq	%rax, -96(%rbp)         ## 8-byte Spill
	jmp	LBB3_1
LBB3_1:                                 ## %_ZNSt3__19use_facetINS_5ctypeIcEEEERKT_RKNS_6localeE.exit.i
	movb	-33(%rbp), %al
	movq	-96(%rbp), %rcx         ## 8-byte Reload
	movq	%rcx, -8(%rbp)
	movb	%al, -9(%rbp)
	movq	-8(%rbp), %rdx
	movq	(%rdx), %rsi
	movq	56(%rsi), %rsi
	movsbl	-9(%rbp), %edi
Ltmp40:
	movl	%edi, -100(%rbp)        ## 4-byte Spill
	movq	%rdx, %rdi
	movl	-100(%rbp), %r8d        ## 4-byte Reload
	movq	%rsi, -112(%rbp)        ## 8-byte Spill
	movl	%r8d, %esi
	movq	-112(%rbp), %rdx        ## 8-byte Reload
	callq	*%rdx
Ltmp41:
	movb	%al, -113(%rbp)         ## 1-byte Spill
	jmp	LBB3_3
LBB3_2:
Ltmp42:
	leaq	-48(%rbp), %rdi
	movl	%edx, %ecx
	movq	%rax, -56(%rbp)
	movl	%ecx, -60(%rbp)
	callq	__ZNSt3__16localeD1Ev
	movq	-56(%rbp), %rdi
	callq	__Unwind_Resume
LBB3_3:                                 ## %_ZNKSt3__19basic_iosIcNS_11char_traitsIcEEE5widenEc.exit
	leaq	-48(%rbp), %rdi
	callq	__ZNSt3__16localeD1Ev
	movq	-80(%rbp), %rdi         ## 8-byte Reload
	movb	-113(%rbp), %al         ## 1-byte Reload
	movsbl	%al, %esi
	callq	__ZNSt3__113basic_ostreamIcNS_11char_traitsIcEEE3putEc
	movq	-72(%rbp), %rdi
	movq	%rax, -128(%rbp)        ## 8-byte Spill
	callq	__ZNSt3__113basic_ostreamIcNS_11char_traitsIcEEE5flushEv
	movq	-72(%rbp), %rdi
	movq	%rax, -136(%rbp)        ## 8-byte Spill
	movq	%rdi, %rax
	addq	$144, %rsp
	popq	%rbp
	retq
Lfunc_end3:
	.cfi_endproc
	.section	__TEXT,__gcc_except_tab
	.align	2
GCC_except_table3:
Lexception3:
	.byte	255                     ## @LPStart Encoding = omit
	.byte	155                     ## @TType Encoding = indirect pcrel sdata4
	.byte	41                      ## @TType base offset
	.byte	3                       ## Call site Encoding = udata4
	.byte	39                      ## Call site table length
Lset14 = Lfunc_begin3-Lfunc_begin3      ## >> Call Site 1 <<
	.long	Lset14
Lset15 = Ltmp38-Lfunc_begin3            ##   Call between Lfunc_begin3 and Ltmp38
	.long	Lset15
	.long	0                       ##     has no landing pad
	.byte	0                       ##   On action: cleanup
Lset16 = Ltmp38-Lfunc_begin3            ## >> Call Site 2 <<
	.long	Lset16
Lset17 = Ltmp41-Ltmp38                  ##   Call between Ltmp38 and Ltmp41
	.long	Lset17
Lset18 = Ltmp42-Lfunc_begin3            ##     jumps to Ltmp42
	.long	Lset18
	.byte	0                       ##   On action: cleanup
Lset19 = Ltmp41-Lfunc_begin3            ## >> Call Site 3 <<
	.long	Lset19
Lset20 = Lfunc_end3-Ltmp41              ##   Call between Ltmp41 and Lfunc_end3
	.long	Lset20
	.long	0                       ##     has no landing pad
	.byte	0                       ##   On action: cleanup
	.align	2

	.section	__TEXT,__textcoal_nt,coalesced,pure_instructions
	.globl	__ZNSt3__16vectorIiNS_9allocatorIiEEED1Ev
	.weak_def_can_be_hidden	__ZNSt3__16vectorIiNS_9allocatorIiEEED1Ev
	.align	4, 0x90
__ZNSt3__16vectorIiNS_9allocatorIiEEED1Ev: ## @_ZNSt3__16vectorIiNS_9allocatorIiEEED1Ev
	.cfi_startproc
## BB#0:
	pushq	%rbp
Ltmp46:
	.cfi_def_cfa_offset 16
Ltmp47:
	.cfi_offset %rbp, -16
	movq	%rsp, %rbp
Ltmp48:
	.cfi_def_cfa_register %rbp
	subq	$16, %rsp
	movq	%rdi, -8(%rbp)
	movq	-8(%rbp), %rdi
	callq	__ZNSt3__16vectorIiNS_9allocatorIiEEED2Ev
	addq	$16, %rsp
	popq	%rbp
	retq
	.cfi_endproc

	.globl	__ZNSt3__16vectorIiNS_9allocatorIiEEED2Ev
	.weak_def_can_be_hidden	__ZNSt3__16vectorIiNS_9allocatorIiEEED2Ev
	.align	4, 0x90
__ZNSt3__16vectorIiNS_9allocatorIiEEED2Ev: ## @_ZNSt3__16vectorIiNS_9allocatorIiEEED2Ev
	.cfi_startproc
## BB#0:
	pushq	%rbp
Ltmp49:
	.cfi_def_cfa_offset 16
Ltmp50:
	.cfi_offset %rbp, -16
	movq	%rsp, %rbp
Ltmp51:
	.cfi_def_cfa_register %rbp
	subq	$16, %rsp
	movq	%rdi, -8(%rbp)
	movq	-8(%rbp), %rdi
	callq	__ZNSt3__113__vector_baseIiNS_9allocatorIiEEED2Ev
	addq	$16, %rsp
	popq	%rbp
	retq
	.cfi_endproc

	.globl	__ZNSt3__113__vector_baseIiNS_9allocatorIiEEED2Ev
	.weak_def_can_be_hidden	__ZNSt3__113__vector_baseIiNS_9allocatorIiEEED2Ev
	.align	4, 0x90
__ZNSt3__113__vector_baseIiNS_9allocatorIiEEED2Ev: ## @_ZNSt3__113__vector_baseIiNS_9allocatorIiEEED2Ev
	.cfi_startproc
## BB#0:
	pushq	%rbp
Ltmp52:
	.cfi_def_cfa_offset 16
Ltmp53:
	.cfi_offset %rbp, -16
	movq	%rsp, %rbp
Ltmp54:
	.cfi_def_cfa_register %rbp
	subq	$272, %rsp              ## imm = 0x110
	movq	%rdi, -248(%rbp)
	movq	-248(%rbp), %rdi
	cmpq	$0, (%rdi)
	movq	%rdi, -256(%rbp)        ## 8-byte Spill
	je	LBB6_5
## BB#1:
	movq	-256(%rbp), %rax        ## 8-byte Reload
	movq	%rax, -240(%rbp)
	movq	-240(%rbp), %rcx
	movq	(%rcx), %rdx
	movq	%rcx, -224(%rbp)
	movq	%rdx, -232(%rbp)
	movq	-224(%rbp), %rcx
	movq	%rcx, -264(%rbp)        ## 8-byte Spill
LBB6_2:                                 ## =>This Inner Loop Header: Depth=1
	movq	-232(%rbp), %rax
	movq	-264(%rbp), %rcx        ## 8-byte Reload
	cmpq	8(%rcx), %rax
	je	LBB6_4
## BB#3:                                ##   in Loop: Header=BB6_2 Depth=1
	movq	-264(%rbp), %rax        ## 8-byte Reload
	movq	%rax, -216(%rbp)
	movq	-216(%rbp), %rcx
	addq	$16, %rcx
	movq	%rcx, -208(%rbp)
	movq	-208(%rbp), %rcx
	movq	%rcx, -200(%rbp)
	movq	-200(%rbp), %rcx
	movq	8(%rax), %rdx
	addq	$-4, %rdx
	movq	%rdx, 8(%rax)
	movq	%rdx, -192(%rbp)
	movq	-192(%rbp), %rdx
	movq	%rcx, -160(%rbp)
	movq	%rdx, -168(%rbp)
	movq	-160(%rbp), %rcx
	movq	-168(%rbp), %rdx
	movq	%rcx, -144(%rbp)
	movq	%rdx, -152(%rbp)
	movq	-144(%rbp), %rcx
	movq	-152(%rbp), %rdx
	movq	%rcx, -120(%rbp)
	movq	%rdx, -128(%rbp)
	jmp	LBB6_2
LBB6_4:                                 ## %_ZNSt3__113__vector_baseIiNS_9allocatorIiEEE5clearEv.exit
	movq	-256(%rbp), %rax        ## 8-byte Reload
	movq	%rax, -56(%rbp)
	movq	-56(%rbp), %rcx
	addq	$16, %rcx
	movq	%rcx, -48(%rbp)
	movq	-48(%rbp), %rcx
	movq	%rcx, -40(%rbp)
	movq	-40(%rbp), %rcx
	movq	(%rax), %rdx
	movq	%rax, -32(%rbp)
	movq	-32(%rbp), %rsi
	movq	%rsi, -24(%rbp)
	movq	-24(%rbp), %rdi
	addq	$16, %rdi
	movq	%rdi, -16(%rbp)
	movq	-16(%rbp), %rdi
	movq	%rdi, -8(%rbp)
	movq	-8(%rbp), %rdi
	movq	(%rdi), %rdi
	movq	(%rsi), %rsi
	subq	%rsi, %rdi
	sarq	$2, %rdi
	movq	%rcx, -96(%rbp)
	movq	%rdx, -104(%rbp)
	movq	%rdi, -112(%rbp)
	movq	-96(%rbp), %rcx
	movq	-104(%rbp), %rdx
	movq	-112(%rbp), %rsi
	movq	%rcx, -72(%rbp)
	movq	%rdx, -80(%rbp)
	movq	%rsi, -88(%rbp)
	movq	-80(%rbp), %rcx
	movq	%rcx, -64(%rbp)
	movq	-64(%rbp), %rdi
	callq	__ZdlPv
LBB6_5:
	addq	$272, %rsp              ## imm = 0x110
	popq	%rbp
	retq
	.cfi_endproc

	.private_extern	___clang_call_terminate
	.globl	___clang_call_terminate
	.weak_def_can_be_hidden	___clang_call_terminate
	.align	4, 0x90
___clang_call_terminate:                ## @__clang_call_terminate
## BB#0:
	pushq	%rbp
	movq	%rsp, %rbp
	subq	$16, %rsp
	callq	___cxa_begin_catch
	movq	%rax, -8(%rbp)          ## 8-byte Spill
	callq	__ZSt9terminatev

	.globl	__ZNSt3__16vectorIiNS_9allocatorIiEEE8allocateEm
	.weak_def_can_be_hidden	__ZNSt3__16vectorIiNS_9allocatorIiEEE8allocateEm
	.align	4, 0x90
__ZNSt3__16vectorIiNS_9allocatorIiEEE8allocateEm: ## @_ZNSt3__16vectorIiNS_9allocatorIiEEE8allocateEm
	.cfi_startproc
## BB#0:
	pushq	%rbp
Ltmp55:
	.cfi_def_cfa_offset 16
Ltmp56:
	.cfi_offset %rbp, -16
	movq	%rsp, %rbp
Ltmp57:
	.cfi_def_cfa_register %rbp
	subq	$128, %rsp
	movq	%rdi, -104(%rbp)
	movq	%rsi, -112(%rbp)
	movq	-104(%rbp), %rsi
	movq	-112(%rbp), %rdi
	movq	%rdi, -120(%rbp)        ## 8-byte Spill
	movq	%rsi, %rdi
	movq	%rsi, -128(%rbp)        ## 8-byte Spill
	callq	__ZNKSt3__16vectorIiNS_9allocatorIiEEE8max_sizeEv
	movq	-120(%rbp), %rsi        ## 8-byte Reload
	cmpq	%rax, %rsi
	jbe	LBB8_2
## BB#1:
	movq	-128(%rbp), %rax        ## 8-byte Reload
	movq	%rax, %rdi
	callq	__ZNKSt3__120__vector_base_commonILb1EE20__throw_length_errorEv
LBB8_2:
	movq	-128(%rbp), %rax        ## 8-byte Reload
	movq	%rax, -96(%rbp)
	movq	-96(%rbp), %rax
	addq	$16, %rax
	movq	%rax, -88(%rbp)
	movq	-88(%rbp), %rax
	movq	%rax, -80(%rbp)
	movq	-80(%rbp), %rax
	movq	-112(%rbp), %rcx
	movq	%rax, -64(%rbp)
	movq	%rcx, -72(%rbp)
	movq	-64(%rbp), %rax
	movq	-72(%rbp), %rcx
	movq	%rax, -40(%rbp)
	movq	%rcx, -48(%rbp)
	movq	$0, -56(%rbp)
	movq	-48(%rbp), %rax
	shlq	$2, %rax
	movq	%rax, -32(%rbp)
	movq	-32(%rbp), %rdi
	callq	__Znwm
	xorl	%edx, %edx
	movl	%edx, %esi
	movq	-128(%rbp), %rcx        ## 8-byte Reload
	movq	%rax, 8(%rcx)
	movq	%rax, (%rcx)
	movq	(%rcx), %rax
	movq	-112(%rbp), %rdi
	shlq	$2, %rdi
	addq	%rdi, %rax
	movq	%rcx, -24(%rbp)
	movq	-24(%rbp), %rcx
	addq	$16, %rcx
	movq	%rcx, -16(%rbp)
	movq	-16(%rbp), %rcx
	movq	%rcx, -8(%rbp)
	movq	-8(%rbp), %rcx
	movq	%rax, (%rcx)
	movq	-128(%rbp), %rdi        ## 8-byte Reload
	callq	__ZNKSt3__16vectorIiNS_9allocatorIiEEE14__annotate_newEm
	addq	$128, %rsp
	popq	%rbp
	retq
	.cfi_endproc

	.globl	__ZNSt3__16vectorIiNS_9allocatorIiEEE18__construct_at_endIPKiEENS_9enable_ifIXsr21__is_forward_iteratorIT_EE5valueEvE4typeES8_S8_m
	.weak_def_can_be_hidden	__ZNSt3__16vectorIiNS_9allocatorIiEEE18__construct_at_endIPKiEENS_9enable_ifIXsr21__is_forward_iteratorIT_EE5valueEvE4typeES8_S8_m
	.align	4, 0x90
__ZNSt3__16vectorIiNS_9allocatorIiEEE18__construct_at_endIPKiEENS_9enable_ifIXsr21__is_forward_iteratorIT_EE5valueEvE4typeES8_S8_m: ## @_ZNSt3__16vectorIiNS_9allocatorIiEEE18__construct_at_endIPKiEENS_9enable_ifIXsr21__is_forward_iteratorIT_EE5valueEvE4typeES8_S8_m
	.cfi_startproc
## BB#0:
	pushq	%rbp
Ltmp58:
	.cfi_def_cfa_offset 16
Ltmp59:
	.cfi_offset %rbp, -16
	movq	%rsp, %rbp
Ltmp60:
	.cfi_def_cfa_register %rbp
	subq	$240, %rsp
	leaq	-232(%rbp), %rax
	movq	%rdi, -192(%rbp)
	movq	%rsi, -200(%rbp)
	movq	%rdx, -208(%rbp)
	movq	%rcx, -216(%rbp)
	movq	-192(%rbp), %rcx
	movq	%rcx, %rdx
	movq	%rdx, -184(%rbp)
	movq	-184(%rbp), %rdx
	addq	$16, %rdx
	movq	%rdx, -176(%rbp)
	movq	-176(%rbp), %rdx
	movq	%rdx, -168(%rbp)
	movq	-168(%rbp), %rdx
	movq	%rdx, -224(%rbp)
	movq	-216(%rbp), %rdx
	movq	%rax, %rdi
	movq	%rcx, %rsi
	movq	%rcx, -240(%rbp)        ## 8-byte Spill
	callq	__ZNSt3__16vectorIiNS_9allocatorIiEEE24__RAII_IncreaseAnnotatorC1ERKS3_m
	movq	-224(%rbp), %rax
	movq	-200(%rbp), %rcx
	movq	-208(%rbp), %rdx
	movq	-240(%rbp), %rsi        ## 8-byte Reload
	addq	$8, %rsi
	movq	%rax, -136(%rbp)
	movq	%rcx, -144(%rbp)
	movq	%rdx, -152(%rbp)
	movq	%rsi, -160(%rbp)
LBB9_1:                                 ## =>This Inner Loop Header: Depth=1
	movq	-144(%rbp), %rax
	cmpq	-152(%rbp), %rax
	je	LBB9_3
## BB#2:                                ##   in Loop: Header=BB9_1 Depth=1
	movq	-136(%rbp), %rax
	movq	-160(%rbp), %rcx
	movq	(%rcx), %rcx
	movq	%rcx, -128(%rbp)
	movq	-128(%rbp), %rcx
	movq	-144(%rbp), %rdx
	movq	%rax, -88(%rbp)
	movq	%rcx, -96(%rbp)
	movq	%rdx, -104(%rbp)
	movq	-88(%rbp), %rax
	movq	-96(%rbp), %rcx
	movq	-104(%rbp), %rdx
	movq	%rdx, -80(%rbp)
	movq	-80(%rbp), %rdx
	movq	%rax, -56(%rbp)
	movq	%rcx, -64(%rbp)
	movq	%rdx, -72(%rbp)
	movq	-56(%rbp), %rax
	movq	-64(%rbp), %rcx
	movq	-72(%rbp), %rdx
	movq	%rdx, -40(%rbp)
	movq	-40(%rbp), %rdx
	movq	%rax, -16(%rbp)
	movq	%rcx, -24(%rbp)
	movq	%rdx, -32(%rbp)
	movq	-24(%rbp), %rax
	movq	-32(%rbp), %rcx
	movq	%rcx, -8(%rbp)
	movq	-8(%rbp), %rcx
	movl	(%rcx), %esi
	movl	%esi, (%rax)
	movq	-144(%rbp), %rax
	addq	$4, %rax
	movq	%rax, -144(%rbp)
	movq	-160(%rbp), %rax
	movq	(%rax), %rcx
	addq	$4, %rcx
	movq	%rcx, (%rax)
	jmp	LBB9_1
LBB9_3:                                 ## %_ZNSt3__116allocator_traitsINS_9allocatorIiEEE25__construct_range_forwardIPKiPiEEvRS2_T_S9_RT0_.exit
	leaq	-232(%rbp), %rdi
	callq	__ZNSt3__16vectorIiNS_9allocatorIiEEE24__RAII_IncreaseAnnotator6__doneEv
	addq	$240, %rsp
	popq	%rbp
	retq
	.cfi_endproc

	.globl	__ZNKSt3__16vectorIiNS_9allocatorIiEEE8max_sizeEv
	.weak_def_can_be_hidden	__ZNKSt3__16vectorIiNS_9allocatorIiEEE8max_sizeEv
	.align	4, 0x90
__ZNKSt3__16vectorIiNS_9allocatorIiEEE8max_sizeEv: ## @_ZNKSt3__16vectorIiNS_9allocatorIiEEE8max_sizeEv
	.cfi_startproc
## BB#0:
	pushq	%rbp
Ltmp61:
	.cfi_def_cfa_offset 16
Ltmp62:
	.cfi_offset %rbp, -16
	movq	%rsp, %rbp
Ltmp63:
	.cfi_def_cfa_register %rbp
	subq	$56, %rsp
	leaq	-32(%rbp), %rax
	leaq	-168(%rbp), %rcx
	leaq	-160(%rbp), %rdx
	movq	$-1, %rsi
	movabsq	$4611686018427387903, %r8 ## imm = 0x3FFFFFFFFFFFFFFF
	movq	%rdi, -152(%rbp)
	movq	-152(%rbp), %rdi
	movq	%rdi, -144(%rbp)
	movq	-144(%rbp), %rdi
	addq	$16, %rdi
	movq	%rdi, -136(%rbp)
	movq	-136(%rbp), %rdi
	movq	%rdi, -128(%rbp)
	movq	-128(%rbp), %rdi
	movq	%rdi, -104(%rbp)
	movq	-104(%rbp), %rdi
	movq	%rdi, -96(%rbp)
	movq	-96(%rbp), %rdi
	movq	%rdi, -80(%rbp)
	movq	%r8, -160(%rbp)
	shrq	$1, %rsi
	movq	%rsi, -168(%rbp)
	movq	%rdx, -56(%rbp)
	movq	%rcx, -64(%rbp)
	movq	-56(%rbp), %rcx
	movq	-64(%rbp), %rdx
	movq	%rcx, -40(%rbp)
	movq	%rdx, -48(%rbp)
	movq	-48(%rbp), %rcx
	movq	-40(%rbp), %rdx
	movq	%rax, -8(%rbp)
	movq	%rcx, -16(%rbp)
	movq	%rdx, -24(%rbp)
	movq	-16(%rbp), %rax
	movq	(%rax), %rax
	movq	-24(%rbp), %rcx
	cmpq	(%rcx), %rax
	jae	LBB10_2
## BB#1:
	movq	-48(%rbp), %rax
	movq	%rax, -176(%rbp)        ## 8-byte Spill
	jmp	LBB10_3
LBB10_2:
	movq	-40(%rbp), %rax
	movq	%rax, -176(%rbp)        ## 8-byte Spill
LBB10_3:                                ## %_ZNSt3__13minImEERKT_S3_S3_.exit
	movq	-176(%rbp), %rax        ## 8-byte Reload
	movq	%rax, -184(%rbp)        ## 8-byte Spill
## BB#4:
	movq	-184(%rbp), %rax        ## 8-byte Reload
	movq	(%rax), %rax
	addq	$56, %rsp
	popq	%rbp
	retq
	.cfi_endproc

	.globl	__ZNKSt3__16vectorIiNS_9allocatorIiEEE14__annotate_newEm
	.weak_def_can_be_hidden	__ZNKSt3__16vectorIiNS_9allocatorIiEEE14__annotate_newEm
	.align	4, 0x90
__ZNKSt3__16vectorIiNS_9allocatorIiEEE14__annotate_newEm: ## @_ZNKSt3__16vectorIiNS_9allocatorIiEEE14__annotate_newEm
	.cfi_startproc
## BB#0:
	pushq	%rbp
Ltmp64:
	.cfi_def_cfa_offset 16
Ltmp65:
	.cfi_offset %rbp, -16
	movq	%rsp, %rbp
Ltmp66:
	.cfi_def_cfa_register %rbp
	subq	$176, %rsp
	movq	%rdi, -152(%rbp)
	movq	%rsi, -160(%rbp)
	movq	-152(%rbp), %rsi
	movq	%rsi, -144(%rbp)
	movq	-144(%rbp), %rdi
	movq	(%rdi), %rdi
	movq	%rdi, -136(%rbp)
	movq	-136(%rbp), %rdi
	movq	%rsi, -128(%rbp)
	movq	-128(%rbp), %rax
	movq	(%rax), %rax
	movq	%rax, -120(%rbp)
	movq	-120(%rbp), %rax
	movq	%rsi, -40(%rbp)
	movq	-40(%rbp), %rcx
	movq	%rcx, -32(%rbp)
	movq	-32(%rbp), %rcx
	movq	%rcx, -24(%rbp)
	movq	-24(%rbp), %rdx
	addq	$16, %rdx
	movq	%rdx, -16(%rbp)
	movq	-16(%rbp), %rdx
	movq	%rdx, -8(%rbp)
	movq	-8(%rbp), %rdx
	movq	(%rdx), %rdx
	movq	(%rcx), %rcx
	subq	%rcx, %rdx
	sarq	$2, %rdx
	shlq	$2, %rdx
	addq	%rdx, %rax
	movq	%rsi, -56(%rbp)
	movq	-56(%rbp), %rcx
	movq	(%rcx), %rcx
	movq	%rcx, -48(%rbp)
	movq	-48(%rbp), %rcx
	movq	%rsi, -96(%rbp)
	movq	-96(%rbp), %rdx
	movq	%rdx, -88(%rbp)
	movq	-88(%rbp), %rdx
	movq	%rdx, -80(%rbp)
	movq	-80(%rbp), %r8
	addq	$16, %r8
	movq	%r8, -72(%rbp)
	movq	-72(%rbp), %r8
	movq	%r8, -64(%rbp)
	movq	-64(%rbp), %r8
	movq	(%r8), %r8
	movq	(%rdx), %rdx
	subq	%rdx, %r8
	sarq	$2, %r8
	shlq	$2, %r8
	addq	%r8, %rcx
	movq	%rsi, -112(%rbp)
	movq	-112(%rbp), %rdx
	movq	(%rdx), %rdx
	movq	%rdx, -104(%rbp)
	movq	-104(%rbp), %rdx
	movq	-160(%rbp), %r8
	shlq	$2, %r8
	addq	%r8, %rdx
	movq	%rdi, -168(%rbp)        ## 8-byte Spill
	movq	%rsi, %rdi
	movq	-168(%rbp), %rsi        ## 8-byte Reload
	movq	%rdx, -176(%rbp)        ## 8-byte Spill
	movq	%rax, %rdx
	movq	-176(%rbp), %r8         ## 8-byte Reload
	callq	__ZNKSt3__16vectorIiNS_9allocatorIiEEE31__annotate_contiguous_containerEPKvS5_S5_S5_
	addq	$176, %rsp
	popq	%rbp
	retq
	.cfi_endproc

	.globl	__ZNKSt3__16vectorIiNS_9allocatorIiEEE31__annotate_contiguous_containerEPKvS5_S5_S5_
	.weak_def_can_be_hidden	__ZNKSt3__16vectorIiNS_9allocatorIiEEE31__annotate_contiguous_containerEPKvS5_S5_S5_
	.align	4, 0x90
__ZNKSt3__16vectorIiNS_9allocatorIiEEE31__annotate_contiguous_containerEPKvS5_S5_S5_: ## @_ZNKSt3__16vectorIiNS_9allocatorIiEEE31__annotate_contiguous_containerEPKvS5_S5_S5_
	.cfi_startproc
## BB#0:
	pushq	%rbp
Ltmp67:
	.cfi_def_cfa_offset 16
Ltmp68:
	.cfi_offset %rbp, -16
	movq	%rsp, %rbp
Ltmp69:
	.cfi_def_cfa_register %rbp
	movq	%rdi, -8(%rbp)
	movq	%rsi, -16(%rbp)
	movq	%rdx, -24(%rbp)
	movq	%rcx, -32(%rbp)
	movq	%r8, -40(%rbp)
	popq	%rbp
	retq
	.cfi_endproc

	.globl	__ZNSt3__16vectorIiNS_9allocatorIiEEE24__RAII_IncreaseAnnotatorC1ERKS3_m
	.weak_def_can_be_hidden	__ZNSt3__16vectorIiNS_9allocatorIiEEE24__RAII_IncreaseAnnotatorC1ERKS3_m
	.align	4, 0x90
__ZNSt3__16vectorIiNS_9allocatorIiEEE24__RAII_IncreaseAnnotatorC1ERKS3_m: ## @_ZNSt3__16vectorIiNS_9allocatorIiEEE24__RAII_IncreaseAnnotatorC1ERKS3_m
	.cfi_startproc
## BB#0:
	pushq	%rbp
Ltmp70:
	.cfi_def_cfa_offset 16
Ltmp71:
	.cfi_offset %rbp, -16
	movq	%rsp, %rbp
Ltmp72:
	.cfi_def_cfa_register %rbp
	subq	$32, %rsp
	movq	%rdi, -8(%rbp)
	movq	%rsi, -16(%rbp)
	movq	%rdx, -24(%rbp)
	movq	-8(%rbp), %rdi
	movq	-24(%rbp), %rdx
	movq	-16(%rbp), %rsi
	callq	__ZNSt3__16vectorIiNS_9allocatorIiEEE24__RAII_IncreaseAnnotatorC2ERKS3_m
	addq	$32, %rsp
	popq	%rbp
	retq
	.cfi_endproc

	.globl	__ZNSt3__16vectorIiNS_9allocatorIiEEE24__RAII_IncreaseAnnotator6__doneEv
	.weak_def_can_be_hidden	__ZNSt3__16vectorIiNS_9allocatorIiEEE24__RAII_IncreaseAnnotator6__doneEv
	.align	4, 0x90
__ZNSt3__16vectorIiNS_9allocatorIiEEE24__RAII_IncreaseAnnotator6__doneEv: ## @_ZNSt3__16vectorIiNS_9allocatorIiEEE24__RAII_IncreaseAnnotator6__doneEv
	.cfi_startproc
## BB#0:
	pushq	%rbp
Ltmp73:
	.cfi_def_cfa_offset 16
Ltmp74:
	.cfi_offset %rbp, -16
	movq	%rsp, %rbp
Ltmp75:
	.cfi_def_cfa_register %rbp
	movq	%rdi, -8(%rbp)
	popq	%rbp
	retq
	.cfi_endproc

	.globl	__ZNSt3__16vectorIiNS_9allocatorIiEEE24__RAII_IncreaseAnnotatorC2ERKS3_m
	.weak_def_can_be_hidden	__ZNSt3__16vectorIiNS_9allocatorIiEEE24__RAII_IncreaseAnnotatorC2ERKS3_m
	.align	4, 0x90
__ZNSt3__16vectorIiNS_9allocatorIiEEE24__RAII_IncreaseAnnotatorC2ERKS3_m: ## @_ZNSt3__16vectorIiNS_9allocatorIiEEE24__RAII_IncreaseAnnotatorC2ERKS3_m
	.cfi_startproc
## BB#0:
	pushq	%rbp
Ltmp76:
	.cfi_def_cfa_offset 16
Ltmp77:
	.cfi_offset %rbp, -16
	movq	%rsp, %rbp
Ltmp78:
	.cfi_def_cfa_register %rbp
	movq	%rdi, -8(%rbp)
	movq	%rsi, -16(%rbp)
	movq	%rdx, -24(%rbp)
	popq	%rbp
	retq
	.cfi_endproc

	.globl	__ZNSt3__124__put_character_sequenceIcNS_11char_traitsIcEEEERNS_13basic_ostreamIT_T0_EES7_PKS4_m
	.weak_def_can_be_hidden	__ZNSt3__124__put_character_sequenceIcNS_11char_traitsIcEEEERNS_13basic_ostreamIT_T0_EES7_PKS4_m
	.align	4, 0x90
__ZNSt3__124__put_character_sequenceIcNS_11char_traitsIcEEEERNS_13basic_ostreamIT_T0_EES7_PKS4_m: ## @_ZNSt3__124__put_character_sequenceIcNS_11char_traitsIcEEEERNS_13basic_ostreamIT_T0_EES7_PKS4_m
Lfunc_begin16:
	.cfi_startproc
	.cfi_personality 155, ___gxx_personality_v0
	.cfi_lsda 16, Lexception16
## BB#0:
	pushq	%rbp
Ltmp100:
	.cfi_def_cfa_offset 16
Ltmp101:
	.cfi_offset %rbp, -16
	movq	%rsp, %rbp
Ltmp102:
	.cfi_def_cfa_register %rbp
	subq	$384, %rsp              ## imm = 0x180
	movq	%rdi, -184(%rbp)
	movq	%rsi, -192(%rbp)
	movq	%rdx, -200(%rbp)
	movq	-184(%rbp), %rsi
Ltmp79:
	leaq	-216(%rbp), %rdi
	callq	__ZNSt3__113basic_ostreamIcNS_11char_traitsIcEEE6sentryC1ERS3_
Ltmp80:
	jmp	LBB16_1
LBB16_1:
	leaq	-216(%rbp), %rax
	movq	%rax, -176(%rbp)
	movq	-176(%rbp), %rax
	movb	(%rax), %cl
	movb	%cl, -249(%rbp)         ## 1-byte Spill
## BB#2:
	movb	-249(%rbp), %al         ## 1-byte Reload
	testb	$1, %al
	jne	LBB16_3
	jmp	LBB16_26
LBB16_3:
	leaq	-240(%rbp), %rax
	movq	-184(%rbp), %rcx
	movq	%rax, -160(%rbp)
	movq	%rcx, -168(%rbp)
	movq	-160(%rbp), %rax
	movq	-168(%rbp), %rcx
	movq	%rax, -144(%rbp)
	movq	%rcx, -152(%rbp)
	movq	-144(%rbp), %rax
	movq	-152(%rbp), %rcx
	movq	(%rcx), %rdx
	movq	-24(%rdx), %rdx
	addq	%rdx, %rcx
	movq	%rcx, -136(%rbp)
	movq	-136(%rbp), %rcx
	movq	%rcx, -128(%rbp)
	movq	-128(%rbp), %rcx
	movq	40(%rcx), %rcx
	movq	%rcx, (%rax)
	movq	-192(%rbp), %rsi
	movq	-184(%rbp), %rax
	movq	(%rax), %rcx
	movq	-24(%rcx), %rcx
	addq	%rcx, %rax
	movq	%rax, -88(%rbp)
	movq	-88(%rbp), %rax
	movl	8(%rax), %edi
	movq	%rsi, -264(%rbp)        ## 8-byte Spill
	movl	%edi, -268(%rbp)        ## 4-byte Spill
## BB#4:
	movl	-268(%rbp), %eax        ## 4-byte Reload
	andl	$176, %eax
	cmpl	$32, %eax
	jne	LBB16_6
## BB#5:
	movq	-192(%rbp), %rax
	addq	-200(%rbp), %rax
	movq	%rax, -280(%rbp)        ## 8-byte Spill
	jmp	LBB16_7
LBB16_6:
	movq	-192(%rbp), %rax
	movq	%rax, -280(%rbp)        ## 8-byte Spill
LBB16_7:
	movq	-280(%rbp), %rax        ## 8-byte Reload
	movq	-192(%rbp), %rcx
	addq	-200(%rbp), %rcx
	movq	-184(%rbp), %rdx
	movq	(%rdx), %rsi
	movq	-24(%rsi), %rsi
	addq	%rsi, %rdx
	movq	-184(%rbp), %rsi
	movq	(%rsi), %rdi
	movq	-24(%rdi), %rdi
	addq	%rdi, %rsi
	movq	%rsi, -72(%rbp)
	movq	-72(%rbp), %rsi
	movq	%rax, -288(%rbp)        ## 8-byte Spill
	movq	%rcx, -296(%rbp)        ## 8-byte Spill
	movq	%rdx, -304(%rbp)        ## 8-byte Spill
	movq	%rsi, -312(%rbp)        ## 8-byte Spill
	callq	__ZNSt3__111char_traitsIcE3eofEv
	movq	-312(%rbp), %rcx        ## 8-byte Reload
	movl	144(%rcx), %esi
	movl	%eax, %edi
	callq	__ZNSt3__111char_traitsIcE11eq_int_typeEii
	testb	$1, %al
	jne	LBB16_8
	jmp	LBB16_13
LBB16_8:
	movq	-312(%rbp), %rax        ## 8-byte Reload
	movq	%rax, -32(%rbp)
	movb	$32, -33(%rbp)
	movq	-32(%rbp), %rsi
Ltmp82:
	leaq	-48(%rbp), %rdi
	callq	__ZNKSt3__18ios_base6getlocEv
Ltmp83:
	jmp	LBB16_9
LBB16_9:                                ## %.noexc
	leaq	-48(%rbp), %rax
	movq	%rax, -24(%rbp)
Ltmp84:
	movq	__ZNSt3__15ctypeIcE2idE@GOTPCREL(%rip), %rsi
	movq	%rax, %rdi
	callq	__ZNKSt3__16locale9use_facetERNS0_2idE
Ltmp85:
	movq	%rax, -320(%rbp)        ## 8-byte Spill
	jmp	LBB16_10
LBB16_10:                               ## %_ZNSt3__19use_facetINS_5ctypeIcEEEERKT_RKNS_6localeE.exit.i.i
	movb	-33(%rbp), %al
	movq	-320(%rbp), %rcx        ## 8-byte Reload
	movq	%rcx, -8(%rbp)
	movb	%al, -9(%rbp)
	movq	-8(%rbp), %rdx
	movq	(%rdx), %rsi
	movq	56(%rsi), %rsi
	movsbl	-9(%rbp), %edi
Ltmp86:
	movl	%edi, -324(%rbp)        ## 4-byte Spill
	movq	%rdx, %rdi
	movl	-324(%rbp), %r8d        ## 4-byte Reload
	movq	%rsi, -336(%rbp)        ## 8-byte Spill
	movl	%r8d, %esi
	movq	-336(%rbp), %rdx        ## 8-byte Reload
	callq	*%rdx
Ltmp87:
	movb	%al, -337(%rbp)         ## 1-byte Spill
	jmp	LBB16_12
LBB16_11:
Ltmp88:
	movl	%edx, %ecx
	movq	%rax, -56(%rbp)
	movl	%ecx, -60(%rbp)
	leaq	-48(%rbp), %rdi
	callq	__ZNSt3__16localeD1Ev
	movq	-56(%rbp), %rax
	movl	-60(%rbp), %ecx
	movq	%rax, -352(%rbp)        ## 8-byte Spill
	movl	%ecx, -356(%rbp)        ## 4-byte Spill
	jmp	LBB16_21
LBB16_12:                               ## %_ZNKSt3__19basic_iosIcNS_11char_traitsIcEEE5widenEc.exit.i
	leaq	-48(%rbp), %rdi
	callq	__ZNSt3__16localeD1Ev
	movb	-337(%rbp), %al         ## 1-byte Reload
	movsbl	%al, %ecx
	movq	-312(%rbp), %rdi        ## 8-byte Reload
	movl	%ecx, 144(%rdi)
LBB16_13:                               ## %_ZNKSt3__19basic_iosIcNS_11char_traitsIcEEE4fillEv.exit
	movq	-312(%rbp), %rax        ## 8-byte Reload
	movl	144(%rax), %ecx
	movb	%cl, %dl
	movb	%dl, -357(%rbp)         ## 1-byte Spill
## BB#14:
	movq	-240(%rbp), %rdi
Ltmp89:
	movb	-357(%rbp), %al         ## 1-byte Reload
	movsbl	%al, %r9d
	movq	-264(%rbp), %rsi        ## 8-byte Reload
	movq	-288(%rbp), %rdx        ## 8-byte Reload
	movq	-296(%rbp), %rcx        ## 8-byte Reload
	movq	-304(%rbp), %r8         ## 8-byte Reload
	callq	__ZNSt3__116__pad_and_outputIcNS_11char_traitsIcEEEENS_19ostreambuf_iteratorIT_T0_EES6_PKS4_S8_S8_RNS_8ios_baseES4_
Ltmp90:
	movq	%rax, -368(%rbp)        ## 8-byte Spill
	jmp	LBB16_15
LBB16_15:
	leaq	-248(%rbp), %rax
	movq	-368(%rbp), %rcx        ## 8-byte Reload
	movq	%rcx, -248(%rbp)
	movq	%rax, -80(%rbp)
	movq	-80(%rbp), %rax
	cmpq	$0, (%rax)
	jne	LBB16_25
## BB#16:
	movq	-184(%rbp), %rax
	movq	(%rax), %rcx
	movq	-24(%rcx), %rcx
	addq	%rcx, %rax
	movq	%rax, -112(%rbp)
	movl	$5, -116(%rbp)
	movq	-112(%rbp), %rax
	movq	%rax, -96(%rbp)
	movl	$5, -100(%rbp)
	movq	-96(%rbp), %rax
	movl	32(%rax), %edx
	orl	$5, %edx
Ltmp91:
	movq	%rax, %rdi
	movl	%edx, %esi
	callq	__ZNSt3__18ios_base5clearEj
Ltmp92:
	jmp	LBB16_17
LBB16_17:                               ## %_ZNSt3__19basic_iosIcNS_11char_traitsIcEEE8setstateEj.exit
	jmp	LBB16_18
LBB16_18:
	jmp	LBB16_25
LBB16_19:
Ltmp81:
	movl	%edx, %ecx
	movq	%rax, -224(%rbp)
	movl	%ecx, -228(%rbp)
	jmp	LBB16_22
LBB16_20:
Ltmp93:
	movl	%edx, %ecx
	movq	%rax, -352(%rbp)        ## 8-byte Spill
	movl	%ecx, -356(%rbp)        ## 4-byte Spill
	jmp	LBB16_21
LBB16_21:                               ## %.body
	movl	-356(%rbp), %eax        ## 4-byte Reload
	movq	-352(%rbp), %rcx        ## 8-byte Reload
	leaq	-216(%rbp), %rdi
	movq	%rcx, -224(%rbp)
	movl	%eax, -228(%rbp)
	callq	__ZNSt3__113basic_ostreamIcNS_11char_traitsIcEEE6sentryD1Ev
LBB16_22:
	movq	-224(%rbp), %rdi
	callq	___cxa_begin_catch
	movq	-184(%rbp), %rdi
	movq	(%rdi), %rcx
	movq	-24(%rcx), %rcx
	addq	%rcx, %rdi
Ltmp94:
	movq	%rax, -376(%rbp)        ## 8-byte Spill
	callq	__ZNSt3__18ios_base33__set_badbit_and_consider_rethrowEv
Ltmp95:
	jmp	LBB16_23
LBB16_23:
	callq	___cxa_end_catch
LBB16_24:
	movq	-184(%rbp), %rax
	addq	$384, %rsp              ## imm = 0x180
	popq	%rbp
	retq
LBB16_25:
	jmp	LBB16_26
LBB16_26:
	leaq	-216(%rbp), %rdi
	callq	__ZNSt3__113basic_ostreamIcNS_11char_traitsIcEEE6sentryD1Ev
	jmp	LBB16_24
LBB16_27:
Ltmp96:
	movl	%edx, %ecx
	movq	%rax, -224(%rbp)
	movl	%ecx, -228(%rbp)
Ltmp97:
	callq	___cxa_end_catch
Ltmp98:
	jmp	LBB16_28
LBB16_28:
	jmp	LBB16_29
LBB16_29:
	movq	-224(%rbp), %rdi
	callq	__Unwind_Resume
LBB16_30:
Ltmp99:
	movl	%edx, %ecx
	movq	%rax, %rdi
	movl	%ecx, -380(%rbp)        ## 4-byte Spill
	callq	___clang_call_terminate
Lfunc_end16:
	.cfi_endproc
	.section	__TEXT,__gcc_except_tab
	.align	2
GCC_except_table16:
Lexception16:
	.byte	255                     ## @LPStart Encoding = omit
	.byte	155                     ## @TType Encoding = indirect pcrel sdata4
	.asciz	"\201\201\200\200"      ## @TType base offset
	.byte	3                       ## Call site Encoding = udata4
	.byte	117                     ## Call site table length
Lset21 = Ltmp79-Lfunc_begin16           ## >> Call Site 1 <<
	.long	Lset21
Lset22 = Ltmp80-Ltmp79                  ##   Call between Ltmp79 and Ltmp80
	.long	Lset22
Lset23 = Ltmp81-Lfunc_begin16           ##     jumps to Ltmp81
	.long	Lset23
	.byte	5                       ##   On action: 3
Lset24 = Ltmp82-Lfunc_begin16           ## >> Call Site 2 <<
	.long	Lset24
Lset25 = Ltmp83-Ltmp82                  ##   Call between Ltmp82 and Ltmp83
	.long	Lset25
Lset26 = Ltmp93-Lfunc_begin16           ##     jumps to Ltmp93
	.long	Lset26
	.byte	5                       ##   On action: 3
Lset27 = Ltmp84-Lfunc_begin16           ## >> Call Site 3 <<
	.long	Lset27
Lset28 = Ltmp87-Ltmp84                  ##   Call between Ltmp84 and Ltmp87
	.long	Lset28
Lset29 = Ltmp88-Lfunc_begin16           ##     jumps to Ltmp88
	.long	Lset29
	.byte	3                       ##   On action: 2
Lset30 = Ltmp89-Lfunc_begin16           ## >> Call Site 4 <<
	.long	Lset30
Lset31 = Ltmp92-Ltmp89                  ##   Call between Ltmp89 and Ltmp92
	.long	Lset31
Lset32 = Ltmp93-Lfunc_begin16           ##     jumps to Ltmp93
	.long	Lset32
	.byte	5                       ##   On action: 3
Lset33 = Ltmp92-Lfunc_begin16           ## >> Call Site 5 <<
	.long	Lset33
Lset34 = Ltmp94-Ltmp92                  ##   Call between Ltmp92 and Ltmp94
	.long	Lset34
	.long	0                       ##     has no landing pad
	.byte	0                       ##   On action: cleanup
Lset35 = Ltmp94-Lfunc_begin16           ## >> Call Site 6 <<
	.long	Lset35
Lset36 = Ltmp95-Ltmp94                  ##   Call between Ltmp94 and Ltmp95
	.long	Lset36
Lset37 = Ltmp96-Lfunc_begin16           ##     jumps to Ltmp96
	.long	Lset37
	.byte	0                       ##   On action: cleanup
Lset38 = Ltmp95-Lfunc_begin16           ## >> Call Site 7 <<
	.long	Lset38
Lset39 = Ltmp97-Ltmp95                  ##   Call between Ltmp95 and Ltmp97
	.long	Lset39
	.long	0                       ##     has no landing pad
	.byte	0                       ##   On action: cleanup
Lset40 = Ltmp97-Lfunc_begin16           ## >> Call Site 8 <<
	.long	Lset40
Lset41 = Ltmp98-Ltmp97                  ##   Call between Ltmp97 and Ltmp98
	.long	Lset41
Lset42 = Ltmp99-Lfunc_begin16           ##     jumps to Ltmp99
	.long	Lset42
	.byte	5                       ##   On action: 3
Lset43 = Ltmp98-Lfunc_begin16           ## >> Call Site 9 <<
	.long	Lset43
Lset44 = Lfunc_end16-Ltmp98             ##   Call between Ltmp98 and Lfunc_end16
	.long	Lset44
	.long	0                       ##     has no landing pad
	.byte	0                       ##   On action: cleanup
	.byte	0                       ## >> Action Record 1 <<
                                        ##   Cleanup
	.byte	0                       ##   No further actions
	.byte	1                       ## >> Action Record 2 <<
                                        ##   Catch TypeInfo 1
	.byte	125                     ##   Continue to action 1
	.byte	1                       ## >> Action Record 3 <<
                                        ##   Catch TypeInfo 1
	.byte	0                       ##   No further actions
                                        ## >> Catch TypeInfos <<
	.long	0                       ## TypeInfo 1
	.align	2

	.section	__TEXT,__textcoal_nt,coalesced,pure_instructions
	.globl	__ZNSt3__111char_traitsIcE6lengthEPKc
	.weak_def_can_be_hidden	__ZNSt3__111char_traitsIcE6lengthEPKc
	.align	4, 0x90
__ZNSt3__111char_traitsIcE6lengthEPKc:  ## @_ZNSt3__111char_traitsIcE6lengthEPKc
	.cfi_startproc
## BB#0:
	pushq	%rbp
Ltmp103:
	.cfi_def_cfa_offset 16
Ltmp104:
	.cfi_offset %rbp, -16
	movq	%rsp, %rbp
Ltmp105:
	.cfi_def_cfa_register %rbp
	subq	$16, %rsp
	movq	%rdi, -8(%rbp)
	movq	-8(%rbp), %rdi
	callq	_strlen
	addq	$16, %rsp
	popq	%rbp
	retq
	.cfi_endproc

	.private_extern	__ZNSt3__116__pad_and_outputIcNS_11char_traitsIcEEEENS_19ostreambuf_iteratorIT_T0_EES6_PKS4_S8_S8_RNS_8ios_baseES4_
	.globl	__ZNSt3__116__pad_and_outputIcNS_11char_traitsIcEEEENS_19ostreambuf_iteratorIT_T0_EES6_PKS4_S8_S8_RNS_8ios_baseES4_
	.weak_def_can_be_hidden	__ZNSt3__116__pad_and_outputIcNS_11char_traitsIcEEEENS_19ostreambuf_iteratorIT_T0_EES6_PKS4_S8_S8_RNS_8ios_baseES4_
	.align	4, 0x90
__ZNSt3__116__pad_and_outputIcNS_11char_traitsIcEEEENS_19ostreambuf_iteratorIT_T0_EES6_PKS4_S8_S8_RNS_8ios_baseES4_: ## @_ZNSt3__116__pad_and_outputIcNS_11char_traitsIcEEEENS_19ostreambuf_iteratorIT_T0_EES6_PKS4_S8_S8_RNS_8ios_baseES4_
Lfunc_begin18:
	.cfi_startproc
	.cfi_personality 155, ___gxx_personality_v0
	.cfi_lsda 16, Lexception18
## BB#0:
	pushq	%rbp
Ltmp109:
	.cfi_def_cfa_offset 16
Ltmp110:
	.cfi_offset %rbp, -16
	movq	%rsp, %rbp
Ltmp111:
	.cfi_def_cfa_register %rbp
	subq	$480, %rsp              ## imm = 0x1E0
	movb	%r9b, %al
	movq	%rdi, -312(%rbp)
	movq	%rsi, -320(%rbp)
	movq	%rdx, -328(%rbp)
	movq	%rcx, -336(%rbp)
	movq	%r8, -344(%rbp)
	movb	%al, -345(%rbp)
	cmpq	$0, -312(%rbp)
	jne	LBB18_2
## BB#1:
	movq	-312(%rbp), %rax
	movq	%rax, -304(%rbp)
	jmp	LBB18_26
LBB18_2:
	movq	-336(%rbp), %rax
	movq	-320(%rbp), %rcx
	subq	%rcx, %rax
	movq	%rax, -360(%rbp)
	movq	-344(%rbp), %rax
	movq	%rax, -296(%rbp)
	movq	-296(%rbp), %rax
	movq	24(%rax), %rax
	movq	%rax, -368(%rbp)
	movq	-368(%rbp), %rax
	cmpq	-360(%rbp), %rax
	jle	LBB18_4
## BB#3:
	movq	-360(%rbp), %rax
	movq	-368(%rbp), %rcx
	subq	%rax, %rcx
	movq	%rcx, -368(%rbp)
	jmp	LBB18_5
LBB18_4:
	movq	$0, -368(%rbp)
LBB18_5:
	movq	-328(%rbp), %rax
	movq	-320(%rbp), %rcx
	subq	%rcx, %rax
	movq	%rax, -376(%rbp)
	cmpq	$0, -376(%rbp)
	jle	LBB18_9
## BB#6:
	movq	-312(%rbp), %rax
	movq	-320(%rbp), %rcx
	movq	-376(%rbp), %rdx
	movq	%rax, -224(%rbp)
	movq	%rcx, -232(%rbp)
	movq	%rdx, -240(%rbp)
	movq	-224(%rbp), %rax
	movq	(%rax), %rcx
	movq	96(%rcx), %rcx
	movq	-232(%rbp), %rsi
	movq	-240(%rbp), %rdx
	movq	%rax, %rdi
	callq	*%rcx
	cmpq	-376(%rbp), %rax
	je	LBB18_8
## BB#7:
	movq	$0, -312(%rbp)
	movq	-312(%rbp), %rax
	movq	%rax, -304(%rbp)
	jmp	LBB18_26
LBB18_8:
	jmp	LBB18_9
LBB18_9:
	cmpq	$0, -368(%rbp)
	jle	LBB18_21
## BB#10:
	leaq	-400(%rbp), %rax
	movq	-368(%rbp), %rcx
	movb	-345(%rbp), %dl
	movq	%rax, -200(%rbp)
	movq	%rcx, -208(%rbp)
	movb	%dl, -209(%rbp)
	movq	-200(%rbp), %rax
	movq	-208(%rbp), %rcx
	movb	-209(%rbp), %dl
	movq	%rax, -176(%rbp)
	movq	%rcx, -184(%rbp)
	movb	%dl, -185(%rbp)
	movq	-176(%rbp), %rax
	movq	%rax, -168(%rbp)
	movq	-168(%rbp), %rcx
	movq	%rcx, -160(%rbp)
	movq	-160(%rbp), %rcx
	movq	%rcx, -152(%rbp)
	movq	-152(%rbp), %rcx
	movq	%rcx, -144(%rbp)
	movq	-184(%rbp), %rsi
	movq	%rax, %rdi
	movsbl	-185(%rbp), %edx
	callq	__ZNSt3__112basic_stringIcNS_11char_traitsIcEENS_9allocatorIcEEE6__initEmc
	leaq	-400(%rbp), %rax
	movq	-312(%rbp), %rcx
	movq	%rax, -136(%rbp)
	movq	-136(%rbp), %rax
	movq	%rax, -128(%rbp)
	movq	-128(%rbp), %rax
	movq	%rax, -120(%rbp)
	movq	-120(%rbp), %rsi
	movq	%rsi, -112(%rbp)
	movq	-112(%rbp), %rsi
	movq	%rsi, -104(%rbp)
	movq	-104(%rbp), %rsi
	movzbl	(%rsi), %edx
	andl	$1, %edx
	cmpl	$0, %edx
	movq	%rcx, -424(%rbp)        ## 8-byte Spill
	movq	%rax, -432(%rbp)        ## 8-byte Spill
	je	LBB18_12
## BB#11:
	movq	-432(%rbp), %rax        ## 8-byte Reload
	movq	%rax, -56(%rbp)
	movq	-56(%rbp), %rcx
	movq	%rcx, -48(%rbp)
	movq	-48(%rbp), %rcx
	movq	%rcx, -40(%rbp)
	movq	-40(%rbp), %rcx
	movq	16(%rcx), %rcx
	movq	%rcx, -440(%rbp)        ## 8-byte Spill
	jmp	LBB18_13
LBB18_12:
	movq	-432(%rbp), %rax        ## 8-byte Reload
	movq	%rax, -96(%rbp)
	movq	-96(%rbp), %rcx
	movq	%rcx, -88(%rbp)
	movq	-88(%rbp), %rcx
	movq	%rcx, -80(%rbp)
	movq	-80(%rbp), %rcx
	addq	$1, %rcx
	movq	%rcx, -72(%rbp)
	movq	-72(%rbp), %rcx
	movq	%rcx, -64(%rbp)
	movq	-64(%rbp), %rcx
	movq	%rcx, -440(%rbp)        ## 8-byte Spill
LBB18_13:                               ## %_ZNKSt3__112basic_stringIcNS_11char_traitsIcEENS_9allocatorIcEEE4dataEv.exit
	movq	-440(%rbp), %rax        ## 8-byte Reload
	movq	%rax, -32(%rbp)
	movq	-368(%rbp), %rcx
	movq	-424(%rbp), %rdx        ## 8-byte Reload
	movq	%rdx, -8(%rbp)
	movq	%rax, -16(%rbp)
	movq	%rcx, -24(%rbp)
	movq	-8(%rbp), %rax
	movq	(%rax), %rsi
	movq	96(%rsi), %rsi
	movq	-16(%rbp), %rdi
Ltmp106:
	movq	%rdi, -448(%rbp)        ## 8-byte Spill
	movq	%rax, %rdi
	movq	-448(%rbp), %rax        ## 8-byte Reload
	movq	%rsi, -456(%rbp)        ## 8-byte Spill
	movq	%rax, %rsi
	movq	%rcx, %rdx
	movq	-456(%rbp), %rcx        ## 8-byte Reload
	callq	*%rcx
Ltmp107:
	movq	%rax, -464(%rbp)        ## 8-byte Spill
	jmp	LBB18_14
LBB18_14:                               ## %_ZNSt3__115basic_streambufIcNS_11char_traitsIcEEE5sputnEPKcl.exit
	jmp	LBB18_15
LBB18_15:
	movq	-464(%rbp), %rax        ## 8-byte Reload
	cmpq	-368(%rbp), %rax
	je	LBB18_18
## BB#16:
	movq	$0, -312(%rbp)
	movq	-312(%rbp), %rax
	movq	%rax, -304(%rbp)
	movl	$1, -416(%rbp)
	jmp	LBB18_19
LBB18_17:
Ltmp108:
	leaq	-400(%rbp), %rdi
	movl	%edx, %ecx
	movq	%rax, -408(%rbp)
	movl	%ecx, -412(%rbp)
	callq	__ZNSt3__112basic_stringIcNS_11char_traitsIcEENS_9allocatorIcEEED1Ev
	jmp	LBB18_27
LBB18_18:
	movl	$0, -416(%rbp)
LBB18_19:
	leaq	-400(%rbp), %rdi
	callq	__ZNSt3__112basic_stringIcNS_11char_traitsIcEENS_9allocatorIcEEED1Ev
	movl	-416(%rbp), %eax
	subl	$1, %eax
	movl	%eax, -468(%rbp)        ## 4-byte Spill
	je	LBB18_26
	jmp	LBB18_20
LBB18_20:
	jmp	LBB18_21
LBB18_21:
	movq	-336(%rbp), %rax
	movq	-328(%rbp), %rcx
	subq	%rcx, %rax
	movq	%rax, -376(%rbp)
	cmpq	$0, -376(%rbp)
	jle	LBB18_25
## BB#22:
	movq	-312(%rbp), %rax
	movq	-328(%rbp), %rcx
	movq	-376(%rbp), %rdx
	movq	%rax, -248(%rbp)
	movq	%rcx, -256(%rbp)
	movq	%rdx, -264(%rbp)
	movq	-248(%rbp), %rax
	movq	(%rax), %rcx
	movq	96(%rcx), %rcx
	movq	-256(%rbp), %rsi
	movq	-264(%rbp), %rdx
	movq	%rax, %rdi
	callq	*%rcx
	cmpq	-376(%rbp), %rax
	je	LBB18_24
## BB#23:
	movq	$0, -312(%rbp)
	movq	-312(%rbp), %rax
	movq	%rax, -304(%rbp)
	jmp	LBB18_26
LBB18_24:
	jmp	LBB18_25
LBB18_25:
	movq	-344(%rbp), %rax
	movq	%rax, -272(%rbp)
	movq	$0, -280(%rbp)
	movq	-272(%rbp), %rax
	movq	24(%rax), %rcx
	movq	%rcx, -288(%rbp)
	movq	-280(%rbp), %rcx
	movq	%rcx, 24(%rax)
	movq	-312(%rbp), %rax
	movq	%rax, -304(%rbp)
LBB18_26:
	movq	-304(%rbp), %rax
	addq	$480, %rsp              ## imm = 0x1E0
	popq	%rbp
	retq
LBB18_27:
	movq	-408(%rbp), %rdi
	callq	__Unwind_Resume
## BB#28:
Lfunc_end18:
	.cfi_endproc
	.section	__TEXT,__gcc_except_tab
	.align	2
GCC_except_table18:
Lexception18:
	.byte	255                     ## @LPStart Encoding = omit
	.byte	155                     ## @TType Encoding = indirect pcrel sdata4
	.byte	41                      ## @TType base offset
	.byte	3                       ## Call site Encoding = udata4
	.byte	39                      ## Call site table length
Lset45 = Lfunc_begin18-Lfunc_begin18    ## >> Call Site 1 <<
	.long	Lset45
Lset46 = Ltmp106-Lfunc_begin18          ##   Call between Lfunc_begin18 and Ltmp106
	.long	Lset46
	.long	0                       ##     has no landing pad
	.byte	0                       ##   On action: cleanup
Lset47 = Ltmp106-Lfunc_begin18          ## >> Call Site 2 <<
	.long	Lset47
Lset48 = Ltmp107-Ltmp106                ##   Call between Ltmp106 and Ltmp107
	.long	Lset48
Lset49 = Ltmp108-Lfunc_begin18          ##     jumps to Ltmp108
	.long	Lset49
	.byte	0                       ##   On action: cleanup
Lset50 = Ltmp107-Lfunc_begin18          ## >> Call Site 3 <<
	.long	Lset50
Lset51 = Lfunc_end18-Ltmp107            ##   Call between Ltmp107 and Lfunc_end18
	.long	Lset51
	.long	0                       ##     has no landing pad
	.byte	0                       ##   On action: cleanup
	.align	2

	.section	__TEXT,__textcoal_nt,coalesced,pure_instructions
	.globl	__ZNSt3__111char_traitsIcE11eq_int_typeEii
	.weak_def_can_be_hidden	__ZNSt3__111char_traitsIcE11eq_int_typeEii
	.align	4, 0x90
__ZNSt3__111char_traitsIcE11eq_int_typeEii: ## @_ZNSt3__111char_traitsIcE11eq_int_typeEii
	.cfi_startproc
## BB#0:
	pushq	%rbp
Ltmp112:
	.cfi_def_cfa_offset 16
Ltmp113:
	.cfi_offset %rbp, -16
	movq	%rsp, %rbp
Ltmp114:
	.cfi_def_cfa_register %rbp
	movl	%edi, -4(%rbp)
	movl	%esi, -8(%rbp)
	movl	-4(%rbp), %esi
	cmpl	-8(%rbp), %esi
	sete	%al
	andb	$1, %al
	movzbl	%al, %eax
	popq	%rbp
	retq
	.cfi_endproc

	.globl	__ZNSt3__111char_traitsIcE3eofEv
	.weak_def_can_be_hidden	__ZNSt3__111char_traitsIcE3eofEv
	.align	4, 0x90
__ZNSt3__111char_traitsIcE3eofEv:       ## @_ZNSt3__111char_traitsIcE3eofEv
	.cfi_startproc
## BB#0:
	pushq	%rbp
Ltmp115:
	.cfi_def_cfa_offset 16
Ltmp116:
	.cfi_offset %rbp, -16
	movq	%rsp, %rbp
Ltmp117:
	.cfi_def_cfa_register %rbp
	movl	$4294967295, %eax       ## imm = 0xFFFFFFFF
	popq	%rbp
	retq
	.cfi_endproc

	.globl	__ZNSt3__1lsINS_11char_traitsIcEEEERNS_13basic_ostreamIcT_EES6_c
	.weak_def_can_be_hidden	__ZNSt3__1lsINS_11char_traitsIcEEEERNS_13basic_ostreamIcT_EES6_c
	.align	4, 0x90
__ZNSt3__1lsINS_11char_traitsIcEEEERNS_13basic_ostreamIcT_EES6_c: ## @_ZNSt3__1lsINS_11char_traitsIcEEEERNS_13basic_ostreamIcT_EES6_c
	.cfi_startproc
## BB#0:
	pushq	%rbp
Ltmp118:
	.cfi_def_cfa_offset 16
Ltmp119:
	.cfi_offset %rbp, -16
	movq	%rsp, %rbp
Ltmp120:
	.cfi_def_cfa_register %rbp
	subq	$16, %rsp
	movb	%sil, %al
	leaq	-9(%rbp), %rsi
	movl	$1, %ecx
	movl	%ecx, %edx
	movq	%rdi, -8(%rbp)
	movb	%al, -9(%rbp)
	movq	-8(%rbp), %rdi
	callq	__ZNSt3__124__put_character_sequenceIcNS_11char_traitsIcEEEERNS_13basic_ostreamIT_T0_EES7_PKS4_m
	addq	$16, %rsp
	popq	%rbp
	retq
	.cfi_endproc

	.globl	__ZNKSt3__16vectorIiNS_9allocatorIiEEE17__annotate_shrinkEm
	.weak_def_can_be_hidden	__ZNKSt3__16vectorIiNS_9allocatorIiEEE17__annotate_shrinkEm
	.align	4, 0x90
__ZNKSt3__16vectorIiNS_9allocatorIiEEE17__annotate_shrinkEm: ## @_ZNKSt3__16vectorIiNS_9allocatorIiEEE17__annotate_shrinkEm
	.cfi_startproc
## BB#0:
	pushq	%rbp
Ltmp121:
	.cfi_def_cfa_offset 16
Ltmp122:
	.cfi_offset %rbp, -16
	movq	%rsp, %rbp
Ltmp123:
	.cfi_def_cfa_register %rbp
	subq	$144, %rsp
	movq	%rdi, -120(%rbp)
	movq	%rsi, -128(%rbp)
	movq	-120(%rbp), %rsi
	movq	%rsi, -112(%rbp)
	movq	-112(%rbp), %rdi
	movq	(%rdi), %rdi
	movq	%rdi, -104(%rbp)
	movq	-104(%rbp), %rdi
	movq	%rsi, -96(%rbp)
	movq	-96(%rbp), %rax
	movq	(%rax), %rax
	movq	%rax, -88(%rbp)
	movq	-88(%rbp), %rax
	movq	%rsi, -40(%rbp)
	movq	-40(%rbp), %rcx
	movq	%rcx, -32(%rbp)
	movq	-32(%rbp), %rcx
	movq	%rcx, -24(%rbp)
	movq	-24(%rbp), %rdx
	addq	$16, %rdx
	movq	%rdx, -16(%rbp)
	movq	-16(%rbp), %rdx
	movq	%rdx, -8(%rbp)
	movq	-8(%rbp), %rdx
	movq	(%rdx), %rdx
	movq	(%rcx), %rcx
	subq	%rcx, %rdx
	sarq	$2, %rdx
	shlq	$2, %rdx
	addq	%rdx, %rax
	movq	%rsi, -56(%rbp)
	movq	-56(%rbp), %rcx
	movq	(%rcx), %rcx
	movq	%rcx, -48(%rbp)
	movq	-48(%rbp), %rcx
	movq	-128(%rbp), %rdx
	shlq	$2, %rdx
	addq	%rdx, %rcx
	movq	%rsi, -72(%rbp)
	movq	-72(%rbp), %rdx
	movq	(%rdx), %rdx
	movq	%rdx, -64(%rbp)
	movq	-64(%rbp), %rdx
	movq	%rsi, -80(%rbp)
	movq	-80(%rbp), %r8
	movq	8(%r8), %r9
	movq	(%r8), %r8
	subq	%r8, %r9
	sarq	$2, %r9
	shlq	$2, %r9
	addq	%r9, %rdx
	movq	%rdi, -136(%rbp)        ## 8-byte Spill
	movq	%rsi, %rdi
	movq	-136(%rbp), %rsi        ## 8-byte Reload
	movq	%rdx, -144(%rbp)        ## 8-byte Spill
	movq	%rax, %rdx
	movq	-144(%rbp), %r8         ## 8-byte Reload
	callq	__ZNKSt3__16vectorIiNS_9allocatorIiEEE31__annotate_contiguous_containerEPKvS5_S5_S5_
	addq	$144, %rsp
	popq	%rbp
	retq
	.cfi_endproc

	.section	__TEXT,__cstring,cstring_literals
L_.str:                                 ## @.str
	.asciz	"Vector contains "

L_.str1:                                ## @.str1
	.asciz	" elements: "

L_.str2:                                ## @.str2
	.asciz	"After a call to pop_back() "


.subsections_via_symbols
