	.section	__TEXT,__text,regular,pure_instructions
	.macosx_version_min 10, 10
	.globl	_main
	.align	4, 0x90
_main:                                  ## @main
Lfunc_begin0:
	.cfi_startproc
	.cfi_personality 155, ___gxx_personality_v0
	.cfi_lsda 16, Lexception0
## BB#0:
	pushq	%rbp
Ltmp61:
	.cfi_def_cfa_offset 16
Ltmp62:
	.cfi_offset %rbp, -16
	movq	%rsp, %rbp
Ltmp63:
	.cfi_def_cfa_register %rbp
	subq	$2656, %rsp             ## imm = 0xA60
	movl	$0, -1996(%rbp)
	leaq	-2024(%rbp), %rax
	movq	%rax, -1992(%rbp)
	movq	%rax, -1968(%rbp)
	leaq	-1976(%rbp), %rcx
	movq	%rcx, -1960(%rbp)
	movq	%rcx, -1944(%rbp)
	movq	%rax, %rdi
	movq	%rcx, %rsi
	callq	__ZNSt3__16__treeINS_12__value_typeIiNS_12basic_stringIcNS_11char_traitsIcEENS_9allocatorIcEEEEEENS_19__map_value_compareIiS8_NS_4lessIiEELb1EEENS5_IS8_EEEC1ERKSC_
	movl	$3, -2060(%rbp)
	leaq	-2056(%rbp), %rax
	movq	%rax, -1920(%rbp)
	leaq	-2060(%rbp), %rax
	movq	%rax, -1928(%rbp)
	leaq	L_.str(%rip), %rax
	movq	%rax, -1936(%rbp)
	movq	-1920(%rbp), %rcx
	movq	-1928(%rbp), %rsi
	movq	%rcx, -1896(%rbp)
	movq	%rsi, -1904(%rbp)
	movq	%rax, -1912(%rbp)
	movq	-1896(%rbp), %rax
	movq	-1904(%rbp), %rcx
	movq	%rcx, -1888(%rbp)
	movl	(%rcx), %edx
	movl	%edx, (%rax)
	addq	$8, %rax
	movq	-1912(%rbp), %rcx
	movq	%rcx, -1816(%rbp)
	movq	%rax, -1872(%rbp)
	movq	%rcx, -1880(%rbp)
	movq	-1872(%rbp), %rax
	movq	%rax, -1856(%rbp)
	movq	%rcx, -1864(%rbp)
	movq	-1856(%rbp), %rax
	movq	%rax, -1848(%rbp)
	movq	%rax, -1840(%rbp)
	movq	%rax, -1832(%rbp)
	movq	%rax, -1824(%rbp)
	movq	-1864(%rbp), %rcx
Ltmp0:
	movq	%rcx, %rdi
	movq	%rax, -2296(%rbp)       ## 8-byte Spill
	movq	%rcx, -2304(%rbp)       ## 8-byte Spill
	callq	__ZNSt3__111char_traitsIcE6lengthEPKc
Ltmp1:
	movq	%rax, -2312(%rbp)       ## 8-byte Spill
	jmp	LBB0_1
LBB0_1:                                 ## %.noexc
Ltmp2:
	movq	-2296(%rbp), %rdi       ## 8-byte Reload
	movq	-2304(%rbp), %rsi       ## 8-byte Reload
	movq	-2312(%rbp), %rdx       ## 8-byte Reload
	callq	__ZNSt3__112basic_stringIcNS_11char_traitsIcEENS_9allocatorIcEEE6__initEPKcm
Ltmp3:
	jmp	LBB0_2
LBB0_2:                                 ## %_ZNSt3__14pairIKiNS_12basic_stringIcNS_11char_traitsIcEENS_9allocatorIcEEEEEC1IiRA6_KcvEEOT_OT0_.exit
	jmp	LBB0_3
LBB0_3:
	leaq	-2024(%rbp), %rax
	movq	%rax, -1784(%rbp)
	leaq	-2056(%rbp), %rax
	movq	%rax, -1792(%rbp)
	movq	-1784(%rbp), %rdi
	movq	%rax, -1760(%rbp)
Ltmp4:
	movq	%rax, %rsi
	callq	__ZNSt3__16__treeINS_12__value_typeIiNS_12basic_stringIcNS_11char_traitsIcEENS_9allocatorIcEEEEEENS_19__map_value_compareIiS8_NS_4lessIiEELb1EEENS5_IS8_EEE15__insert_uniqueINS_4pairIKiS7_EEEENSG_INS_15__tree_iteratorIS8_PNS_11__tree_nodeIS8_PvEElEEbEEOT_
Ltmp5:
	movb	%dl, -2313(%rbp)        ## 1-byte Spill
	movq	%rax, -2328(%rbp)       ## 8-byte Spill
	jmp	LBB0_4
LBB0_4:                                 ## %_ZNSt3__13mapIiNS_12basic_stringIcNS_11char_traitsIcEENS_9allocatorIcEEEENS_4lessIiEENS4_INS_4pairIKiS6_EEEEE6insertISB_vEENS9_INS_14__map_iteratorINS_15__tree_iteratorINS_12__value_typeIiS6_EEPNS_11__tree_nodeISI_PvEElEEEEbEEOT_.exit
	movq	-2328(%rbp), %rax       ## 8-byte Reload
	movq	%rax, -1808(%rbp)
	movb	-2313(%rbp), %cl        ## 1-byte Reload
	movb	%cl, -1800(%rbp)
	leaq	-1776(%rbp), %rdx
	movq	%rdx, -1736(%rbp)
	leaq	-1808(%rbp), %rdx
	movq	%rdx, -1744(%rbp)
	movq	$0, -1752(%rbp)
	movq	-1736(%rbp), %rdx
	movq	-1744(%rbp), %rsi
	movq	%rdx, -1704(%rbp)
	movq	%rsi, -1712(%rbp)
	movq	$0, -1720(%rbp)
	movq	-1704(%rbp), %rdx
	movq	-1712(%rbp), %rsi
	movq	%rsi, -1696(%rbp)
	movq	(%rsi), %rsi
	movq	%rsi, -1728(%rbp)
	movq	%rsi, -1672(%rbp)
	movq	%rdx, -1680(%rbp)
	movq	-1672(%rbp), %rsi
	movq	%rsi, -1656(%rbp)
	movq	%rdx, -1664(%rbp)
	movq	-1656(%rbp), %rsi
	movq	%rsi, (%rdx)
	movq	-1712(%rbp), %rsi
	movq	%rsi, %rdi
	addq	$8, %rdi
	movq	%rdi, -1688(%rbp)
	movb	8(%rsi), %r8b
	andb	$1, %r8b
	movb	%r8b, 8(%rdx)
	movb	-1768(%rbp), %r8b
	movq	-1776(%rbp), %rdx
	movb	%r8b, -2329(%rbp)       ## 1-byte Spill
	movq	%rdx, -2344(%rbp)       ## 8-byte Spill
## BB#5:
	movq	-2344(%rbp), %rax       ## 8-byte Reload
	movq	%rax, -2096(%rbp)
	movb	-2329(%rbp), %cl        ## 1-byte Reload
	movb	%cl, -2088(%rbp)
	leaq	-2056(%rbp), %rdi
	callq	__ZNSt3__14pairIKiNS_12basic_stringIcNS_11char_traitsIcEENS_9allocatorIcEEEEED1Ev
	movl	$-1, -2116(%rbp)
	leaq	-2116(%rbp), %rax
	movq	%rax, -1640(%rbp)
	leaq	L_.str1(%rip), %rax
	movq	%rax, -1648(%rbp)
	movq	-1640(%rbp), %rax
	movq	%rax, -1616(%rbp)
	movq	-1648(%rbp), %rdi
	movq	%rdi, -1544(%rbp)
	leaq	-1632(%rbp), %rdx
	movq	%rdx, -1592(%rbp)
	movq	%rax, -1600(%rbp)
	movq	%rdi, -1608(%rbp)
	movq	-1592(%rbp), %rax
	movq	-1600(%rbp), %rdx
	movq	%rax, -1568(%rbp)
	movq	%rdx, -1576(%rbp)
	movq	%rdi, -1584(%rbp)
	movq	-1568(%rbp), %rax
	movq	-1576(%rbp), %rdx
	movq	%rdx, -1560(%rbp)
	movl	(%rdx), %esi
	movl	%esi, (%rax)
	movq	-1584(%rbp), %rdx
	movq	%rdx, -1552(%rbp)
	movq	%rdx, 8(%rax)
	movq	-1624(%rbp), %rax
	movl	-1632(%rbp), %esi
	movq	%rax, -2352(%rbp)       ## 8-byte Spill
	movl	%esi, -2356(%rbp)       ## 4-byte Spill
## BB#6:
	movl	-2356(%rbp), %eax       ## 4-byte Reload
	movl	%eax, -2112(%rbp)
	movq	-2352(%rbp), %rcx       ## 8-byte Reload
	movq	%rcx, -2104(%rbp)
	leaq	-2024(%rbp), %rdx
	movq	%rdx, -1512(%rbp)
	leaq	-2112(%rbp), %rdx
	movq	%rdx, -1520(%rbp)
	movq	-1512(%rbp), %rdi
	movq	%rdx, -1488(%rbp)
Ltmp7:
	movq	%rdx, %rsi
	callq	__ZNSt3__16__treeINS_12__value_typeIiNS_12basic_stringIcNS_11char_traitsIcEENS_9allocatorIcEEEEEENS_19__map_value_compareIiS8_NS_4lessIiEELb1EEENS5_IS8_EEE15__insert_uniqueINS_4pairIiPKcEEEENSG_INS_15__tree_iteratorIS8_PNS_11__tree_nodeIS8_PvEElEEbEEOT_
Ltmp8:
	movb	%dl, -2357(%rbp)        ## 1-byte Spill
	movq	%rax, -2368(%rbp)       ## 8-byte Spill
	jmp	LBB0_7
LBB0_7:                                 ## %_ZNSt3__13mapIiNS_12basic_stringIcNS_11char_traitsIcEENS_9allocatorIcEEEENS_4lessIiEENS4_INS_4pairIKiS6_EEEEE6insertINS9_IiPKcEEvEENS9_INS_14__map_iteratorINS_15__tree_iteratorINS_12__value_typeIiS6_EEPNS_11__tree_nodeISL_PvEElEEEEbEEOT_.exit
	movq	-2368(%rbp), %rax       ## 8-byte Reload
	movq	%rax, -1536(%rbp)
	movb	-2357(%rbp), %cl        ## 1-byte Reload
	movb	%cl, -1528(%rbp)
	leaq	-1504(%rbp), %rdx
	movq	%rdx, -1464(%rbp)
	leaq	-1536(%rbp), %rdx
	movq	%rdx, -1472(%rbp)
	movq	$0, -1480(%rbp)
	movq	-1464(%rbp), %rdx
	movq	-1472(%rbp), %rsi
	movq	%rdx, -1432(%rbp)
	movq	%rsi, -1440(%rbp)
	movq	$0, -1448(%rbp)
	movq	-1432(%rbp), %rdx
	movq	-1440(%rbp), %rsi
	movq	%rsi, -1424(%rbp)
	movq	(%rsi), %rsi
	movq	%rsi, -1456(%rbp)
	movq	%rsi, -1400(%rbp)
	movq	%rdx, -1408(%rbp)
	movq	-1400(%rbp), %rsi
	movq	%rsi, -1384(%rbp)
	movq	%rdx, -1392(%rbp)
	movq	-1384(%rbp), %rsi
	movq	%rsi, (%rdx)
	movq	-1440(%rbp), %rsi
	movq	%rsi, %rdi
	addq	$8, %rdi
	movq	%rdi, -1416(%rbp)
	movb	8(%rsi), %r8b
	andb	$1, %r8b
	movb	%r8b, 8(%rdx)
	movb	-1496(%rbp), %r8b
	movq	-1504(%rbp), %rdx
	movb	%r8b, -2369(%rbp)       ## 1-byte Spill
	movq	%rdx, -2384(%rbp)       ## 8-byte Spill
## BB#8:
	movq	-2384(%rbp), %rax       ## 8-byte Reload
	movq	%rax, -2136(%rbp)
	movb	-2369(%rbp), %cl        ## 1-byte Reload
	movb	%cl, -2128(%rbp)
	movl	$1000, -2172(%rbp)      ## imm = 0x3E8
	leaq	-2168(%rbp), %rdx
	movq	%rdx, -1360(%rbp)
	leaq	-2172(%rbp), %rdx
	movq	%rdx, -1368(%rbp)
	leaq	L_.str2(%rip), %rdx
	movq	%rdx, -1376(%rbp)
	movq	-1360(%rbp), %rsi
	movq	-1368(%rbp), %rdi
	movq	%rsi, -1336(%rbp)
	movq	%rdi, -1344(%rbp)
	movq	%rdx, -1352(%rbp)
	movq	-1336(%rbp), %rdx
	movq	-1344(%rbp), %rsi
	movq	%rsi, -1328(%rbp)
	movl	(%rsi), %r8d
	movl	%r8d, (%rdx)
	addq	$8, %rdx
	movq	-1352(%rbp), %rsi
	movq	%rsi, -1256(%rbp)
	movq	%rdx, -1312(%rbp)
	movq	%rsi, -1320(%rbp)
	movq	-1312(%rbp), %rdx
	movq	%rdx, -1296(%rbp)
	movq	%rsi, -1304(%rbp)
	movq	-1296(%rbp), %rdx
	movq	%rdx, -1288(%rbp)
	movq	%rdx, -1280(%rbp)
	movq	%rdx, -1272(%rbp)
	movq	%rdx, -1264(%rbp)
	movq	-1304(%rbp), %rsi
Ltmp9:
	movq	%rsi, %rdi
	movq	%rdx, -2392(%rbp)       ## 8-byte Spill
	movq	%rsi, -2400(%rbp)       ## 8-byte Spill
	callq	__ZNSt3__111char_traitsIcE6lengthEPKc
Ltmp10:
	movq	%rax, -2408(%rbp)       ## 8-byte Spill
	jmp	LBB0_9
LBB0_9:                                 ## %.noexc6
Ltmp11:
	movq	-2392(%rbp), %rdi       ## 8-byte Reload
	movq	-2400(%rbp), %rsi       ## 8-byte Reload
	movq	-2408(%rbp), %rdx       ## 8-byte Reload
	callq	__ZNSt3__112basic_stringIcNS_11char_traitsIcEENS_9allocatorIcEEE6__initEPKcm
Ltmp12:
	jmp	LBB0_10
LBB0_10:                                ## %_ZNSt3__14pairIiNS_12basic_stringIcNS_11char_traitsIcEENS_9allocatorIcEEEEEC1IiRA13_KcvEEOT_OT0_.exit
	jmp	LBB0_11
LBB0_11:
	leaq	-2024(%rbp), %rax
	movq	%rax, -1224(%rbp)
	leaq	-2168(%rbp), %rax
	movq	%rax, -1232(%rbp)
	movq	-1224(%rbp), %rdi
	movq	%rax, -1200(%rbp)
Ltmp13:
	movq	%rax, %rsi
	callq	__ZNSt3__16__treeINS_12__value_typeIiNS_12basic_stringIcNS_11char_traitsIcEENS_9allocatorIcEEEEEENS_19__map_value_compareIiS8_NS_4lessIiEELb1EEENS5_IS8_EEE15__insert_uniqueINS_4pairIiS7_EEEENSG_INS_15__tree_iteratorIS8_PNS_11__tree_nodeIS8_PvEElEEbEEOT_
Ltmp14:
	movb	%dl, -2409(%rbp)        ## 1-byte Spill
	movq	%rax, -2424(%rbp)       ## 8-byte Spill
	jmp	LBB0_12
LBB0_12:                                ## %_ZNSt3__13mapIiNS_12basic_stringIcNS_11char_traitsIcEENS_9allocatorIcEEEENS_4lessIiEENS4_INS_4pairIKiS6_EEEEE6insertINS9_IiS6_EEvEENS9_INS_14__map_iteratorINS_15__tree_iteratorINS_12__value_typeIiS6_EEPNS_11__tree_nodeISJ_PvEElEEEEbEEOT_.exit
	movq	-2424(%rbp), %rax       ## 8-byte Reload
	movq	%rax, -1248(%rbp)
	movb	-2409(%rbp), %cl        ## 1-byte Reload
	movb	%cl, -1240(%rbp)
	leaq	-1216(%rbp), %rdx
	movq	%rdx, -1176(%rbp)
	leaq	-1248(%rbp), %rdx
	movq	%rdx, -1184(%rbp)
	movq	$0, -1192(%rbp)
	movq	-1176(%rbp), %rdx
	movq	-1184(%rbp), %rsi
	movq	%rdx, -1144(%rbp)
	movq	%rsi, -1152(%rbp)
	movq	$0, -1160(%rbp)
	movq	-1144(%rbp), %rdx
	movq	-1152(%rbp), %rsi
	movq	%rsi, -1136(%rbp)
	movq	(%rsi), %rsi
	movq	%rsi, -1168(%rbp)
	movq	%rsi, -1112(%rbp)
	movq	%rdx, -1120(%rbp)
	movq	-1112(%rbp), %rsi
	movq	%rsi, -1096(%rbp)
	movq	%rdx, -1104(%rbp)
	movq	-1096(%rbp), %rsi
	movq	%rsi, (%rdx)
	movq	-1152(%rbp), %rsi
	movq	%rsi, %rdi
	addq	$8, %rdi
	movq	%rdi, -1128(%rbp)
	movb	8(%rsi), %r8b
	andb	$1, %r8b
	movb	%r8b, 8(%rdx)
	movb	-1208(%rbp), %r8b
	movq	-1216(%rbp), %rdx
	movb	%r8b, -2425(%rbp)       ## 1-byte Spill
	movq	%rdx, -2440(%rbp)       ## 8-byte Spill
## BB#13:
	movq	-2440(%rbp), %rax       ## 8-byte Reload
	movq	%rax, -2192(%rbp)
	movb	-2425(%rbp), %cl        ## 1-byte Reload
	movb	%cl, -2184(%rbp)
	leaq	-2168(%rbp), %rdi
	callq	__ZNSt3__14pairIiNS_12basic_stringIcNS_11char_traitsIcEENS_9allocatorIcEEEEED1Ev
	movl	$100000, -2196(%rbp)    ## imm = 0x186A0
Ltmp16:
	leaq	-2024(%rbp), %rdi
	leaq	-2196(%rbp), %rsi
	callq	__ZNSt3__13mapIiNS_12basic_stringIcNS_11char_traitsIcEENS_9allocatorIcEEEENS_4lessIiEENS4_INS_4pairIKiS6_EEEEEixEOi
Ltmp17:
	movq	%rax, -2448(%rbp)       ## 8-byte Spill
	jmp	LBB0_14
LBB0_14:
	movq	-2448(%rbp), %rax       ## 8-byte Reload
	movq	%rax, -1080(%rbp)
	leaq	L_.str3(%rip), %rcx
	movq	%rcx, -1088(%rbp)
	movq	-1080(%rbp), %rdi
Ltmp18:
	movq	%rcx, %rsi
	callq	__ZNSt3__112basic_stringIcNS_11char_traitsIcEENS_9allocatorIcEEE6assignEPKc
Ltmp19:
	movq	%rax, -2456(%rbp)       ## 8-byte Spill
	jmp	LBB0_15
LBB0_15:                                ## %_ZNSt3__112basic_stringIcNS_11char_traitsIcEENS_9allocatorIcEEEaSEPKc.exit
	jmp	LBB0_16
LBB0_16:
Ltmp20:
	movq	__ZNSt3__14coutE@GOTPCREL(%rip), %rdi
	leaq	L_.str4(%rip), %rsi
	callq	__ZNSt3__1lsINS_11char_traitsIcEEEERNS_13basic_ostreamIcT_EES6_PKc
Ltmp21:
	movq	%rax, -2464(%rbp)       ## 8-byte Spill
	jmp	LBB0_17
LBB0_17:
	leaq	-2024(%rbp), %rax
	movq	%rax, -1072(%rbp)
	movq	%rax, -1064(%rbp)
	leaq	-2008(%rbp), %rax
	movq	%rax, -1056(%rbp)
	movq	%rax, -1048(%rbp)
	movq	-2008(%rbp), %rsi
Ltmp22:
	movq	-2464(%rbp), %rdi       ## 8-byte Reload
	callq	__ZNSt3__113basic_ostreamIcNS_11char_traitsIcEEElsEm
Ltmp23:
	movq	%rax, -2472(%rbp)       ## 8-byte Spill
	jmp	LBB0_18
LBB0_18:
Ltmp24:
	movq	__ZNSt3__14coutE@GOTPCREL(%rip), %rdi
	leaq	L_.str5(%rip), %rsi
	callq	__ZNSt3__1lsINS_11char_traitsIcEEEERNS_13basic_ostreamIcT_EES6_PKc
Ltmp25:
	movq	%rax, -2480(%rbp)       ## 8-byte Spill
	jmp	LBB0_19
LBB0_19:
	movq	-2480(%rbp), %rax       ## 8-byte Reload
	movq	%rax, -1032(%rbp)
	leaq	__ZNSt3__14endlIcNS_11char_traitsIcEEEERNS_13basic_ostreamIT_T0_EES7_(%rip), %rcx
	movq	%rcx, -1040(%rbp)
	movq	-1032(%rbp), %rdi
Ltmp26:
	callq	*%rcx
Ltmp27:
	movq	%rax, -2488(%rbp)       ## 8-byte Spill
	jmp	LBB0_20
LBB0_20:                                ## %_ZNSt3__113basic_ostreamIcNS_11char_traitsIcEEElsEPFRS3_S4_E.exit
	jmp	LBB0_21
LBB0_21:
Ltmp28:
	leaq	-2024(%rbp), %rdi
	callq	__Z15DisplayContentsINSt3__13mapIiNS0_12basic_stringIcNS0_11char_traitsIcEENS0_9allocatorIcEEEENS0_4lessIiEENS5_INS0_4pairIKiS7_EEEEEEEvRKT_
Ltmp29:
	jmp	LBB0_22
LBB0_22:
	leaq	-664(%rbp), %rax
	leaq	-2248(%rbp), %rcx
	leaq	-2224(%rbp), %rdx
	leaq	-864(%rbp), %rsi
	leaq	-848(%rbp), %rdi
	leaq	-2024(%rbp), %r8
	leaq	-992(%rbp), %r9
	leaq	-976(%rbp), %r10
	movq	%r8, -1024(%rbp)
	movq	-1024(%rbp), %r11
	movq	%r11, -1000(%rbp)
	movq	-1000(%rbp), %r11
	movq	%r11, -984(%rbp)
	movq	-984(%rbp), %r11
	movq	%r11, -968(%rbp)
	movq	-968(%rbp), %r11
	movq	(%r11), %r11
	movq	%r10, -952(%rbp)
	movq	%r11, -960(%rbp)
	movq	-952(%rbp), %r10
	movq	-960(%rbp), %r11
	movq	%r10, -936(%rbp)
	movq	%r11, -944(%rbp)
	movq	-936(%rbp), %r10
	movq	-944(%rbp), %r11
	movq	%r11, (%r10)
	movq	-976(%rbp), %r10
	movq	%r10, -1008(%rbp)
	movq	-1008(%rbp), %r10
	movq	%r10, -920(%rbp)
	movq	%r9, -928(%rbp)
	movq	-928(%rbp), %r9
	movq	-920(%rbp), %r10
	movq	%r10, -904(%rbp)
	movq	%r9, -912(%rbp)
	movq	-912(%rbp), %r9
	movq	-904(%rbp), %r10
	movq	%r10, (%r9)
	movq	-992(%rbp), %r9
	movq	%r9, -1016(%rbp)
	movq	-1016(%rbp), %r9
	movq	%r9, -2232(%rbp)
	movq	%r8, -896(%rbp)
	movq	-896(%rbp), %r8
	movq	%r8, -872(%rbp)
	movq	-872(%rbp), %r8
	movq	%r8, -856(%rbp)
	movq	-856(%rbp), %r8
	movq	%r8, -840(%rbp)
	movq	-840(%rbp), %r8
	addq	$8, %r8
	movq	%r8, -832(%rbp)
	movq	-832(%rbp), %r8
	movq	%r8, -824(%rbp)
	movq	-824(%rbp), %r8
	movq	%r8, -816(%rbp)
	movq	-816(%rbp), %r8
	movq	%r8, -808(%rbp)
	movq	-808(%rbp), %r8
	movq	%rdi, -792(%rbp)
	movq	%r8, -800(%rbp)
	movq	-792(%rbp), %rdi
	movq	-800(%rbp), %r8
	movq	%rdi, -776(%rbp)
	movq	%r8, -784(%rbp)
	movq	-776(%rbp), %rdi
	movq	-784(%rbp), %r8
	movq	%r8, (%rdi)
	movq	-848(%rbp), %rdi
	movq	%rdi, -880(%rbp)
	movq	-880(%rbp), %rdi
	movq	%rdi, -760(%rbp)
	movq	%rsi, -768(%rbp)
	movq	-768(%rbp), %rsi
	movq	-760(%rbp), %rdi
	movq	%rdi, -744(%rbp)
	movq	%rsi, -752(%rbp)
	movq	-752(%rbp), %rsi
	movq	-744(%rbp), %rdi
	movq	%rdi, (%rsi)
	movq	-864(%rbp), %rsi
	movq	%rsi, -888(%rbp)
	movq	-888(%rbp), %rsi
	movq	%rsi, -2240(%rbp)
	movq	-2232(%rbp), %rsi
	movq	-2240(%rbp), %rdi
	movq	%rsi, -712(%rbp)
	movq	%rdi, -720(%rbp)
	movq	%rdx, -728(%rbp)
	movq	%rcx, -736(%rbp)
	movq	-728(%rbp), %rcx
	movq	-712(%rbp), %rdx
	movq	-720(%rbp), %rsi
	movq	-736(%rbp), %rdi
	movq	%rdx, -632(%rbp)
	movq	%rsi, -640(%rbp)
	movq	%rcx, -648(%rbp)
	movq	%rdi, -656(%rbp)
	movq	-648(%rbp), %rcx
	movq	%rax, -624(%rbp)
	movq	-624(%rbp), %rdx
	movq	%rdx, -608(%rbp)
	movq	%rcx, %rdi
	movq	%rax, %rsi
	movq	%rcx, -2496(%rbp)       ## 8-byte Spill
	callq	__ZNSt3__16__treeINS_12__value_typeIiNS_12basic_stringIcNS_11char_traitsIcEENS_9allocatorIcEEEEEENS_19__map_value_compareIiS8_NS_4lessIiEELb1EEENS5_IS8_EEEC1ERKSC_
	leaq	-520(%rbp), %rax
	leaq	-504(%rbp), %rcx
	movq	-632(%rbp), %rdx
	movq	%rdx, -680(%rbp)
	movq	-640(%rbp), %rdx
	movq	%rdx, -688(%rbp)
	movq	-680(%rbp), %rdx
	movq	-688(%rbp), %rsi
	movq	%rdx, -560(%rbp)
	movq	%rsi, -568(%rbp)
	movq	-2496(%rbp), %rdx       ## 8-byte Reload
	movq	%rdx, -576(%rbp)
	movq	-576(%rbp), %rsi
	movq	%rsi, -552(%rbp)
	movq	-552(%rbp), %rdi
	movq	%rdi, -528(%rbp)
	movq	-528(%rbp), %rdi
	movq	%rdi, -512(%rbp)
	movq	-512(%rbp), %rdi
	movq	%rdi, -496(%rbp)
	movq	-496(%rbp), %rdi
	addq	$8, %rdi
	movq	%rdi, -488(%rbp)
	movq	-488(%rbp), %rdi
	movq	%rdi, -480(%rbp)
	movq	-480(%rbp), %rdi
	movq	%rdi, -472(%rbp)
	movq	-472(%rbp), %rdi
	movq	%rdi, -464(%rbp)
	movq	-464(%rbp), %rdi
	movq	%rcx, -448(%rbp)
	movq	%rdi, -456(%rbp)
	movq	-448(%rbp), %rcx
	movq	-456(%rbp), %rdi
	movq	%rcx, -432(%rbp)
	movq	%rdi, -440(%rbp)
	movq	-432(%rbp), %rcx
	movq	-440(%rbp), %rdi
	movq	%rdi, (%rcx)
	movq	-504(%rbp), %rcx
	movq	%rcx, -536(%rbp)
	movq	-536(%rbp), %rcx
	movq	%rcx, -416(%rbp)
	movq	%rax, -424(%rbp)
	movq	-424(%rbp), %rax
	movq	-416(%rbp), %rcx
	movq	%rcx, -400(%rbp)
	movq	%rax, -408(%rbp)
	movq	-408(%rbp), %rax
	movq	-400(%rbp), %rcx
	movq	%rcx, (%rax)
	movq	-520(%rbp), %rax
	movq	%rax, -544(%rbp)
	movq	-544(%rbp), %rax
	movq	%rax, -584(%rbp)
	movq	%rsi, -2504(%rbp)       ## 8-byte Spill
LBB0_23:                                ## =>This Inner Loop Header: Depth=1
	leaq	-568(%rbp), %rax
	leaq	-560(%rbp), %rcx
	movq	%rcx, -368(%rbp)
	movq	%rax, -376(%rbp)
	movq	-368(%rbp), %rax
	movq	-376(%rbp), %rcx
	movq	%rax, -352(%rbp)
	movq	%rcx, -360(%rbp)
	movq	-352(%rbp), %rax
	movq	-360(%rbp), %rcx
	movq	%rax, -336(%rbp)
	movq	%rcx, -344(%rbp)
	movq	-336(%rbp), %rax
	movq	(%rax), %rax
	movq	-344(%rbp), %rcx
	cmpq	(%rcx), %rax
	sete	%dl
	xorb	$1, %dl
	testb	$1, %dl
	jne	LBB0_24
	jmp	LBB0_27
LBB0_24:                                ##   in Loop: Header=BB0_23 Depth=1
	movq	-584(%rbp), %rax
	movq	%rax, -592(%rbp)
	leaq	-560(%rbp), %rax
	movq	%rax, -328(%rbp)
	movq	%rax, -320(%rbp)
	movq	-560(%rbp), %rax
	addq	$32, %rax
	movq	%rax, -312(%rbp)
	movq	%rax, -304(%rbp)
	movq	-592(%rbp), %rsi
Ltmp58:
	movq	-2504(%rbp), %rdi       ## 8-byte Reload
	movq	%rax, %rdx
	callq	__ZNSt3__16__treeINS_12__value_typeIiNS_12basic_stringIcNS_11char_traitsIcEENS_9allocatorIcEEEEEENS_19__map_value_compareIiS8_NS_4lessIiEELb1EEENS5_IS8_EEE14__insert_multiIRKNS_4pairIKiS7_EEEENS_15__tree_iteratorIS8_PNS_11__tree_nodeIS8_PvEElEENS_21__tree_const_iteratorIS8_SP_lEEOT_
Ltmp59:
	movq	%rax, -2512(%rbp)       ## 8-byte Spill
	jmp	LBB0_25
LBB0_25:                                ## %.noexc.i.i
                                        ##   in Loop: Header=BB0_23 Depth=1
	leaq	-560(%rbp), %rax
	movq	-2512(%rbp), %rcx       ## 8-byte Reload
	movq	%rcx, -600(%rbp)
	movq	%rax, -392(%rbp)
	movq	-392(%rbp), %rax
	movq	%rax, -384(%rbp)
	movq	-384(%rbp), %rax
	movq	(%rax), %rdx
	movq	%rdx, %rdi
	movq	%rax, -2520(%rbp)       ## 8-byte Spill
	callq	__ZNSt3__111__tree_nextIPNS_16__tree_node_baseIPvEEEET_S5_
	movq	-2520(%rbp), %rcx       ## 8-byte Reload
	movq	%rax, (%rcx)
	jmp	LBB0_23
LBB0_26:
Ltmp60:
	movl	%edx, %ecx
	movq	%rax, -696(%rbp)
	movl	%ecx, -700(%rbp)
	movq	-2496(%rbp), %rdi       ## 8-byte Reload
	callq	__ZNSt3__16__treeINS_12__value_typeIiNS_12basic_stringIcNS_11char_traitsIcEENS_9allocatorIcEEEEEENS_19__map_value_compareIiS8_NS_4lessIiEELb1EEENS5_IS8_EEED1Ev
	movq	-696(%rbp), %rax
	movl	-700(%rbp), %ecx
	movq	%rax, -2528(%rbp)       ## 8-byte Spill
	movl	%ecx, -2532(%rbp)       ## 4-byte Spill
	jmp	LBB0_50
LBB0_27:                                ## %_ZNSt3__18multimapIiNS_12basic_stringIcNS_11char_traitsIcEENS_9allocatorIcEEEENS_4lessIiEENS4_INS_4pairIKiS6_EEEEEC1INS_20__map_const_iteratorINS_21__tree_const_iteratorINS_12__value_typeIiS6_EEPNS_11__tree_nodeISI_PvEElEEEEEET_SP_RKS8_.exit
	jmp	LBB0_28
LBB0_28:
	movl	$1000, -2268(%rbp)      ## imm = 0x3E8
	leaq	-2268(%rbp), %rax
	movq	%rax, -288(%rbp)
	leaq	L_.str6(%rip), %rax
	movq	%rax, -296(%rbp)
	movq	-288(%rbp), %rax
	movq	%rax, -264(%rbp)
	movq	-296(%rbp), %rcx
	movq	%rcx, -192(%rbp)
	leaq	-280(%rbp), %rdx
	movq	%rdx, -240(%rbp)
	movq	%rax, -248(%rbp)
	movq	%rcx, -256(%rbp)
	movq	-240(%rbp), %rax
	movq	-248(%rbp), %rdx
	movq	%rax, -216(%rbp)
	movq	%rdx, -224(%rbp)
	movq	%rcx, -232(%rbp)
	movq	-216(%rbp), %rax
	movq	-224(%rbp), %rcx
	movq	%rcx, -208(%rbp)
	movl	(%rcx), %esi
	movl	%esi, (%rax)
	movq	-232(%rbp), %rcx
	movq	%rcx, -200(%rbp)
	movq	%rcx, 8(%rax)
	movq	-272(%rbp), %rax
	movl	-280(%rbp), %esi
	movq	%rax, -2544(%rbp)       ## 8-byte Spill
	movl	%esi, -2548(%rbp)       ## 4-byte Spill
## BB#29:
	movl	-2548(%rbp), %eax       ## 4-byte Reload
	movl	%eax, -2264(%rbp)
	movq	-2544(%rbp), %rcx       ## 8-byte Reload
	movq	%rcx, -2256(%rbp)
	leaq	-2224(%rbp), %rdx
	movq	%rdx, -168(%rbp)
	leaq	-2264(%rbp), %rdx
	movq	%rdx, -176(%rbp)
	movq	-168(%rbp), %rdi
	movq	%rdx, -152(%rbp)
Ltmp31:
	movq	%rdx, %rsi
	callq	__ZNSt3__16__treeINS_12__value_typeIiNS_12basic_stringIcNS_11char_traitsIcEENS_9allocatorIcEEEEEENS_19__map_value_compareIiS8_NS_4lessIiEELb1EEENS5_IS8_EEE14__insert_multiINS_4pairIiPKcEEEENS_15__tree_iteratorIS8_PNS_11__tree_nodeIS8_PvEElEEOT_
Ltmp32:
	movq	%rax, -2560(%rbp)       ## 8-byte Spill
	jmp	LBB0_30
LBB0_30:                                ## %_ZNSt3__18multimapIiNS_12basic_stringIcNS_11char_traitsIcEENS_9allocatorIcEEEENS_4lessIiEENS4_INS_4pairIKiS6_EEEEE6insertINS9_IiPKcEEvEENS_14__map_iteratorINS_15__tree_iteratorINS_12__value_typeIiS6_EEPNS_11__tree_nodeISL_PvEElEEEEOT_.exit
	leaq	-160(%rbp), %rax
	movq	-2560(%rbp), %rcx       ## 8-byte Reload
	movq	%rcx, -184(%rbp)
	movq	-184(%rbp), %rdx
	movq	%rdx, -136(%rbp)
	movq	%rax, -144(%rbp)
	movq	-144(%rbp), %rax
	movq	-136(%rbp), %rdx
	movq	%rdx, -120(%rbp)
	movq	%rax, -128(%rbp)
	movq	-128(%rbp), %rax
	movq	-120(%rbp), %rdx
	movq	%rdx, (%rax)
	movq	-160(%rbp), %rax
	movq	%rax, -2568(%rbp)       ## 8-byte Spill
## BB#31:
	movq	-2568(%rbp), %rax       ## 8-byte Reload
	movq	%rax, -2280(%rbp)
	movq	__ZNSt3__14coutE@GOTPCREL(%rip), %rcx
	movq	%rcx, -104(%rbp)
	leaq	__ZNSt3__14endlIcNS_11char_traitsIcEEEERNS_13basic_ostreamIT_T0_EES7_(%rip), %rcx
	movq	%rcx, -112(%rbp)
	movq	-104(%rbp), %rdi
Ltmp33:
	callq	*%rcx
Ltmp34:
	movq	%rax, -2576(%rbp)       ## 8-byte Spill
	jmp	LBB0_32
LBB0_32:                                ## %_ZNSt3__113basic_ostreamIcNS_11char_traitsIcEEElsEPFRS3_S4_E.exit20
	jmp	LBB0_33
LBB0_33:
Ltmp35:
	leaq	L_.str7(%rip), %rsi
	movq	-2576(%rbp), %rdi       ## 8-byte Reload
	callq	__ZNSt3__1lsINS_11char_traitsIcEEEERNS_13basic_ostreamIcT_EES6_PKc
Ltmp36:
	movq	%rax, -2584(%rbp)       ## 8-byte Spill
	jmp	LBB0_34
LBB0_34:
	leaq	-2224(%rbp), %rax
	movq	%rax, -96(%rbp)
	movq	%rax, -88(%rbp)
	leaq	-2208(%rbp), %rax
	movq	%rax, -80(%rbp)
	movq	%rax, -72(%rbp)
	movq	-2208(%rbp), %rsi
Ltmp37:
	movq	-2584(%rbp), %rdi       ## 8-byte Reload
	callq	__ZNSt3__113basic_ostreamIcNS_11char_traitsIcEEElsEm
Ltmp38:
	movq	%rax, -2592(%rbp)       ## 8-byte Spill
	jmp	LBB0_35
LBB0_35:
Ltmp39:
	movq	__ZNSt3__14coutE@GOTPCREL(%rip), %rdi
	leaq	L_.str5(%rip), %rsi
	callq	__ZNSt3__1lsINS_11char_traitsIcEEEERNS_13basic_ostreamIcT_EES6_PKc
Ltmp40:
	movq	%rax, -2600(%rbp)       ## 8-byte Spill
	jmp	LBB0_36
LBB0_36:
	movq	-2600(%rbp), %rax       ## 8-byte Reload
	movq	%rax, -56(%rbp)
	leaq	__ZNSt3__14endlIcNS_11char_traitsIcEEEERNS_13basic_ostreamIT_T0_EES7_(%rip), %rcx
	movq	%rcx, -64(%rbp)
	movq	-56(%rbp), %rdi
Ltmp41:
	callq	*%rcx
Ltmp42:
	movq	%rax, -2608(%rbp)       ## 8-byte Spill
	jmp	LBB0_37
LBB0_37:                                ## %_ZNSt3__113basic_ostreamIcNS_11char_traitsIcEEElsEPFRS3_S4_E.exit22
	jmp	LBB0_38
LBB0_38:
Ltmp43:
	movq	__ZNSt3__14coutE@GOTPCREL(%rip), %rdi
	leaq	L_.str8(%rip), %rsi
	callq	__ZNSt3__1lsINS_11char_traitsIcEEEERNS_13basic_ostreamIcT_EES6_PKc
Ltmp44:
	movq	%rax, -2616(%rbp)       ## 8-byte Spill
	jmp	LBB0_39
LBB0_39:
	movq	-2616(%rbp), %rax       ## 8-byte Reload
	movq	%rax, -40(%rbp)
	leaq	__ZNSt3__14endlIcNS_11char_traitsIcEEEERNS_13basic_ostreamIT_T0_EES7_(%rip), %rcx
	movq	%rcx, -48(%rbp)
	movq	-40(%rbp), %rdi
Ltmp45:
	callq	*%rcx
Ltmp46:
	movq	%rax, -2624(%rbp)       ## 8-byte Spill
	jmp	LBB0_40
LBB0_40:                                ## %_ZNSt3__113basic_ostreamIcNS_11char_traitsIcEEElsEPFRS3_S4_E.exit24
	jmp	LBB0_41
LBB0_41:
Ltmp47:
	leaq	-2224(%rbp), %rdi
	callq	__Z15DisplayContentsINSt3__18multimapIiNS0_12basic_stringIcNS0_11char_traitsIcEENS0_9allocatorIcEEEENS0_4lessIiEENS5_INS0_4pairIKiS7_EEEEEEEvRKT_
Ltmp48:
	jmp	LBB0_42
LBB0_42:
Ltmp49:
	movq	__ZNSt3__14coutE@GOTPCREL(%rip), %rdi
	leaq	L_.str9(%rip), %rsi
	callq	__ZNSt3__1lsINS_11char_traitsIcEEEERNS_13basic_ostreamIcT_EES6_PKc
Ltmp50:
	movq	%rax, -2632(%rbp)       ## 8-byte Spill
	jmp	LBB0_43
LBB0_43:
	movl	$1000, -2284(%rbp)      ## imm = 0x3E8
	leaq	-2224(%rbp), %rax
	movq	%rax, -24(%rbp)
	leaq	-2284(%rbp), %rax
	movq	%rax, -32(%rbp)
	movq	-24(%rbp), %rdi
Ltmp51:
	movq	%rax, %rsi
	callq	__ZNKSt3__16__treeINS_12__value_typeIiNS_12basic_stringIcNS_11char_traitsIcEENS_9allocatorIcEEEEEENS_19__map_value_compareIiS8_NS_4lessIiEELb1EEENS5_IS8_EEE13__count_multiIiEEmRKT_
Ltmp52:
	movq	%rax, -2640(%rbp)       ## 8-byte Spill
	jmp	LBB0_44
LBB0_44:                                ## %_ZNKSt3__18multimapIiNS_12basic_stringIcNS_11char_traitsIcEENS_9allocatorIcEEEENS_4lessIiEENS4_INS_4pairIKiS6_EEEEE5countERSA_.exit
	jmp	LBB0_45
LBB0_45:
Ltmp53:
	movq	-2632(%rbp), %rdi       ## 8-byte Reload
	movq	-2640(%rbp), %rsi       ## 8-byte Reload
	callq	__ZNSt3__113basic_ostreamIcNS_11char_traitsIcEEElsEm
Ltmp54:
	movq	%rax, -2648(%rbp)       ## 8-byte Spill
	jmp	LBB0_46
LBB0_46:
	movq	-2648(%rbp), %rax       ## 8-byte Reload
	movq	%rax, -8(%rbp)
	leaq	__ZNSt3__14endlIcNS_11char_traitsIcEEEERNS_13basic_ostreamIT_T0_EES7_(%rip), %rcx
	movq	%rcx, -16(%rbp)
	movq	-8(%rbp), %rdi
Ltmp55:
	callq	*%rcx
Ltmp56:
	movq	%rax, -2656(%rbp)       ## 8-byte Spill
	jmp	LBB0_47
LBB0_47:                                ## %_ZNSt3__113basic_ostreamIcNS_11char_traitsIcEEElsEPFRS3_S4_E.exit27
	jmp	LBB0_48
LBB0_48:
	leaq	-2224(%rbp), %rdi
	movl	$0, -1996(%rbp)
	movl	$1, -2288(%rbp)
	callq	__ZNSt3__18multimapIiNS_12basic_stringIcNS_11char_traitsIcEENS_9allocatorIcEEEENS_4lessIiEENS4_INS_4pairIKiS6_EEEEED1Ev
	leaq	-2024(%rbp), %rdi
	callq	__ZNSt3__13mapIiNS_12basic_stringIcNS_11char_traitsIcEENS_9allocatorIcEEEENS_4lessIiEENS4_INS_4pairIKiS6_EEEEED1Ev
	movl	-1996(%rbp), %eax
	addq	$2656, %rsp             ## imm = 0xA60
	popq	%rbp
	retq
LBB0_49:
Ltmp30:
	movl	%edx, %ecx
	movq	%rax, -2528(%rbp)       ## 8-byte Spill
	movl	%ecx, -2532(%rbp)       ## 4-byte Spill
	jmp	LBB0_50
LBB0_50:                                ## %.body
	movl	-2532(%rbp), %eax       ## 4-byte Reload
	movq	-2528(%rbp), %rcx       ## 8-byte Reload
	movq	%rcx, -2072(%rbp)
	movl	%eax, -2076(%rbp)
	jmp	LBB0_54
LBB0_51:
Ltmp6:
	leaq	-2056(%rbp), %rdi
	movl	%edx, %ecx
	movq	%rax, -2072(%rbp)
	movl	%ecx, -2076(%rbp)
	callq	__ZNSt3__14pairIKiNS_12basic_stringIcNS_11char_traitsIcEENS_9allocatorIcEEEEED1Ev
	jmp	LBB0_54
LBB0_52:
Ltmp15:
	leaq	-2168(%rbp), %rdi
	movl	%edx, %ecx
	movq	%rax, -2072(%rbp)
	movl	%ecx, -2076(%rbp)
	callq	__ZNSt3__14pairIiNS_12basic_stringIcNS_11char_traitsIcEENS_9allocatorIcEEEEED1Ev
	jmp	LBB0_54
LBB0_53:
Ltmp57:
	leaq	-2224(%rbp), %rdi
	movl	%edx, %ecx
	movq	%rax, -2072(%rbp)
	movl	%ecx, -2076(%rbp)
	callq	__ZNSt3__18multimapIiNS_12basic_stringIcNS_11char_traitsIcEENS_9allocatorIcEEEENS_4lessIiEENS4_INS_4pairIKiS6_EEEEED1Ev
LBB0_54:
	leaq	-2024(%rbp), %rdi
	callq	__ZNSt3__13mapIiNS_12basic_stringIcNS_11char_traitsIcEENS_9allocatorIcEEEENS_4lessIiEENS4_INS_4pairIKiS6_EEEEED1Ev
## BB#55:
	movq	-2072(%rbp), %rdi
	callq	__Unwind_Resume
Lfunc_end0:
	.cfi_endproc
	.section	__TEXT,__gcc_except_tab
	.align	2
GCC_except_table0:
Lexception0:
	.byte	255                     ## @LPStart Encoding = omit
	.byte	155                     ## @TType Encoding = indirect pcrel sdata4
	.asciz	"\352\200\200"          ## @TType base offset
	.byte	3                       ## Call site Encoding = udata4
	.byte	104                     ## Call site table length
Lset0 = Ltmp0-Lfunc_begin0              ## >> Call Site 1 <<
	.long	Lset0
Lset1 = Ltmp3-Ltmp0                     ##   Call between Ltmp0 and Ltmp3
	.long	Lset1
Lset2 = Ltmp30-Lfunc_begin0             ##     jumps to Ltmp30
	.long	Lset2
	.byte	0                       ##   On action: cleanup
Lset3 = Ltmp4-Lfunc_begin0              ## >> Call Site 2 <<
	.long	Lset3
Lset4 = Ltmp5-Ltmp4                     ##   Call between Ltmp4 and Ltmp5
	.long	Lset4
Lset5 = Ltmp6-Lfunc_begin0              ##     jumps to Ltmp6
	.long	Lset5
	.byte	0                       ##   On action: cleanup
Lset6 = Ltmp7-Lfunc_begin0              ## >> Call Site 3 <<
	.long	Lset6
Lset7 = Ltmp12-Ltmp7                    ##   Call between Ltmp7 and Ltmp12
	.long	Lset7
Lset8 = Ltmp30-Lfunc_begin0             ##     jumps to Ltmp30
	.long	Lset8
	.byte	0                       ##   On action: cleanup
Lset9 = Ltmp13-Lfunc_begin0             ## >> Call Site 4 <<
	.long	Lset9
Lset10 = Ltmp14-Ltmp13                  ##   Call between Ltmp13 and Ltmp14
	.long	Lset10
Lset11 = Ltmp15-Lfunc_begin0            ##     jumps to Ltmp15
	.long	Lset11
	.byte	0                       ##   On action: cleanup
Lset12 = Ltmp16-Lfunc_begin0            ## >> Call Site 5 <<
	.long	Lset12
Lset13 = Ltmp29-Ltmp16                  ##   Call between Ltmp16 and Ltmp29
	.long	Lset13
Lset14 = Ltmp30-Lfunc_begin0            ##     jumps to Ltmp30
	.long	Lset14
	.byte	0                       ##   On action: cleanup
Lset15 = Ltmp58-Lfunc_begin0            ## >> Call Site 6 <<
	.long	Lset15
Lset16 = Ltmp59-Ltmp58                  ##   Call between Ltmp58 and Ltmp59
	.long	Lset16
Lset17 = Ltmp60-Lfunc_begin0            ##     jumps to Ltmp60
	.long	Lset17
	.byte	0                       ##   On action: cleanup
Lset18 = Ltmp31-Lfunc_begin0            ## >> Call Site 7 <<
	.long	Lset18
Lset19 = Ltmp56-Ltmp31                  ##   Call between Ltmp31 and Ltmp56
	.long	Lset19
Lset20 = Ltmp57-Lfunc_begin0            ##     jumps to Ltmp57
	.long	Lset20
	.byte	0                       ##   On action: cleanup
Lset21 = Ltmp56-Lfunc_begin0            ## >> Call Site 8 <<
	.long	Lset21
Lset22 = Lfunc_end0-Ltmp56              ##   Call between Ltmp56 and Lfunc_end0
	.long	Lset22
	.long	0                       ##     has no landing pad
	.byte	0                       ##   On action: cleanup
	.align	2

	.section	__TEXT,__textcoal_nt,coalesced,pure_instructions
	.globl	__ZNSt3__14pairIKiNS_12basic_stringIcNS_11char_traitsIcEENS_9allocatorIcEEEEED1Ev
	.weak_def_can_be_hidden	__ZNSt3__14pairIKiNS_12basic_stringIcNS_11char_traitsIcEENS_9allocatorIcEEEEED1Ev
	.align	4, 0x90
__ZNSt3__14pairIKiNS_12basic_stringIcNS_11char_traitsIcEENS_9allocatorIcEEEEED1Ev: ## @_ZNSt3__14pairIKiNS_12basic_stringIcNS_11char_traitsIcEENS_9allocatorIcEEEEED1Ev
	.cfi_startproc
## BB#0:
	pushq	%rbp
Ltmp64:
	.cfi_def_cfa_offset 16
Ltmp65:
	.cfi_offset %rbp, -16
	movq	%rsp, %rbp
Ltmp66:
	.cfi_def_cfa_register %rbp
	subq	$16, %rsp
	movq	%rdi, -8(%rbp)
	movq	-8(%rbp), %rdi
	callq	__ZNSt3__14pairIKiNS_12basic_stringIcNS_11char_traitsIcEENS_9allocatorIcEEEEED2Ev
	addq	$16, %rsp
	popq	%rbp
	retq
	.cfi_endproc

	.globl	__ZNSt3__14pairIiNS_12basic_stringIcNS_11char_traitsIcEENS_9allocatorIcEEEEED1Ev
	.weak_def_can_be_hidden	__ZNSt3__14pairIiNS_12basic_stringIcNS_11char_traitsIcEENS_9allocatorIcEEEEED1Ev
	.align	4, 0x90
__ZNSt3__14pairIiNS_12basic_stringIcNS_11char_traitsIcEENS_9allocatorIcEEEEED1Ev: ## @_ZNSt3__14pairIiNS_12basic_stringIcNS_11char_traitsIcEENS_9allocatorIcEEEEED1Ev
	.cfi_startproc
## BB#0:
	pushq	%rbp
Ltmp67:
	.cfi_def_cfa_offset 16
Ltmp68:
	.cfi_offset %rbp, -16
	movq	%rsp, %rbp
Ltmp69:
	.cfi_def_cfa_register %rbp
	subq	$16, %rsp
	movq	%rdi, -8(%rbp)
	movq	-8(%rbp), %rdi
	callq	__ZNSt3__14pairIiNS_12basic_stringIcNS_11char_traitsIcEENS_9allocatorIcEEEEED2Ev
	addq	$16, %rsp
	popq	%rbp
	retq
	.cfi_endproc

	.globl	__ZNSt3__13mapIiNS_12basic_stringIcNS_11char_traitsIcEENS_9allocatorIcEEEENS_4lessIiEENS4_INS_4pairIKiS6_EEEEEixEOi
	.weak_def_can_be_hidden	__ZNSt3__13mapIiNS_12basic_stringIcNS_11char_traitsIcEENS_9allocatorIcEEEENS_4lessIiEENS4_INS_4pairIKiS6_EEEEEixEOi
	.align	4, 0x90
__ZNSt3__13mapIiNS_12basic_stringIcNS_11char_traitsIcEENS_9allocatorIcEEEENS_4lessIiEENS4_INS_4pairIKiS6_EEEEEixEOi: ## @_ZNSt3__13mapIiNS_12basic_stringIcNS_11char_traitsIcEENS_9allocatorIcEEEENS_4lessIiEENS4_INS_4pairIKiS6_EEEEEixEOi
Lfunc_begin3:
	.cfi_startproc
	.cfi_personality 155, ___gxx_personality_v0
	.cfi_lsda 16, Lexception3
## BB#0:
	pushq	%rbp
Ltmp73:
	.cfi_def_cfa_offset 16
Ltmp74:
	.cfi_offset %rbp, -16
	movq	%rsp, %rbp
Ltmp75:
	.cfi_def_cfa_register %rbp
	subq	$752, %rsp              ## imm = 0x2F0
	leaq	-648(%rbp), %rax
	movq	%rdi, -632(%rbp)
	movq	%rsi, -640(%rbp)
	movq	-632(%rbp), %rsi
	movq	-640(%rbp), %rdx
	movq	%rsi, %rdi
	movq	%rsi, -712(%rbp)        ## 8-byte Spill
	movq	%rax, %rsi
	callq	__ZNSt3__13mapIiNS_12basic_stringIcNS_11char_traitsIcEENS_9allocatorIcEEEENS_4lessIiEENS4_INS_4pairIKiS6_EEEEE16__find_equal_keyERPNS_16__tree_node_baseIPvEERSA_
	movq	%rax, -656(%rbp)
	movq	-656(%rbp), %rax
	movq	(%rax), %rax
	movq	%rax, -664(%rbp)
	movq	-656(%rbp), %rax
	cmpq	$0, (%rax)
	jne	LBB3_20
## BB#1:
	movq	-640(%rbp), %rax
	movq	%rax, -624(%rbp)
	leaq	-688(%rbp), %rcx
	movq	%rcx, %rdi
	movq	-712(%rbp), %rsi        ## 8-byte Reload
	movq	%rax, %rdx
	movq	%rcx, -720(%rbp)        ## 8-byte Spill
	callq	__ZNSt3__13mapIiNS_12basic_stringIcNS_11char_traitsIcEENS_9allocatorIcEEEENS_4lessIiEENS4_INS_4pairIKiS6_EEEEE25__construct_node_with_keyEOi
	movq	-648(%rbp), %rsi
	movq	-656(%rbp), %rdx
	movq	-720(%rbp), %rax        ## 8-byte Reload
	movq	%rax, -344(%rbp)
	movq	%rax, -336(%rbp)
	movq	%rax, -328(%rbp)
	movq	-688(%rbp), %rcx
Ltmp70:
	movq	-712(%rbp), %rdi        ## 8-byte Reload
	callq	__ZNSt3__16__treeINS_12__value_typeIiNS_12basic_stringIcNS_11char_traitsIcEENS_9allocatorIcEEEEEENS_19__map_value_compareIiS8_NS_4lessIiEELb1EEENS5_IS8_EEE16__insert_node_atEPNS_16__tree_node_baseIPvEERSI_SI_
Ltmp71:
	jmp	LBB3_2
LBB3_2:
	leaq	-688(%rbp), %rax
	movq	%rax, -312(%rbp)
	movq	-312(%rbp), %rcx
	movq	%rcx, -304(%rbp)
	movq	-304(%rbp), %rdx
	movq	%rdx, -296(%rbp)
	movq	-296(%rbp), %rdx
	movq	(%rdx), %rdx
	movq	%rdx, -320(%rbp)
	movq	%rcx, -288(%rbp)
	movq	-288(%rbp), %rcx
	movq	%rcx, -280(%rbp)
	movq	-280(%rbp), %rcx
	movq	$0, (%rcx)
	movq	-320(%rbp), %rcx
	movq	%rcx, -664(%rbp)
	movq	%rax, -272(%rbp)
	movq	-272(%rbp), %rax
	movq	%rax, -264(%rbp)
	movq	-264(%rbp), %rax
	movq	%rax, -240(%rbp)
	movq	$0, -248(%rbp)
	movq	-240(%rbp), %rax
	movq	%rax, -232(%rbp)
	movq	-232(%rbp), %rcx
	movq	%rcx, -224(%rbp)
	movq	-224(%rbp), %rcx
	movq	(%rcx), %rcx
	movq	%rcx, -256(%rbp)
	movq	-248(%rbp), %rcx
	movq	%rax, -32(%rbp)
	movq	-32(%rbp), %rdx
	movq	%rdx, -24(%rbp)
	movq	-24(%rbp), %rdx
	movq	%rcx, (%rdx)
	cmpq	$0, -256(%rbp)
	movq	%rax, -728(%rbp)        ## 8-byte Spill
	je	LBB3_10
## BB#3:
	movq	-728(%rbp), %rax        ## 8-byte Reload
	movq	%rax, -16(%rbp)
	movq	-16(%rbp), %rcx
	movq	%rcx, -8(%rbp)
	movq	-8(%rbp), %rcx
	addq	$8, %rcx
	movq	-256(%rbp), %rdx
	movq	%rcx, -208(%rbp)
	movq	%rdx, -216(%rbp)
	movq	-208(%rbp), %rcx
	testb	$1, 9(%rcx)
	movq	%rcx, -736(%rbp)        ## 8-byte Spill
	je	LBB3_5
## BB#4:
	movq	-736(%rbp), %rax        ## 8-byte Reload
	movq	(%rax), %rcx
	movq	-216(%rbp), %rdx
	addq	$32, %rdx
	addq	$8, %rdx
	movq	%rdx, -200(%rbp)
	movq	-200(%rbp), %rdx
	movq	%rcx, -168(%rbp)
	movq	%rdx, -176(%rbp)
	movq	-168(%rbp), %rcx
	movq	-176(%rbp), %rdx
	movq	%rcx, -152(%rbp)
	movq	%rdx, -160(%rbp)
	movq	-160(%rbp), %rdi
	callq	__ZNSt3__112basic_stringIcNS_11char_traitsIcEENS_9allocatorIcEEED1Ev
LBB3_5:
	movq	-736(%rbp), %rax        ## 8-byte Reload
	testb	$1, 8(%rax)
	je	LBB3_7
## BB#6:
	movq	-736(%rbp), %rax        ## 8-byte Reload
	movq	(%rax), %rcx
	movq	-216(%rbp), %rdx
	addq	$32, %rdx
	movq	%rdx, -144(%rbp)
	movq	-144(%rbp), %rdx
	movq	%rcx, -56(%rbp)
	movq	%rdx, -64(%rbp)
	movq	-56(%rbp), %rcx
	movq	-64(%rbp), %rdx
	movq	%rcx, -40(%rbp)
	movq	%rdx, -48(%rbp)
LBB3_7:
	cmpq	$0, -216(%rbp)
	je	LBB3_9
## BB#8:
	movq	-736(%rbp), %rax        ## 8-byte Reload
	movq	(%rax), %rcx
	movq	-216(%rbp), %rdx
	movq	%rcx, -120(%rbp)
	movq	%rdx, -128(%rbp)
	movq	$1, -136(%rbp)
	movq	-120(%rbp), %rcx
	movq	-128(%rbp), %rdx
	movq	-136(%rbp), %rsi
	movq	%rcx, -96(%rbp)
	movq	%rdx, -104(%rbp)
	movq	%rsi, -112(%rbp)
	movq	-104(%rbp), %rcx
	movq	%rcx, -88(%rbp)
	movq	-88(%rbp), %rdi
	callq	__ZdlPv
LBB3_9:                                 ## %_ZNSt3__121__map_node_destructorINS_9allocatorINS_11__tree_nodeINS_12__value_typeIiNS_12basic_stringIcNS_11char_traitsIcEENS1_IcEEEEEEPvEEEEEclEPSB_.exit.i.i.i2
	jmp	LBB3_10
LBB3_10:                                ## %_ZNSt3__110unique_ptrINS_11__tree_nodeINS_12__value_typeIiNS_12basic_stringIcNS_11char_traitsIcEENS_9allocatorIcEEEEEEPvEENS_21__map_node_destructorINS6_ISB_EEEEED1Ev.exit3
	jmp	LBB3_20
LBB3_11:
Ltmp72:
	leaq	-688(%rbp), %rcx
	movl	%edx, %esi
	movq	%rax, -696(%rbp)
	movl	%esi, -700(%rbp)
	movq	%rcx, -616(%rbp)
	movq	-616(%rbp), %rax
	movq	%rax, -608(%rbp)
	movq	-608(%rbp), %rax
	movq	%rax, -584(%rbp)
	movq	$0, -592(%rbp)
	movq	-584(%rbp), %rax
	movq	%rax, -576(%rbp)
	movq	-576(%rbp), %rcx
	movq	%rcx, -568(%rbp)
	movq	-568(%rbp), %rcx
	movq	(%rcx), %rcx
	movq	%rcx, -600(%rbp)
	movq	-592(%rbp), %rcx
	movq	%rax, -376(%rbp)
	movq	-376(%rbp), %rdx
	movq	%rdx, -368(%rbp)
	movq	-368(%rbp), %rdx
	movq	%rcx, (%rdx)
	cmpq	$0, -600(%rbp)
	movq	%rax, -744(%rbp)        ## 8-byte Spill
	je	LBB3_19
## BB#12:
	movq	-744(%rbp), %rax        ## 8-byte Reload
	movq	%rax, -360(%rbp)
	movq	-360(%rbp), %rcx
	movq	%rcx, -352(%rbp)
	movq	-352(%rbp), %rcx
	addq	$8, %rcx
	movq	-600(%rbp), %rdx
	movq	%rcx, -552(%rbp)
	movq	%rdx, -560(%rbp)
	movq	-552(%rbp), %rcx
	testb	$1, 9(%rcx)
	movq	%rcx, -752(%rbp)        ## 8-byte Spill
	je	LBB3_14
## BB#13:
	movq	-752(%rbp), %rax        ## 8-byte Reload
	movq	(%rax), %rcx
	movq	-560(%rbp), %rdx
	addq	$32, %rdx
	addq	$8, %rdx
	movq	%rdx, -544(%rbp)
	movq	-544(%rbp), %rdx
	movq	%rcx, -512(%rbp)
	movq	%rdx, -520(%rbp)
	movq	-512(%rbp), %rcx
	movq	-520(%rbp), %rdx
	movq	%rcx, -496(%rbp)
	movq	%rdx, -504(%rbp)
	movq	-504(%rbp), %rdi
	callq	__ZNSt3__112basic_stringIcNS_11char_traitsIcEENS_9allocatorIcEEED1Ev
LBB3_14:
	movq	-752(%rbp), %rax        ## 8-byte Reload
	testb	$1, 8(%rax)
	je	LBB3_16
## BB#15:
	movq	-752(%rbp), %rax        ## 8-byte Reload
	movq	(%rax), %rcx
	movq	-560(%rbp), %rdx
	addq	$32, %rdx
	movq	%rdx, -488(%rbp)
	movq	-488(%rbp), %rdx
	movq	%rcx, -400(%rbp)
	movq	%rdx, -408(%rbp)
	movq	-400(%rbp), %rcx
	movq	-408(%rbp), %rdx
	movq	%rcx, -384(%rbp)
	movq	%rdx, -392(%rbp)
LBB3_16:
	cmpq	$0, -560(%rbp)
	je	LBB3_18
## BB#17:
	movq	-752(%rbp), %rax        ## 8-byte Reload
	movq	(%rax), %rcx
	movq	-560(%rbp), %rdx
	movq	%rcx, -464(%rbp)
	movq	%rdx, -472(%rbp)
	movq	$1, -480(%rbp)
	movq	-464(%rbp), %rcx
	movq	-472(%rbp), %rdx
	movq	-480(%rbp), %rsi
	movq	%rcx, -440(%rbp)
	movq	%rdx, -448(%rbp)
	movq	%rsi, -456(%rbp)
	movq	-448(%rbp), %rcx
	movq	%rcx, -432(%rbp)
	movq	-432(%rbp), %rdi
	callq	__ZdlPv
LBB3_18:                                ## %_ZNSt3__121__map_node_destructorINS_9allocatorINS_11__tree_nodeINS_12__value_typeIiNS_12basic_stringIcNS_11char_traitsIcEENS1_IcEEEEEEPvEEEEEclEPSB_.exit.i.i.i
	jmp	LBB3_19
LBB3_19:                                ## %_ZNSt3__110unique_ptrINS_11__tree_nodeINS_12__value_typeIiNS_12basic_stringIcNS_11char_traitsIcEENS_9allocatorIcEEEEEEPvEENS_21__map_node_destructorINS6_ISB_EEEEED1Ev.exit
	jmp	LBB3_21
LBB3_20:
	movq	-664(%rbp), %rax
	addq	$32, %rax
	addq	$8, %rax
	addq	$752, %rsp              ## imm = 0x2F0
	popq	%rbp
	retq
LBB3_21:
	movq	-696(%rbp), %rdi
	callq	__Unwind_Resume
Lfunc_end3:
	.cfi_endproc
	.section	__TEXT,__gcc_except_tab
	.align	2
GCC_except_table3:
Lexception3:
	.byte	255                     ## @LPStart Encoding = omit
	.byte	155                     ## @TType Encoding = indirect pcrel sdata4
	.byte	41                      ## @TType base offset
	.byte	3                       ## Call site Encoding = udata4
	.byte	39                      ## Call site table length
Lset23 = Lfunc_begin3-Lfunc_begin3      ## >> Call Site 1 <<
	.long	Lset23
Lset24 = Ltmp70-Lfunc_begin3            ##   Call between Lfunc_begin3 and Ltmp70
	.long	Lset24
	.long	0                       ##     has no landing pad
	.byte	0                       ##   On action: cleanup
Lset25 = Ltmp70-Lfunc_begin3            ## >> Call Site 2 <<
	.long	Lset25
Lset26 = Ltmp71-Ltmp70                  ##   Call between Ltmp70 and Ltmp71
	.long	Lset26
Lset27 = Ltmp72-Lfunc_begin3            ##     jumps to Ltmp72
	.long	Lset27
	.byte	0                       ##   On action: cleanup
Lset28 = Ltmp71-Lfunc_begin3            ## >> Call Site 3 <<
	.long	Lset28
Lset29 = Lfunc_end3-Ltmp71              ##   Call between Ltmp71 and Lfunc_end3
	.long	Lset29
	.long	0                       ##     has no landing pad
	.byte	0                       ##   On action: cleanup
	.align	2

	.section	__TEXT,__textcoal_nt,coalesced,pure_instructions
	.globl	__ZNSt3__1lsINS_11char_traitsIcEEEERNS_13basic_ostreamIcT_EES6_PKc
	.weak_def_can_be_hidden	__ZNSt3__1lsINS_11char_traitsIcEEEERNS_13basic_ostreamIcT_EES6_PKc
	.align	4, 0x90
__ZNSt3__1lsINS_11char_traitsIcEEEERNS_13basic_ostreamIcT_EES6_PKc: ## @_ZNSt3__1lsINS_11char_traitsIcEEEERNS_13basic_ostreamIcT_EES6_PKc
	.cfi_startproc
## BB#0:
	pushq	%rbp
Ltmp76:
	.cfi_def_cfa_offset 16
Ltmp77:
	.cfi_offset %rbp, -16
	movq	%rsp, %rbp
Ltmp78:
	.cfi_def_cfa_register %rbp
	subq	$32, %rsp
	movq	%rdi, -8(%rbp)
	movq	%rsi, -16(%rbp)
	movq	-8(%rbp), %rdi
	movq	-16(%rbp), %rsi
	movq	-16(%rbp), %rax
	movq	%rdi, -24(%rbp)         ## 8-byte Spill
	movq	%rax, %rdi
	movq	%rsi, -32(%rbp)         ## 8-byte Spill
	callq	__ZNSt3__111char_traitsIcE6lengthEPKc
	movq	-24(%rbp), %rdi         ## 8-byte Reload
	movq	-32(%rbp), %rsi         ## 8-byte Reload
	movq	%rax, %rdx
	callq	__ZNSt3__124__put_character_sequenceIcNS_11char_traitsIcEEEERNS_13basic_ostreamIT_T0_EES7_PKS4_m
	addq	$32, %rsp
	popq	%rbp
	retq
	.cfi_endproc

	.private_extern	__ZNSt3__14endlIcNS_11char_traitsIcEEEERNS_13basic_ostreamIT_T0_EES7_
	.globl	__ZNSt3__14endlIcNS_11char_traitsIcEEEERNS_13basic_ostreamIT_T0_EES7_
	.weak_definition	__ZNSt3__14endlIcNS_11char_traitsIcEEEERNS_13basic_ostreamIT_T0_EES7_
	.align	4, 0x90
__ZNSt3__14endlIcNS_11char_traitsIcEEEERNS_13basic_ostreamIT_T0_EES7_: ## @_ZNSt3__14endlIcNS_11char_traitsIcEEEERNS_13basic_ostreamIT_T0_EES7_
Lfunc_begin5:
	.cfi_startproc
	.cfi_personality 155, ___gxx_personality_v0
	.cfi_lsda 16, Lexception5
## BB#0:
	pushq	%rbp
Ltmp84:
	.cfi_def_cfa_offset 16
Ltmp85:
	.cfi_offset %rbp, -16
	movq	%rsp, %rbp
Ltmp86:
	.cfi_def_cfa_register %rbp
	subq	$144, %rsp
	movq	%rdi, -72(%rbp)
	movq	%rdi, %rax
	movq	(%rdi), %rcx
	movq	-24(%rcx), %rcx
	addq	%rcx, %rdi
	movq	%rdi, -32(%rbp)
	movb	$10, -33(%rbp)
	movq	-32(%rbp), %rsi
	leaq	-48(%rbp), %rcx
	movq	%rcx, %rdi
	movq	%rax, -80(%rbp)         ## 8-byte Spill
	movq	%rcx, -88(%rbp)         ## 8-byte Spill
	callq	__ZNKSt3__18ios_base6getlocEv
	movq	-88(%rbp), %rax         ## 8-byte Reload
	movq	%rax, -24(%rbp)
Ltmp79:
	movq	__ZNSt3__15ctypeIcE2idE@GOTPCREL(%rip), %rsi
	movq	%rax, %rdi
	callq	__ZNKSt3__16locale9use_facetERNS0_2idE
Ltmp80:
	movq	%rax, -96(%rbp)         ## 8-byte Spill
	jmp	LBB5_1
LBB5_1:                                 ## %_ZNSt3__19use_facetINS_5ctypeIcEEEERKT_RKNS_6localeE.exit.i
	movb	-33(%rbp), %al
	movq	-96(%rbp), %rcx         ## 8-byte Reload
	movq	%rcx, -8(%rbp)
	movb	%al, -9(%rbp)
	movq	-8(%rbp), %rdx
	movq	(%rdx), %rsi
	movq	56(%rsi), %rsi
	movsbl	-9(%rbp), %edi
Ltmp81:
	movl	%edi, -100(%rbp)        ## 4-byte Spill
	movq	%rdx, %rdi
	movl	-100(%rbp), %r8d        ## 4-byte Reload
	movq	%rsi, -112(%rbp)        ## 8-byte Spill
	movl	%r8d, %esi
	movq	-112(%rbp), %rdx        ## 8-byte Reload
	callq	*%rdx
Ltmp82:
	movb	%al, -113(%rbp)         ## 1-byte Spill
	jmp	LBB5_3
LBB5_2:
Ltmp83:
	leaq	-48(%rbp), %rdi
	movl	%edx, %ecx
	movq	%rax, -56(%rbp)
	movl	%ecx, -60(%rbp)
	callq	__ZNSt3__16localeD1Ev
	movq	-56(%rbp), %rdi
	callq	__Unwind_Resume
LBB5_3:                                 ## %_ZNKSt3__19basic_iosIcNS_11char_traitsIcEEE5widenEc.exit
	leaq	-48(%rbp), %rdi
	callq	__ZNSt3__16localeD1Ev
	movq	-80(%rbp), %rdi         ## 8-byte Reload
	movb	-113(%rbp), %al         ## 1-byte Reload
	movsbl	%al, %esi
	callq	__ZNSt3__113basic_ostreamIcNS_11char_traitsIcEEE3putEc
	movq	-72(%rbp), %rdi
	movq	%rax, -128(%rbp)        ## 8-byte Spill
	callq	__ZNSt3__113basic_ostreamIcNS_11char_traitsIcEEE5flushEv
	movq	-72(%rbp), %rdi
	movq	%rax, -136(%rbp)        ## 8-byte Spill
	movq	%rdi, %rax
	addq	$144, %rsp
	popq	%rbp
	retq
Lfunc_end5:
	.cfi_endproc
	.section	__TEXT,__gcc_except_tab
	.align	2
GCC_except_table5:
Lexception5:
	.byte	255                     ## @LPStart Encoding = omit
	.byte	155                     ## @TType Encoding = indirect pcrel sdata4
	.byte	41                      ## @TType base offset
	.byte	3                       ## Call site Encoding = udata4
	.byte	39                      ## Call site table length
Lset30 = Lfunc_begin5-Lfunc_begin5      ## >> Call Site 1 <<
	.long	Lset30
Lset31 = Ltmp79-Lfunc_begin5            ##   Call between Lfunc_begin5 and Ltmp79
	.long	Lset31
	.long	0                       ##     has no landing pad
	.byte	0                       ##   On action: cleanup
Lset32 = Ltmp79-Lfunc_begin5            ## >> Call Site 2 <<
	.long	Lset32
Lset33 = Ltmp82-Ltmp79                  ##   Call between Ltmp79 and Ltmp82
	.long	Lset33
Lset34 = Ltmp83-Lfunc_begin5            ##     jumps to Ltmp83
	.long	Lset34
	.byte	0                       ##   On action: cleanup
Lset35 = Ltmp82-Lfunc_begin5            ## >> Call Site 3 <<
	.long	Lset35
Lset36 = Lfunc_end5-Ltmp82              ##   Call between Ltmp82 and Lfunc_end5
	.long	Lset36
	.long	0                       ##     has no landing pad
	.byte	0                       ##   On action: cleanup
	.align	2

	.section	__TEXT,__textcoal_nt,coalesced,pure_instructions
	.globl	__Z15DisplayContentsINSt3__13mapIiNS0_12basic_stringIcNS0_11char_traitsIcEENS0_9allocatorIcEEEENS0_4lessIiEENS5_INS0_4pairIKiS7_EEEEEEEvRKT_
	.weak_def_can_be_hidden	__Z15DisplayContentsINSt3__13mapIiNS0_12basic_stringIcNS0_11char_traitsIcEENS0_9allocatorIcEEEENS0_4lessIiEENS5_INS0_4pairIKiS7_EEEEEEEvRKT_
	.align	4, 0x90
__Z15DisplayContentsINSt3__13mapIiNS0_12basic_stringIcNS0_11char_traitsIcEENS0_9allocatorIcEEEENS0_4lessIiEENS5_INS0_4pairIKiS7_EEEEEEEvRKT_: ## @_Z15DisplayContentsINSt3__13mapIiNS0_12basic_stringIcNS0_11char_traitsIcEENS0_9allocatorIcEEEENS0_4lessIiEENS5_INS0_4pairIKiS7_EEEEEEEvRKT_
	.cfi_startproc
## BB#0:
	pushq	%rbp
Ltmp87:
	.cfi_def_cfa_offset 16
Ltmp88:
	.cfi_offset %rbp, -16
	movq	%rsp, %rbp
Ltmp89:
	.cfi_def_cfa_register %rbp
	subq	$528, %rsp              ## imm = 0x210
	leaq	-448(%rbp), %rax
	leaq	-432(%rbp), %rcx
	movq	%rdi, -488(%rbp)
	movq	-488(%rbp), %rdi
	movq	%rdi, -480(%rbp)
	movq	-480(%rbp), %rdi
	movq	%rdi, -456(%rbp)
	movq	-456(%rbp), %rdi
	movq	%rdi, -440(%rbp)
	movq	-440(%rbp), %rdi
	movq	%rdi, -424(%rbp)
	movq	-424(%rbp), %rdi
	movq	(%rdi), %rdi
	movq	%rcx, -408(%rbp)
	movq	%rdi, -416(%rbp)
	movq	-408(%rbp), %rcx
	movq	-416(%rbp), %rdi
	movq	%rcx, -392(%rbp)
	movq	%rdi, -400(%rbp)
	movq	-392(%rbp), %rcx
	movq	-400(%rbp), %rdi
	movq	%rdi, (%rcx)
	movq	-432(%rbp), %rcx
	movq	%rcx, -464(%rbp)
	movq	-464(%rbp), %rcx
	movq	%rcx, -376(%rbp)
	movq	%rax, -384(%rbp)
	movq	-384(%rbp), %rax
	movq	-376(%rbp), %rcx
	movq	%rcx, -360(%rbp)
	movq	%rax, -368(%rbp)
	movq	-368(%rbp), %rax
	movq	-360(%rbp), %rcx
	movq	%rcx, (%rax)
	movq	-448(%rbp), %rax
	movq	%rax, -472(%rbp)
	movq	-472(%rbp), %rax
	movq	%rax, -496(%rbp)
LBB6_1:                                 ## =>This Inner Loop Header: Depth=1
	leaq	-504(%rbp), %rax
	leaq	-496(%rbp), %rcx
	leaq	-304(%rbp), %rdx
	leaq	-288(%rbp), %rsi
	movq	-488(%rbp), %rdi
	movq	%rdi, -336(%rbp)
	movq	-336(%rbp), %rdi
	movq	%rdi, -312(%rbp)
	movq	-312(%rbp), %rdi
	movq	%rdi, -296(%rbp)
	movq	-296(%rbp), %rdi
	movq	%rdi, -280(%rbp)
	movq	-280(%rbp), %rdi
	addq	$8, %rdi
	movq	%rdi, -272(%rbp)
	movq	-272(%rbp), %rdi
	movq	%rdi, -264(%rbp)
	movq	-264(%rbp), %rdi
	movq	%rdi, -256(%rbp)
	movq	-256(%rbp), %rdi
	movq	%rdi, -248(%rbp)
	movq	-248(%rbp), %rdi
	movq	%rsi, -232(%rbp)
	movq	%rdi, -240(%rbp)
	movq	-232(%rbp), %rsi
	movq	-240(%rbp), %rdi
	movq	%rsi, -216(%rbp)
	movq	%rdi, -224(%rbp)
	movq	-216(%rbp), %rsi
	movq	-224(%rbp), %rdi
	movq	%rdi, (%rsi)
	movq	-288(%rbp), %rsi
	movq	%rsi, -320(%rbp)
	movq	-320(%rbp), %rsi
	movq	%rsi, -200(%rbp)
	movq	%rdx, -208(%rbp)
	movq	-208(%rbp), %rdx
	movq	-200(%rbp), %rsi
	movq	%rsi, -184(%rbp)
	movq	%rdx, -192(%rbp)
	movq	-192(%rbp), %rdx
	movq	-184(%rbp), %rsi
	movq	%rsi, (%rdx)
	movq	-304(%rbp), %rdx
	movq	%rdx, -328(%rbp)
	movq	-328(%rbp), %rdx
	movq	%rdx, -504(%rbp)
	movq	%rcx, -152(%rbp)
	movq	%rax, -160(%rbp)
	movq	-152(%rbp), %rax
	movq	-160(%rbp), %rcx
	movq	%rax, -136(%rbp)
	movq	%rcx, -144(%rbp)
	movq	-136(%rbp), %rax
	movq	-144(%rbp), %rcx
	movq	%rax, -120(%rbp)
	movq	%rcx, -128(%rbp)
	movq	-120(%rbp), %rax
	movq	(%rax), %rax
	movq	-128(%rbp), %rcx
	cmpq	(%rcx), %rax
	sete	%r8b
	xorb	$1, %r8b
	testb	$1, %r8b
	jne	LBB6_2
	jmp	LBB6_4
LBB6_2:                                 ##   in Loop: Header=BB6_1 Depth=1
	movq	__ZNSt3__14coutE@GOTPCREL(%rip), %rdi
	leaq	-496(%rbp), %rax
	movq	%rax, -96(%rbp)
	movq	-96(%rbp), %rax
	movq	%rax, -88(%rbp)
	movq	-88(%rbp), %rax
	movq	(%rax), %rax
	addq	$32, %rax
	movq	%rax, -80(%rbp)
	movq	-80(%rbp), %rax
	movq	%rax, -72(%rbp)
	movq	-72(%rbp), %rax
	movq	%rax, -64(%rbp)
	movq	-64(%rbp), %rax
	movq	%rax, -56(%rbp)
	movq	-56(%rbp), %rax
	movl	(%rax), %esi
	callq	__ZNSt3__113basic_ostreamIcNS_11char_traitsIcEEElsEi
	leaq	L_.str10(%rip), %rsi
	movq	%rax, %rdi
	callq	__ZNSt3__1lsINS_11char_traitsIcEEEERNS_13basic_ostreamIcT_EES6_PKc
	leaq	-496(%rbp), %rsi
	movq	%rsi, -48(%rbp)
	movq	-48(%rbp), %rsi
	movq	%rsi, -40(%rbp)
	movq	-40(%rbp), %rsi
	movq	(%rsi), %rsi
	addq	$32, %rsi
	movq	%rsi, -32(%rbp)
	movq	-32(%rbp), %rsi
	movq	%rsi, -24(%rbp)
	movq	-24(%rbp), %rsi
	movq	%rsi, -16(%rbp)
	movq	-16(%rbp), %rsi
	movq	%rsi, -8(%rbp)
	movq	-8(%rbp), %rsi
	addq	$8, %rsi
	movq	%rax, %rdi
	callq	__ZNSt3__1lsIcNS_11char_traitsIcEENS_9allocatorIcEEEERNS_13basic_ostreamIT_T0_EES9_RKNS_12basic_stringIS6_S7_T1_EE
	leaq	__ZNSt3__14endlIcNS_11char_traitsIcEEEERNS_13basic_ostreamIT_T0_EES7_(%rip), %rsi
	movq	%rax, -104(%rbp)
	movq	%rsi, -112(%rbp)
	movq	-104(%rbp), %rdi
	callq	*-112(%rbp)
	movq	%rax, -512(%rbp)        ## 8-byte Spill
## BB#3:                                ##   in Loop: Header=BB6_1 Depth=1
	leaq	-496(%rbp), %rax
	movq	%rax, -176(%rbp)
	movq	-176(%rbp), %rax
	movq	%rax, -168(%rbp)
	movq	-168(%rbp), %rax
	movq	(%rax), %rcx
	movq	%rcx, %rdi
	movq	%rax, -520(%rbp)        ## 8-byte Spill
	callq	__ZNSt3__111__tree_nextIPNS_16__tree_node_baseIPvEEEET_S5_
	movq	-520(%rbp), %rcx        ## 8-byte Reload
	movq	%rax, (%rcx)
	jmp	LBB6_1
LBB6_4:
	leaq	__ZNSt3__14endlIcNS_11char_traitsIcEEEERNS_13basic_ostreamIT_T0_EES7_(%rip), %rax
	movq	__ZNSt3__14coutE@GOTPCREL(%rip), %rcx
	movq	%rcx, -344(%rbp)
	movq	%rax, -352(%rbp)
	movq	-344(%rbp), %rdi
	callq	*-352(%rbp)
	movq	%rax, -528(%rbp)        ## 8-byte Spill
	addq	$528, %rsp              ## imm = 0x210
	popq	%rbp
	retq
	.cfi_endproc

	.globl	__Z15DisplayContentsINSt3__18multimapIiNS0_12basic_stringIcNS0_11char_traitsIcEENS0_9allocatorIcEEEENS0_4lessIiEENS5_INS0_4pairIKiS7_EEEEEEEvRKT_
	.weak_def_can_be_hidden	__Z15DisplayContentsINSt3__18multimapIiNS0_12basic_stringIcNS0_11char_traitsIcEENS0_9allocatorIcEEEENS0_4lessIiEENS5_INS0_4pairIKiS7_EEEEEEEvRKT_
	.align	4, 0x90
__Z15DisplayContentsINSt3__18multimapIiNS0_12basic_stringIcNS0_11char_traitsIcEENS0_9allocatorIcEEEENS0_4lessIiEENS5_INS0_4pairIKiS7_EEEEEEEvRKT_: ## @_Z15DisplayContentsINSt3__18multimapIiNS0_12basic_stringIcNS0_11char_traitsIcEENS0_9allocatorIcEEEENS0_4lessIiEENS5_INS0_4pairIKiS7_EEEEEEEvRKT_
	.cfi_startproc
## BB#0:
	pushq	%rbp
Ltmp90:
	.cfi_def_cfa_offset 16
Ltmp91:
	.cfi_offset %rbp, -16
	movq	%rsp, %rbp
Ltmp92:
	.cfi_def_cfa_register %rbp
	subq	$528, %rsp              ## imm = 0x210
	leaq	-448(%rbp), %rax
	leaq	-432(%rbp), %rcx
	movq	%rdi, -488(%rbp)
	movq	-488(%rbp), %rdi
	movq	%rdi, -480(%rbp)
	movq	-480(%rbp), %rdi
	movq	%rdi, -456(%rbp)
	movq	-456(%rbp), %rdi
	movq	%rdi, -440(%rbp)
	movq	-440(%rbp), %rdi
	movq	%rdi, -424(%rbp)
	movq	-424(%rbp), %rdi
	movq	(%rdi), %rdi
	movq	%rcx, -408(%rbp)
	movq	%rdi, -416(%rbp)
	movq	-408(%rbp), %rcx
	movq	-416(%rbp), %rdi
	movq	%rcx, -392(%rbp)
	movq	%rdi, -400(%rbp)
	movq	-392(%rbp), %rcx
	movq	-400(%rbp), %rdi
	movq	%rdi, (%rcx)
	movq	-432(%rbp), %rcx
	movq	%rcx, -464(%rbp)
	movq	-464(%rbp), %rcx
	movq	%rcx, -376(%rbp)
	movq	%rax, -384(%rbp)
	movq	-384(%rbp), %rax
	movq	-376(%rbp), %rcx
	movq	%rcx, -360(%rbp)
	movq	%rax, -368(%rbp)
	movq	-368(%rbp), %rax
	movq	-360(%rbp), %rcx
	movq	%rcx, (%rax)
	movq	-448(%rbp), %rax
	movq	%rax, -472(%rbp)
	movq	-472(%rbp), %rax
	movq	%rax, -496(%rbp)
LBB7_1:                                 ## =>This Inner Loop Header: Depth=1
	leaq	-504(%rbp), %rax
	leaq	-496(%rbp), %rcx
	leaq	-304(%rbp), %rdx
	leaq	-288(%rbp), %rsi
	movq	-488(%rbp), %rdi
	movq	%rdi, -336(%rbp)
	movq	-336(%rbp), %rdi
	movq	%rdi, -312(%rbp)
	movq	-312(%rbp), %rdi
	movq	%rdi, -296(%rbp)
	movq	-296(%rbp), %rdi
	movq	%rdi, -280(%rbp)
	movq	-280(%rbp), %rdi
	addq	$8, %rdi
	movq	%rdi, -272(%rbp)
	movq	-272(%rbp), %rdi
	movq	%rdi, -264(%rbp)
	movq	-264(%rbp), %rdi
	movq	%rdi, -256(%rbp)
	movq	-256(%rbp), %rdi
	movq	%rdi, -248(%rbp)
	movq	-248(%rbp), %rdi
	movq	%rsi, -232(%rbp)
	movq	%rdi, -240(%rbp)
	movq	-232(%rbp), %rsi
	movq	-240(%rbp), %rdi
	movq	%rsi, -216(%rbp)
	movq	%rdi, -224(%rbp)
	movq	-216(%rbp), %rsi
	movq	-224(%rbp), %rdi
	movq	%rdi, (%rsi)
	movq	-288(%rbp), %rsi
	movq	%rsi, -320(%rbp)
	movq	-320(%rbp), %rsi
	movq	%rsi, -200(%rbp)
	movq	%rdx, -208(%rbp)
	movq	-208(%rbp), %rdx
	movq	-200(%rbp), %rsi
	movq	%rsi, -184(%rbp)
	movq	%rdx, -192(%rbp)
	movq	-192(%rbp), %rdx
	movq	-184(%rbp), %rsi
	movq	%rsi, (%rdx)
	movq	-304(%rbp), %rdx
	movq	%rdx, -328(%rbp)
	movq	-328(%rbp), %rdx
	movq	%rdx, -504(%rbp)
	movq	%rcx, -152(%rbp)
	movq	%rax, -160(%rbp)
	movq	-152(%rbp), %rax
	movq	-160(%rbp), %rcx
	movq	%rax, -136(%rbp)
	movq	%rcx, -144(%rbp)
	movq	-136(%rbp), %rax
	movq	-144(%rbp), %rcx
	movq	%rax, -120(%rbp)
	movq	%rcx, -128(%rbp)
	movq	-120(%rbp), %rax
	movq	(%rax), %rax
	movq	-128(%rbp), %rcx
	cmpq	(%rcx), %rax
	sete	%r8b
	xorb	$1, %r8b
	testb	$1, %r8b
	jne	LBB7_2
	jmp	LBB7_4
LBB7_2:                                 ##   in Loop: Header=BB7_1 Depth=1
	movq	__ZNSt3__14coutE@GOTPCREL(%rip), %rdi
	leaq	-496(%rbp), %rax
	movq	%rax, -96(%rbp)
	movq	-96(%rbp), %rax
	movq	%rax, -88(%rbp)
	movq	-88(%rbp), %rax
	movq	(%rax), %rax
	addq	$32, %rax
	movq	%rax, -80(%rbp)
	movq	-80(%rbp), %rax
	movq	%rax, -72(%rbp)
	movq	-72(%rbp), %rax
	movq	%rax, -64(%rbp)
	movq	-64(%rbp), %rax
	movq	%rax, -56(%rbp)
	movq	-56(%rbp), %rax
	movl	(%rax), %esi
	callq	__ZNSt3__113basic_ostreamIcNS_11char_traitsIcEEElsEi
	leaq	L_.str10(%rip), %rsi
	movq	%rax, %rdi
	callq	__ZNSt3__1lsINS_11char_traitsIcEEEERNS_13basic_ostreamIcT_EES6_PKc
	leaq	-496(%rbp), %rsi
	movq	%rsi, -48(%rbp)
	movq	-48(%rbp), %rsi
	movq	%rsi, -40(%rbp)
	movq	-40(%rbp), %rsi
	movq	(%rsi), %rsi
	addq	$32, %rsi
	movq	%rsi, -32(%rbp)
	movq	-32(%rbp), %rsi
	movq	%rsi, -24(%rbp)
	movq	-24(%rbp), %rsi
	movq	%rsi, -16(%rbp)
	movq	-16(%rbp), %rsi
	movq	%rsi, -8(%rbp)
	movq	-8(%rbp), %rsi
	addq	$8, %rsi
	movq	%rax, %rdi
	callq	__ZNSt3__1lsIcNS_11char_traitsIcEENS_9allocatorIcEEEERNS_13basic_ostreamIT_T0_EES9_RKNS_12basic_stringIS6_S7_T1_EE
	leaq	__ZNSt3__14endlIcNS_11char_traitsIcEEEERNS_13basic_ostreamIT_T0_EES7_(%rip), %rsi
	movq	%rax, -104(%rbp)
	movq	%rsi, -112(%rbp)
	movq	-104(%rbp), %rdi
	callq	*-112(%rbp)
	movq	%rax, -512(%rbp)        ## 8-byte Spill
## BB#3:                                ##   in Loop: Header=BB7_1 Depth=1
	leaq	-496(%rbp), %rax
	movq	%rax, -176(%rbp)
	movq	-176(%rbp), %rax
	movq	%rax, -168(%rbp)
	movq	-168(%rbp), %rax
	movq	(%rax), %rcx
	movq	%rcx, %rdi
	movq	%rax, -520(%rbp)        ## 8-byte Spill
	callq	__ZNSt3__111__tree_nextIPNS_16__tree_node_baseIPvEEEET_S5_
	movq	-520(%rbp), %rcx        ## 8-byte Reload
	movq	%rax, (%rcx)
	jmp	LBB7_1
LBB7_4:
	leaq	__ZNSt3__14endlIcNS_11char_traitsIcEEEERNS_13basic_ostreamIT_T0_EES7_(%rip), %rax
	movq	__ZNSt3__14coutE@GOTPCREL(%rip), %rcx
	movq	%rcx, -344(%rbp)
	movq	%rax, -352(%rbp)
	movq	-344(%rbp), %rdi
	callq	*-352(%rbp)
	movq	%rax, -528(%rbp)        ## 8-byte Spill
	addq	$528, %rsp              ## imm = 0x210
	popq	%rbp
	retq
	.cfi_endproc

	.globl	__ZNSt3__18multimapIiNS_12basic_stringIcNS_11char_traitsIcEENS_9allocatorIcEEEENS_4lessIiEENS4_INS_4pairIKiS6_EEEEED1Ev
	.weak_def_can_be_hidden	__ZNSt3__18multimapIiNS_12basic_stringIcNS_11char_traitsIcEENS_9allocatorIcEEEENS_4lessIiEENS4_INS_4pairIKiS6_EEEEED1Ev
	.align	4, 0x90
__ZNSt3__18multimapIiNS_12basic_stringIcNS_11char_traitsIcEENS_9allocatorIcEEEENS_4lessIiEENS4_INS_4pairIKiS6_EEEEED1Ev: ## @_ZNSt3__18multimapIiNS_12basic_stringIcNS_11char_traitsIcEENS_9allocatorIcEEEENS_4lessIiEENS4_INS_4pairIKiS6_EEEEED1Ev
	.cfi_startproc
## BB#0:
	pushq	%rbp
Ltmp93:
	.cfi_def_cfa_offset 16
Ltmp94:
	.cfi_offset %rbp, -16
	movq	%rsp, %rbp
Ltmp95:
	.cfi_def_cfa_register %rbp
	subq	$16, %rsp
	movq	%rdi, -8(%rbp)
	movq	-8(%rbp), %rdi
	callq	__ZNSt3__18multimapIiNS_12basic_stringIcNS_11char_traitsIcEENS_9allocatorIcEEEENS_4lessIiEENS4_INS_4pairIKiS6_EEEEED2Ev
	addq	$16, %rsp
	popq	%rbp
	retq
	.cfi_endproc

	.globl	__ZNSt3__13mapIiNS_12basic_stringIcNS_11char_traitsIcEENS_9allocatorIcEEEENS_4lessIiEENS4_INS_4pairIKiS6_EEEEED1Ev
	.weak_def_can_be_hidden	__ZNSt3__13mapIiNS_12basic_stringIcNS_11char_traitsIcEENS_9allocatorIcEEEENS_4lessIiEENS4_INS_4pairIKiS6_EEEEED1Ev
	.align	4, 0x90
__ZNSt3__13mapIiNS_12basic_stringIcNS_11char_traitsIcEENS_9allocatorIcEEEENS_4lessIiEENS4_INS_4pairIKiS6_EEEEED1Ev: ## @_ZNSt3__13mapIiNS_12basic_stringIcNS_11char_traitsIcEENS_9allocatorIcEEEENS_4lessIiEENS4_INS_4pairIKiS6_EEEEED1Ev
	.cfi_startproc
## BB#0:
	pushq	%rbp
Ltmp96:
	.cfi_def_cfa_offset 16
Ltmp97:
	.cfi_offset %rbp, -16
	movq	%rsp, %rbp
Ltmp98:
	.cfi_def_cfa_register %rbp
	subq	$16, %rsp
	movq	%rdi, -8(%rbp)
	movq	-8(%rbp), %rdi
	callq	__ZNSt3__13mapIiNS_12basic_stringIcNS_11char_traitsIcEENS_9allocatorIcEEEENS_4lessIiEENS4_INS_4pairIKiS6_EEEEED2Ev
	addq	$16, %rsp
	popq	%rbp
	retq
	.cfi_endproc

	.globl	__ZNSt3__14pairIKiNS_12basic_stringIcNS_11char_traitsIcEENS_9allocatorIcEEEEED2Ev
	.weak_def_can_be_hidden	__ZNSt3__14pairIKiNS_12basic_stringIcNS_11char_traitsIcEENS_9allocatorIcEEEEED2Ev
	.align	4, 0x90
__ZNSt3__14pairIKiNS_12basic_stringIcNS_11char_traitsIcEENS_9allocatorIcEEEEED2Ev: ## @_ZNSt3__14pairIKiNS_12basic_stringIcNS_11char_traitsIcEENS_9allocatorIcEEEEED2Ev
	.cfi_startproc
## BB#0:
	pushq	%rbp
Ltmp99:
	.cfi_def_cfa_offset 16
Ltmp100:
	.cfi_offset %rbp, -16
	movq	%rsp, %rbp
Ltmp101:
	.cfi_def_cfa_register %rbp
	subq	$16, %rsp
	movq	%rdi, -8(%rbp)
	movq	-8(%rbp), %rdi
	addq	$8, %rdi
	callq	__ZNSt3__112basic_stringIcNS_11char_traitsIcEENS_9allocatorIcEEED1Ev
	addq	$16, %rsp
	popq	%rbp
	retq
	.cfi_endproc

	.globl	__ZNSt3__14pairIiNS_12basic_stringIcNS_11char_traitsIcEENS_9allocatorIcEEEEED2Ev
	.weak_def_can_be_hidden	__ZNSt3__14pairIiNS_12basic_stringIcNS_11char_traitsIcEENS_9allocatorIcEEEEED2Ev
	.align	4, 0x90
__ZNSt3__14pairIiNS_12basic_stringIcNS_11char_traitsIcEENS_9allocatorIcEEEEED2Ev: ## @_ZNSt3__14pairIiNS_12basic_stringIcNS_11char_traitsIcEENS_9allocatorIcEEEEED2Ev
	.cfi_startproc
## BB#0:
	pushq	%rbp
Ltmp102:
	.cfi_def_cfa_offset 16
Ltmp103:
	.cfi_offset %rbp, -16
	movq	%rsp, %rbp
Ltmp104:
	.cfi_def_cfa_register %rbp
	subq	$16, %rsp
	movq	%rdi, -8(%rbp)
	movq	-8(%rbp), %rdi
	addq	$8, %rdi
	callq	__ZNSt3__112basic_stringIcNS_11char_traitsIcEENS_9allocatorIcEEED1Ev
	addq	$16, %rsp
	popq	%rbp
	retq
	.cfi_endproc

	.globl	__ZNSt3__18multimapIiNS_12basic_stringIcNS_11char_traitsIcEENS_9allocatorIcEEEENS_4lessIiEENS4_INS_4pairIKiS6_EEEEED2Ev
	.weak_def_can_be_hidden	__ZNSt3__18multimapIiNS_12basic_stringIcNS_11char_traitsIcEENS_9allocatorIcEEEENS_4lessIiEENS4_INS_4pairIKiS6_EEEEED2Ev
	.align	4, 0x90
__ZNSt3__18multimapIiNS_12basic_stringIcNS_11char_traitsIcEENS_9allocatorIcEEEENS_4lessIiEENS4_INS_4pairIKiS6_EEEEED2Ev: ## @_ZNSt3__18multimapIiNS_12basic_stringIcNS_11char_traitsIcEENS_9allocatorIcEEEENS_4lessIiEENS4_INS_4pairIKiS6_EEEEED2Ev
	.cfi_startproc
## BB#0:
	pushq	%rbp
Ltmp105:
	.cfi_def_cfa_offset 16
Ltmp106:
	.cfi_offset %rbp, -16
	movq	%rsp, %rbp
Ltmp107:
	.cfi_def_cfa_register %rbp
	subq	$16, %rsp
	movq	%rdi, -8(%rbp)
	movq	-8(%rbp), %rdi
	callq	__ZNSt3__16__treeINS_12__value_typeIiNS_12basic_stringIcNS_11char_traitsIcEENS_9allocatorIcEEEEEENS_19__map_value_compareIiS8_NS_4lessIiEELb1EEENS5_IS8_EEED1Ev
	addq	$16, %rsp
	popq	%rbp
	retq
	.cfi_endproc

	.globl	__ZNSt3__16__treeINS_12__value_typeIiNS_12basic_stringIcNS_11char_traitsIcEENS_9allocatorIcEEEEEENS_19__map_value_compareIiS8_NS_4lessIiEELb1EEENS5_IS8_EEED1Ev
	.weak_def_can_be_hidden	__ZNSt3__16__treeINS_12__value_typeIiNS_12basic_stringIcNS_11char_traitsIcEENS_9allocatorIcEEEEEENS_19__map_value_compareIiS8_NS_4lessIiEELb1EEENS5_IS8_EEED1Ev
	.align	4, 0x90
__ZNSt3__16__treeINS_12__value_typeIiNS_12basic_stringIcNS_11char_traitsIcEENS_9allocatorIcEEEEEENS_19__map_value_compareIiS8_NS_4lessIiEELb1EEENS5_IS8_EEED1Ev: ## @_ZNSt3__16__treeINS_12__value_typeIiNS_12basic_stringIcNS_11char_traitsIcEENS_9allocatorIcEEEEEENS_19__map_value_compareIiS8_NS_4lessIiEELb1EEENS5_IS8_EEED1Ev
	.cfi_startproc
## BB#0:
	pushq	%rbp
Ltmp108:
	.cfi_def_cfa_offset 16
Ltmp109:
	.cfi_offset %rbp, -16
	movq	%rsp, %rbp
Ltmp110:
	.cfi_def_cfa_register %rbp
	subq	$16, %rsp
	movq	%rdi, -8(%rbp)
	movq	-8(%rbp), %rdi
	callq	__ZNSt3__16__treeINS_12__value_typeIiNS_12basic_stringIcNS_11char_traitsIcEENS_9allocatorIcEEEEEENS_19__map_value_compareIiS8_NS_4lessIiEELb1EEENS5_IS8_EEED2Ev
	addq	$16, %rsp
	popq	%rbp
	retq
	.cfi_endproc

	.globl	__ZNSt3__16__treeINS_12__value_typeIiNS_12basic_stringIcNS_11char_traitsIcEENS_9allocatorIcEEEEEENS_19__map_value_compareIiS8_NS_4lessIiEELb1EEENS5_IS8_EEED2Ev
	.weak_def_can_be_hidden	__ZNSt3__16__treeINS_12__value_typeIiNS_12basic_stringIcNS_11char_traitsIcEENS_9allocatorIcEEEEEENS_19__map_value_compareIiS8_NS_4lessIiEELb1EEENS5_IS8_EEED2Ev
	.align	4, 0x90
__ZNSt3__16__treeINS_12__value_typeIiNS_12basic_stringIcNS_11char_traitsIcEENS_9allocatorIcEEEEEENS_19__map_value_compareIiS8_NS_4lessIiEELb1EEENS5_IS8_EEED2Ev: ## @_ZNSt3__16__treeINS_12__value_typeIiNS_12basic_stringIcNS_11char_traitsIcEENS_9allocatorIcEEEEEENS_19__map_value_compareIiS8_NS_4lessIiEELb1EEENS5_IS8_EEED2Ev
	.cfi_startproc
## BB#0:
	pushq	%rbp
Ltmp111:
	.cfi_def_cfa_offset 16
Ltmp112:
	.cfi_offset %rbp, -16
	movq	%rsp, %rbp
Ltmp113:
	.cfi_def_cfa_register %rbp
	subq	$64, %rsp
	movq	%rdi, -56(%rbp)
	movq	-56(%rbp), %rdi
	movq	%rdi, -48(%rbp)
	movq	-48(%rbp), %rax
	movq	%rax, -40(%rbp)
	movq	-40(%rbp), %rax
	addq	$8, %rax
	movq	%rax, -32(%rbp)
	movq	-32(%rbp), %rax
	movq	%rax, -24(%rbp)
	movq	-24(%rbp), %rax
	movq	%rax, -16(%rbp)
	movq	-16(%rbp), %rax
	movq	%rax, -8(%rbp)
	movq	-8(%rbp), %rax
	movq	(%rax), %rax
	movq	%rax, %rsi
	callq	__ZNSt3__16__treeINS_12__value_typeIiNS_12basic_stringIcNS_11char_traitsIcEENS_9allocatorIcEEEEEENS_19__map_value_compareIiS8_NS_4lessIiEELb1EEENS5_IS8_EEE7destroyEPNS_11__tree_nodeIS8_PvEE
	addq	$64, %rsp
	popq	%rbp
	retq
	.cfi_endproc

	.globl	__ZNSt3__16__treeINS_12__value_typeIiNS_12basic_stringIcNS_11char_traitsIcEENS_9allocatorIcEEEEEENS_19__map_value_compareIiS8_NS_4lessIiEELb1EEENS5_IS8_EEE7destroyEPNS_11__tree_nodeIS8_PvEE
	.weak_def_can_be_hidden	__ZNSt3__16__treeINS_12__value_typeIiNS_12basic_stringIcNS_11char_traitsIcEENS_9allocatorIcEEEEEENS_19__map_value_compareIiS8_NS_4lessIiEELb1EEENS5_IS8_EEE7destroyEPNS_11__tree_nodeIS8_PvEE
	.align	4, 0x90
__ZNSt3__16__treeINS_12__value_typeIiNS_12basic_stringIcNS_11char_traitsIcEENS_9allocatorIcEEEEEENS_19__map_value_compareIiS8_NS_4lessIiEELb1EEENS5_IS8_EEE7destroyEPNS_11__tree_nodeIS8_PvEE: ## @_ZNSt3__16__treeINS_12__value_typeIiNS_12basic_stringIcNS_11char_traitsIcEENS_9allocatorIcEEEEEENS_19__map_value_compareIiS8_NS_4lessIiEELb1EEENS5_IS8_EEE7destroyEPNS_11__tree_nodeIS8_PvEE
	.cfi_startproc
## BB#0:
	pushq	%rbp
Ltmp114:
	.cfi_def_cfa_offset 16
Ltmp115:
	.cfi_offset %rbp, -16
	movq	%rsp, %rbp
Ltmp116:
	.cfi_def_cfa_register %rbp
	subq	$192, %rsp
	movq	%rdi, -168(%rbp)
	movq	%rsi, -176(%rbp)
	movq	-168(%rbp), %rsi
	cmpq	$0, -176(%rbp)
	movq	%rsi, -192(%rbp)        ## 8-byte Spill
	je	LBB15_3
## BB#1:
	movq	-176(%rbp), %rax
	movq	(%rax), %rax
	movq	-192(%rbp), %rdi        ## 8-byte Reload
	movq	%rax, %rsi
	callq	__ZNSt3__16__treeINS_12__value_typeIiNS_12basic_stringIcNS_11char_traitsIcEENS_9allocatorIcEEEEEENS_19__map_value_compareIiS8_NS_4lessIiEELb1EEENS5_IS8_EEE7destroyEPNS_11__tree_nodeIS8_PvEE
	movq	-176(%rbp), %rax
	movq	8(%rax), %rax
	movq	-192(%rbp), %rdi        ## 8-byte Reload
	movq	%rax, %rsi
	callq	__ZNSt3__16__treeINS_12__value_typeIiNS_12basic_stringIcNS_11char_traitsIcEENS_9allocatorIcEEEEEENS_19__map_value_compareIiS8_NS_4lessIiEELb1EEENS5_IS8_EEE7destroyEPNS_11__tree_nodeIS8_PvEE
	movq	-192(%rbp), %rax        ## 8-byte Reload
	movq	%rax, -104(%rbp)
	movq	-104(%rbp), %rsi
	addq	$8, %rsi
	movq	%rsi, -96(%rbp)
	movq	-96(%rbp), %rsi
	movq	%rsi, -88(%rbp)
	movq	-88(%rbp), %rsi
	movq	%rsi, -184(%rbp)
	movq	-184(%rbp), %rsi
	movq	-176(%rbp), %rdi
	addq	$32, %rdi
	movq	%rdi, -80(%rbp)
	movq	-80(%rbp), %rdi
	movq	%rsi, -48(%rbp)
	movq	%rdi, -56(%rbp)
	movq	-48(%rbp), %rsi
	movq	-56(%rbp), %rdi
	movq	%rsi, -32(%rbp)
	movq	%rdi, -40(%rbp)
	movq	-40(%rbp), %rsi
	movq	%rsi, -16(%rbp)
	movq	-16(%rbp), %rsi
	movq	%rsi, -8(%rbp)
	movq	-8(%rbp), %rsi
	movq	%rsi, %rdi
	callq	__ZNSt3__14pairIKiNS_12basic_stringIcNS_11char_traitsIcEENS_9allocatorIcEEEEED1Ev
## BB#2:
	movq	-184(%rbp), %rax
	movq	-176(%rbp), %rcx
	movq	%rax, -144(%rbp)
	movq	%rcx, -152(%rbp)
	movq	$1, -160(%rbp)
	movq	-144(%rbp), %rax
	movq	-152(%rbp), %rcx
	movq	-160(%rbp), %rdx
	movq	%rax, -120(%rbp)
	movq	%rcx, -128(%rbp)
	movq	%rdx, -136(%rbp)
	movq	-128(%rbp), %rax
	movq	%rax, -112(%rbp)
	movq	-112(%rbp), %rdi
	callq	__ZdlPv
LBB15_3:
	addq	$192, %rsp
	popq	%rbp
	retq
	.cfi_endproc

	.private_extern	___clang_call_terminate
	.globl	___clang_call_terminate
	.weak_def_can_be_hidden	___clang_call_terminate
	.align	4, 0x90
___clang_call_terminate:                ## @__clang_call_terminate
## BB#0:
	pushq	%rbp
	movq	%rsp, %rbp
	subq	$16, %rsp
	callq	___cxa_begin_catch
	movq	%rax, -8(%rbp)          ## 8-byte Spill
	callq	__ZSt9terminatev

	.globl	__ZNSt3__13mapIiNS_12basic_stringIcNS_11char_traitsIcEENS_9allocatorIcEEEENS_4lessIiEENS4_INS_4pairIKiS6_EEEEED2Ev
	.weak_def_can_be_hidden	__ZNSt3__13mapIiNS_12basic_stringIcNS_11char_traitsIcEENS_9allocatorIcEEEENS_4lessIiEENS4_INS_4pairIKiS6_EEEEED2Ev
	.align	4, 0x90
__ZNSt3__13mapIiNS_12basic_stringIcNS_11char_traitsIcEENS_9allocatorIcEEEENS_4lessIiEENS4_INS_4pairIKiS6_EEEEED2Ev: ## @_ZNSt3__13mapIiNS_12basic_stringIcNS_11char_traitsIcEENS_9allocatorIcEEEENS_4lessIiEENS4_INS_4pairIKiS6_EEEEED2Ev
	.cfi_startproc
## BB#0:
	pushq	%rbp
Ltmp117:
	.cfi_def_cfa_offset 16
Ltmp118:
	.cfi_offset %rbp, -16
	movq	%rsp, %rbp
Ltmp119:
	.cfi_def_cfa_register %rbp
	subq	$16, %rsp
	movq	%rdi, -8(%rbp)
	movq	-8(%rbp), %rdi
	callq	__ZNSt3__16__treeINS_12__value_typeIiNS_12basic_stringIcNS_11char_traitsIcEENS_9allocatorIcEEEEEENS_19__map_value_compareIiS8_NS_4lessIiEELb1EEENS5_IS8_EEED1Ev
	addq	$16, %rsp
	popq	%rbp
	retq
	.cfi_endproc

	.globl	__ZNSt3__16__treeINS_12__value_typeIiNS_12basic_stringIcNS_11char_traitsIcEENS_9allocatorIcEEEEEENS_19__map_value_compareIiS8_NS_4lessIiEELb1EEENS5_IS8_EEEC1ERKSC_
	.weak_def_can_be_hidden	__ZNSt3__16__treeINS_12__value_typeIiNS_12basic_stringIcNS_11char_traitsIcEENS_9allocatorIcEEEEEENS_19__map_value_compareIiS8_NS_4lessIiEELb1EEENS5_IS8_EEEC1ERKSC_
	.align	4, 0x90
__ZNSt3__16__treeINS_12__value_typeIiNS_12basic_stringIcNS_11char_traitsIcEENS_9allocatorIcEEEEEENS_19__map_value_compareIiS8_NS_4lessIiEELb1EEENS5_IS8_EEEC1ERKSC_: ## @_ZNSt3__16__treeINS_12__value_typeIiNS_12basic_stringIcNS_11char_traitsIcEENS_9allocatorIcEEEEEENS_19__map_value_compareIiS8_NS_4lessIiEELb1EEENS5_IS8_EEEC1ERKSC_
	.cfi_startproc
## BB#0:
	pushq	%rbp
Ltmp120:
	.cfi_def_cfa_offset 16
Ltmp121:
	.cfi_offset %rbp, -16
	movq	%rsp, %rbp
Ltmp122:
	.cfi_def_cfa_register %rbp
	subq	$16, %rsp
	movq	%rdi, -8(%rbp)
	movq	%rsi, -16(%rbp)
	movq	-8(%rbp), %rdi
	movq	-16(%rbp), %rsi
	callq	__ZNSt3__16__treeINS_12__value_typeIiNS_12basic_stringIcNS_11char_traitsIcEENS_9allocatorIcEEEEEENS_19__map_value_compareIiS8_NS_4lessIiEELb1EEENS5_IS8_EEEC2ERKSC_
	addq	$16, %rsp
	popq	%rbp
	retq
	.cfi_endproc

	.globl	__ZNSt3__16__treeINS_12__value_typeIiNS_12basic_stringIcNS_11char_traitsIcEENS_9allocatorIcEEEEEENS_19__map_value_compareIiS8_NS_4lessIiEELb1EEENS5_IS8_EEEC2ERKSC_
	.weak_def_can_be_hidden	__ZNSt3__16__treeINS_12__value_typeIiNS_12basic_stringIcNS_11char_traitsIcEENS_9allocatorIcEEEEEENS_19__map_value_compareIiS8_NS_4lessIiEELb1EEENS5_IS8_EEEC2ERKSC_
	.align	4, 0x90
__ZNSt3__16__treeINS_12__value_typeIiNS_12basic_stringIcNS_11char_traitsIcEENS_9allocatorIcEEEEEENS_19__map_value_compareIiS8_NS_4lessIiEELb1EEENS5_IS8_EEEC2ERKSC_: ## @_ZNSt3__16__treeINS_12__value_typeIiNS_12basic_stringIcNS_11char_traitsIcEENS_9allocatorIcEEEEEENS_19__map_value_compareIiS8_NS_4lessIiEELb1EEENS5_IS8_EEEC2ERKSC_
	.cfi_startproc
## BB#0:
	pushq	%rbp
Ltmp123:
	.cfi_def_cfa_offset 16
Ltmp124:
	.cfi_offset %rbp, -16
	movq	%rsp, %rbp
Ltmp125:
	.cfi_def_cfa_register %rbp
	subq	$112, %rsp
	movq	%rdi, -216(%rbp)
	movq	%rsi, -224(%rbp)
	movq	-216(%rbp), %rsi
	movq	%rsi, %rdi
	addq	$8, %rdi
	movq	%rdi, -208(%rbp)
	movq	-208(%rbp), %rdi
	movq	%rdi, -200(%rbp)
	movq	-200(%rbp), %rdi
	movq	%rdi, -192(%rbp)
	movq	-192(%rbp), %rdi
	movq	%rdi, %rax
	movq	%rax, -184(%rbp)
	movq	%rdi, -176(%rbp)
	movq	-176(%rbp), %rax
	movq	%rax, -168(%rbp)
	movq	-168(%rbp), %rax
	movq	$0, (%rax)
	movq	%rsi, -240(%rbp)        ## 8-byte Spill
## BB#1:
	leaq	-96(%rbp), %rax
	leaq	-80(%rbp), %rcx
	leaq	-112(%rbp), %rdx
	leaq	-128(%rbp), %rsi
	movq	-240(%rbp), %rdi        ## 8-byte Reload
	addq	$16, %rdi
	movq	%rdi, -152(%rbp)
	movq	$0, -160(%rbp)
	movq	-152(%rbp), %rdi
	movq	-160(%rbp), %r8
	movq	%rdi, -120(%rbp)
	movq	%r8, -128(%rbp)
	movq	-120(%rbp), %rdi
	movq	%rsi, -104(%rbp)
	movq	-104(%rbp), %rsi
	movq	(%rsi), %rsi
	movq	%rdx, -56(%rbp)
	movq	%rdi, -88(%rbp)
	movq	%rsi, -96(%rbp)
	movq	-88(%rbp), %rdx
	movq	%rcx, -72(%rbp)
	movq	%rax, -64(%rbp)
	movq	-64(%rbp), %rax
	movq	(%rax), %rax
	movq	%rax, (%rdx)
## BB#2:
	movq	-240(%rbp), %rax        ## 8-byte Reload
	movq	%rax, -40(%rbp)
	movq	-40(%rbp), %rcx
	addq	$8, %rcx
	movq	%rcx, -32(%rbp)
	movq	-32(%rbp), %rcx
	movq	%rcx, -24(%rbp)
	movq	-24(%rbp), %rcx
	movq	%rcx, -16(%rbp)
	movq	-16(%rbp), %rcx
	movq	%rcx, -8(%rbp)
	movq	-8(%rbp), %rcx
	movq	%rax, -48(%rbp)
	movq	-48(%rbp), %rdx
	movq	%rcx, (%rdx)
	addq	$112, %rsp
	popq	%rbp
	retq
	.cfi_endproc

	.globl	__ZNSt3__111char_traitsIcE6lengthEPKc
	.weak_def_can_be_hidden	__ZNSt3__111char_traitsIcE6lengthEPKc
	.align	4, 0x90
__ZNSt3__111char_traitsIcE6lengthEPKc:  ## @_ZNSt3__111char_traitsIcE6lengthEPKc
	.cfi_startproc
## BB#0:
	pushq	%rbp
Ltmp126:
	.cfi_def_cfa_offset 16
Ltmp127:
	.cfi_offset %rbp, -16
	movq	%rsp, %rbp
Ltmp128:
	.cfi_def_cfa_register %rbp
	subq	$16, %rsp
	movq	%rdi, -8(%rbp)
	movq	-8(%rbp), %rdi
	callq	_strlen
	addq	$16, %rsp
	popq	%rbp
	retq
	.cfi_endproc

	.globl	__ZNSt3__16__treeINS_12__value_typeIiNS_12basic_stringIcNS_11char_traitsIcEENS_9allocatorIcEEEEEENS_19__map_value_compareIiS8_NS_4lessIiEELb1EEENS5_IS8_EEE15__insert_uniqueINS_4pairIKiS7_EEEENSG_INS_15__tree_iteratorIS8_PNS_11__tree_nodeIS8_PvEElEEbEEOT_
	.weak_def_can_be_hidden	__ZNSt3__16__treeINS_12__value_typeIiNS_12basic_stringIcNS_11char_traitsIcEENS_9allocatorIcEEEEEENS_19__map_value_compareIiS8_NS_4lessIiEELb1EEENS5_IS8_EEE15__insert_uniqueINS_4pairIKiS7_EEEENSG_INS_15__tree_iteratorIS8_PNS_11__tree_nodeIS8_PvEElEEbEEOT_
	.align	4, 0x90
__ZNSt3__16__treeINS_12__value_typeIiNS_12basic_stringIcNS_11char_traitsIcEENS_9allocatorIcEEEEEENS_19__map_value_compareIiS8_NS_4lessIiEELb1EEENS5_IS8_EEE15__insert_uniqueINS_4pairIKiS7_EEEENSG_INS_15__tree_iteratorIS8_PNS_11__tree_nodeIS8_PvEElEEbEEOT_: ## @_ZNSt3__16__treeINS_12__value_typeIiNS_12basic_stringIcNS_11char_traitsIcEENS_9allocatorIcEEEEEENS_19__map_value_compareIiS8_NS_4lessIiEELb1EEENS5_IS8_EEE15__insert_uniqueINS_4pairIKiS7_EEEENSG_INS_15__tree_iteratorIS8_PNS_11__tree_nodeIS8_PvEElEEbEEOT_
Lfunc_begin21:
	.cfi_startproc
	.cfi_personality 155, ___gxx_personality_v0
	.cfi_lsda 16, Lexception21
## BB#0:
	pushq	%rbp
Ltmp132:
	.cfi_def_cfa_offset 16
Ltmp133:
	.cfi_offset %rbp, -16
	movq	%rsp, %rbp
Ltmp134:
	.cfi_def_cfa_register %rbp
	subq	$704, %rsp              ## imm = 0x2C0
	movq	%rdi, -584(%rbp)
	movq	%rsi, -592(%rbp)
	movq	-584(%rbp), %rdi
	movq	%rsi, -560(%rbp)
	leaq	-616(%rbp), %rax
	movq	%rdi, -640(%rbp)        ## 8-byte Spill
	movq	%rax, %rdi
	movq	-640(%rbp), %rcx        ## 8-byte Reload
	movq	%rsi, -648(%rbp)        ## 8-byte Spill
	movq	%rcx, %rsi
	movq	-648(%rbp), %rdx        ## 8-byte Reload
	movq	%rax, -656(%rbp)        ## 8-byte Spill
	callq	__ZNSt3__16__treeINS_12__value_typeIiNS_12basic_stringIcNS_11char_traitsIcEENS_9allocatorIcEEEEEENS_19__map_value_compareIiS8_NS_4lessIiEELb1EEENS5_IS8_EEE16__construct_nodeIJNS_4pairIKiS7_EEEEENS_10unique_ptrINS_11__tree_nodeIS8_PvEENS_22__tree_node_destructorINS5_ISM_EEEEEEDpOT_
	movq	-656(%rbp), %rax        ## 8-byte Reload
	movq	%rax, -312(%rbp)
	movq	%rax, -304(%rbp)
	movq	%rax, -296(%rbp)
	movq	-616(%rbp), %rsi
Ltmp129:
	movq	-640(%rbp), %rdi        ## 8-byte Reload
	callq	__ZNSt3__16__treeINS_12__value_typeIiNS_12basic_stringIcNS_11char_traitsIcEENS_9allocatorIcEEEEEENS_19__map_value_compareIiS8_NS_4lessIiEELb1EEENS5_IS8_EEE20__node_insert_uniqueEPNS_11__tree_nodeIS8_PvEE
Ltmp130:
	movb	%dl, -657(%rbp)         ## 1-byte Spill
	movq	%rax, -672(%rbp)        ## 8-byte Spill
	jmp	LBB21_1
LBB21_1:
	movq	-672(%rbp), %rax        ## 8-byte Reload
	movq	%rax, -576(%rbp)
	movb	-657(%rbp), %cl         ## 1-byte Reload
	movb	%cl, -568(%rbp)
	testb	$1, -568(%rbp)
	je	LBB21_10
## BB#2:
	leaq	-616(%rbp), %rax
	movq	%rax, -280(%rbp)
	movq	-280(%rbp), %rax
	movq	%rax, -272(%rbp)
	movq	-272(%rbp), %rcx
	movq	%rcx, -264(%rbp)
	movq	-264(%rbp), %rcx
	movq	(%rcx), %rcx
	movq	%rcx, -288(%rbp)
	movq	%rax, -256(%rbp)
	movq	-256(%rbp), %rax
	movq	%rax, -248(%rbp)
	movq	-248(%rbp), %rax
	movq	$0, (%rax)
	jmp	LBB21_10
LBB21_3:
Ltmp131:
	leaq	-616(%rbp), %rcx
	movl	%edx, %esi
	movq	%rax, -624(%rbp)
	movl	%esi, -628(%rbp)
	movq	%rcx, -240(%rbp)
	movq	-240(%rbp), %rax
	movq	%rax, -232(%rbp)
	movq	-232(%rbp), %rax
	movq	%rax, -208(%rbp)
	movq	$0, -216(%rbp)
	movq	-208(%rbp), %rax
	movq	%rax, -200(%rbp)
	movq	-200(%rbp), %rcx
	movq	%rcx, -192(%rbp)
	movq	-192(%rbp), %rcx
	movq	(%rcx), %rcx
	movq	%rcx, -224(%rbp)
	movq	-216(%rbp), %rcx
	movq	%rax, -32(%rbp)
	movq	-32(%rbp), %rdx
	movq	%rdx, -24(%rbp)
	movq	-24(%rbp), %rdx
	movq	%rcx, (%rdx)
	cmpq	$0, -224(%rbp)
	movq	%rax, -680(%rbp)        ## 8-byte Spill
	je	LBB21_9
## BB#4:
	movq	-680(%rbp), %rax        ## 8-byte Reload
	movq	%rax, -16(%rbp)
	movq	-16(%rbp), %rcx
	movq	%rcx, -8(%rbp)
	movq	-8(%rbp), %rcx
	addq	$8, %rcx
	movq	-224(%rbp), %rdx
	movq	%rcx, -176(%rbp)
	movq	%rdx, -184(%rbp)
	movq	-176(%rbp), %rcx
	testb	$1, 8(%rcx)
	movq	%rcx, -688(%rbp)        ## 8-byte Spill
	je	LBB21_6
## BB#5:
	movq	-688(%rbp), %rax        ## 8-byte Reload
	movq	(%rax), %rcx
	movq	-184(%rbp), %rdx
	addq	$32, %rdx
	movq	%rdx, -168(%rbp)
	movq	-168(%rbp), %rdx
	movq	%rcx, -136(%rbp)
	movq	%rdx, -144(%rbp)
	movq	-136(%rbp), %rcx
	movq	-144(%rbp), %rdx
	movq	%rcx, -120(%rbp)
	movq	%rdx, -128(%rbp)
	movq	-128(%rbp), %rcx
	movq	%rcx, -104(%rbp)
	movq	-104(%rbp), %rcx
	movq	%rcx, -96(%rbp)
	movq	-96(%rbp), %rcx
	movq	%rcx, %rdi
	callq	__ZNSt3__14pairIKiNS_12basic_stringIcNS_11char_traitsIcEENS_9allocatorIcEEEEED1Ev
LBB21_6:
	cmpq	$0, -184(%rbp)
	je	LBB21_8
## BB#7:
	movq	-688(%rbp), %rax        ## 8-byte Reload
	movq	(%rax), %rcx
	movq	-184(%rbp), %rdx
	movq	%rcx, -72(%rbp)
	movq	%rdx, -80(%rbp)
	movq	$1, -88(%rbp)
	movq	-72(%rbp), %rcx
	movq	-80(%rbp), %rdx
	movq	-88(%rbp), %rsi
	movq	%rcx, -48(%rbp)
	movq	%rdx, -56(%rbp)
	movq	%rsi, -64(%rbp)
	movq	-56(%rbp), %rcx
	movq	%rcx, -40(%rbp)
	movq	-40(%rbp), %rdi
	callq	__ZdlPv
LBB21_8:                                ## %_ZNSt3__122__tree_node_destructorINS_9allocatorINS_11__tree_nodeINS_12__value_typeIiNS_12basic_stringIcNS_11char_traitsIcEENS1_IcEEEEEEPvEEEEEclEPSB_.exit.i.i.i2
	jmp	LBB21_9
LBB21_9:                                ## %_ZNSt3__110unique_ptrINS_11__tree_nodeINS_12__value_typeIiNS_12basic_stringIcNS_11char_traitsIcEENS_9allocatorIcEEEEEEPvEENS_22__tree_node_destructorINS6_ISB_EEEEED1Ev.exit3
	jmp	LBB21_17
LBB21_10:
	leaq	-616(%rbp), %rax
	movl	$1, -632(%rbp)
	movq	%rax, -552(%rbp)
	movq	-552(%rbp), %rax
	movq	%rax, -544(%rbp)
	movq	-544(%rbp), %rax
	movq	%rax, -520(%rbp)
	movq	$0, -528(%rbp)
	movq	-520(%rbp), %rax
	movq	%rax, -512(%rbp)
	movq	-512(%rbp), %rcx
	movq	%rcx, -504(%rbp)
	movq	-504(%rbp), %rcx
	movq	(%rcx), %rcx
	movq	%rcx, -536(%rbp)
	movq	-528(%rbp), %rcx
	movq	%rax, -344(%rbp)
	movq	-344(%rbp), %rdx
	movq	%rdx, -336(%rbp)
	movq	-336(%rbp), %rdx
	movq	%rcx, (%rdx)
	cmpq	$0, -536(%rbp)
	movq	%rax, -696(%rbp)        ## 8-byte Spill
	je	LBB21_16
## BB#11:
	movq	-696(%rbp), %rax        ## 8-byte Reload
	movq	%rax, -328(%rbp)
	movq	-328(%rbp), %rcx
	movq	%rcx, -320(%rbp)
	movq	-320(%rbp), %rcx
	addq	$8, %rcx
	movq	-536(%rbp), %rdx
	movq	%rcx, -488(%rbp)
	movq	%rdx, -496(%rbp)
	movq	-488(%rbp), %rcx
	testb	$1, 8(%rcx)
	movq	%rcx, -704(%rbp)        ## 8-byte Spill
	je	LBB21_13
## BB#12:
	movq	-704(%rbp), %rax        ## 8-byte Reload
	movq	(%rax), %rcx
	movq	-496(%rbp), %rdx
	addq	$32, %rdx
	movq	%rdx, -480(%rbp)
	movq	-480(%rbp), %rdx
	movq	%rcx, -448(%rbp)
	movq	%rdx, -456(%rbp)
	movq	-448(%rbp), %rcx
	movq	-456(%rbp), %rdx
	movq	%rcx, -432(%rbp)
	movq	%rdx, -440(%rbp)
	movq	-440(%rbp), %rcx
	movq	%rcx, -416(%rbp)
	movq	-416(%rbp), %rcx
	movq	%rcx, -408(%rbp)
	movq	-408(%rbp), %rcx
	movq	%rcx, %rdi
	callq	__ZNSt3__14pairIKiNS_12basic_stringIcNS_11char_traitsIcEENS_9allocatorIcEEEEED1Ev
LBB21_13:
	cmpq	$0, -496(%rbp)
	je	LBB21_15
## BB#14:
	movq	-704(%rbp), %rax        ## 8-byte Reload
	movq	(%rax), %rcx
	movq	-496(%rbp), %rdx
	movq	%rcx, -384(%rbp)
	movq	%rdx, -392(%rbp)
	movq	$1, -400(%rbp)
	movq	-384(%rbp), %rcx
	movq	-392(%rbp), %rdx
	movq	-400(%rbp), %rsi
	movq	%rcx, -360(%rbp)
	movq	%rdx, -368(%rbp)
	movq	%rsi, -376(%rbp)
	movq	-368(%rbp), %rcx
	movq	%rcx, -352(%rbp)
	movq	-352(%rbp), %rdi
	callq	__ZdlPv
LBB21_15:                               ## %_ZNSt3__122__tree_node_destructorINS_9allocatorINS_11__tree_nodeINS_12__value_typeIiNS_12basic_stringIcNS_11char_traitsIcEENS1_IcEEEEEEPvEEEEEclEPSB_.exit.i.i.i
	jmp	LBB21_16
LBB21_16:                               ## %_ZNSt3__110unique_ptrINS_11__tree_nodeINS_12__value_typeIiNS_12basic_stringIcNS_11char_traitsIcEENS_9allocatorIcEEEEEEPvEENS_22__tree_node_destructorINS6_ISB_EEEEED1Ev.exit
	movq	-576(%rbp), %rax
	movb	-568(%rbp), %dl
	addq	$704, %rsp              ## imm = 0x2C0
	popq	%rbp
	retq
LBB21_17:
	movq	-624(%rbp), %rdi
	callq	__Unwind_Resume
Lfunc_end21:
	.cfi_endproc
	.section	__TEXT,__gcc_except_tab
	.align	2
GCC_except_table21:
Lexception21:
	.byte	255                     ## @LPStart Encoding = omit
	.byte	155                     ## @TType Encoding = indirect pcrel sdata4
	.byte	41                      ## @TType base offset
	.byte	3                       ## Call site Encoding = udata4
	.byte	39                      ## Call site table length
Lset37 = Lfunc_begin21-Lfunc_begin21    ## >> Call Site 1 <<
	.long	Lset37
Lset38 = Ltmp129-Lfunc_begin21          ##   Call between Lfunc_begin21 and Ltmp129
	.long	Lset38
	.long	0                       ##     has no landing pad
	.byte	0                       ##   On action: cleanup
Lset39 = Ltmp129-Lfunc_begin21          ## >> Call Site 2 <<
	.long	Lset39
Lset40 = Ltmp130-Ltmp129                ##   Call between Ltmp129 and Ltmp130
	.long	Lset40
Lset41 = Ltmp131-Lfunc_begin21          ##     jumps to Ltmp131
	.long	Lset41
	.byte	0                       ##   On action: cleanup
Lset42 = Ltmp130-Lfunc_begin21          ## >> Call Site 3 <<
	.long	Lset42
Lset43 = Lfunc_end21-Ltmp130            ##   Call between Ltmp130 and Lfunc_end21
	.long	Lset43
	.long	0                       ##     has no landing pad
	.byte	0                       ##   On action: cleanup
	.align	2

	.section	__TEXT,__textcoal_nt,coalesced,pure_instructions
	.globl	__ZNSt3__16__treeINS_12__value_typeIiNS_12basic_stringIcNS_11char_traitsIcEENS_9allocatorIcEEEEEENS_19__map_value_compareIiS8_NS_4lessIiEELb1EEENS5_IS8_EEE16__construct_nodeIJNS_4pairIKiS7_EEEEENS_10unique_ptrINS_11__tree_nodeIS8_PvEENS_22__tree_node_destructorINS5_ISM_EEEEEEDpOT_
	.weak_def_can_be_hidden	__ZNSt3__16__treeINS_12__value_typeIiNS_12basic_stringIcNS_11char_traitsIcEENS_9allocatorIcEEEEEENS_19__map_value_compareIiS8_NS_4lessIiEELb1EEENS5_IS8_EEE16__construct_nodeIJNS_4pairIKiS7_EEEEENS_10unique_ptrINS_11__tree_nodeIS8_PvEENS_22__tree_node_destructorINS5_ISM_EEEEEEDpOT_
	.align	4, 0x90
__ZNSt3__16__treeINS_12__value_typeIiNS_12basic_stringIcNS_11char_traitsIcEENS_9allocatorIcEEEEEENS_19__map_value_compareIiS8_NS_4lessIiEELb1EEENS5_IS8_EEE16__construct_nodeIJNS_4pairIKiS7_EEEEENS_10unique_ptrINS_11__tree_nodeIS8_PvEENS_22__tree_node_destructorINS5_ISM_EEEEEEDpOT_: ## @_ZNSt3__16__treeINS_12__value_typeIiNS_12basic_stringIcNS_11char_traitsIcEENS_9allocatorIcEEEEEENS_19__map_value_compareIiS8_NS_4lessIiEELb1EEENS5_IS8_EEE16__construct_nodeIJNS_4pairIKiS7_EEEEENS_10unique_ptrINS_11__tree_nodeIS8_PvEENS_22__tree_node_destructorINS5_ISM_EEEEEEDpOT_
	.cfi_startproc
## BB#0:
	pushq	%rbp
Ltmp135:
	.cfi_def_cfa_offset 16
Ltmp136:
	.cfi_offset %rbp, -16
	movq	%rsp, %rbp
Ltmp137:
	.cfi_def_cfa_register %rbp
	pushq	%r14
	pushq	%rbx
	subq	$1264, %rsp             ## imm = 0x4F0
Ltmp138:
	.cfi_offset %rbx, -32
Ltmp139:
	.cfi_offset %r14, -24
	movq	%rdi, %rax
	movq	%rsi, -1176(%rbp)
	movq	%rdx, -1184(%rbp)
	movq	-1176(%rbp), %rdx
	movq	%rdx, -1168(%rbp)
	movq	-1168(%rbp), %rdx
	addq	$8, %rdx
	movq	%rdx, -1160(%rbp)
	movq	-1160(%rbp), %rdx
	movq	%rdx, -1152(%rbp)
	movq	-1152(%rbp), %rdx
	movq	%rdx, -1192(%rbp)
	movb	$0, -1193(%rbp)
	movq	-1192(%rbp), %rdx
	movq	%rdx, -896(%rbp)
	movq	$1, -904(%rbp)
	movq	-896(%rbp), %rdx
	movq	-904(%rbp), %rsi
	movq	%rdx, -872(%rbp)
	movq	%rsi, -880(%rbp)
	movq	$0, -888(%rbp)
	movq	-880(%rbp), %rdx
	shlq	$6, %rdx
	movq	%rdx, -864(%rbp)
	movq	-864(%rbp), %rdx
	movq	%rdi, -1240(%rbp)       ## 8-byte Spill
	movq	%rdx, %rdi
	movq	%rax, -1248(%rbp)       ## 8-byte Spill
	callq	__Znwm
	leaq	-632(%rbp), %rdx
	leaq	-648(%rbp), %rsi
	leaq	-672(%rbp), %rdi
	leaq	-688(%rbp), %rcx
	leaq	-1216(%rbp), %r8
	movq	-1192(%rbp), %r9
	movq	%r8, -840(%rbp)
	movq	%r9, -848(%rbp)
	movb	$0, -849(%rbp)
	movq	-840(%rbp), %r9
	movb	-849(%rbp), %r10b
	movq	-848(%rbp), %r11
	movq	%r9, -816(%rbp)
	movq	%r11, -824(%rbp)
	andb	$1, %r10b
	movb	%r10b, -825(%rbp)
	movq	-816(%rbp), %r9
	movq	-824(%rbp), %r11
	movq	%r11, (%r9)
	movb	-825(%rbp), %r10b
	andb	$1, %r10b
	movb	%r10b, 8(%r9)
	movq	-1240(%rbp), %r9        ## 8-byte Reload
	movq	%r9, -792(%rbp)
	movq	%rax, -800(%rbp)
	movq	%r8, -808(%rbp)
	movq	-792(%rbp), %rax
	movq	-800(%rbp), %r8
	movq	-808(%rbp), %r11
	movq	%rax, -752(%rbp)
	movq	%r8, -760(%rbp)
	movq	%r11, -768(%rbp)
	movq	-752(%rbp), %rax
	movq	-760(%rbp), %r8
	movq	-768(%rbp), %r11
	movq	%r11, -744(%rbp)
	movq	-744(%rbp), %r11
	movq	(%r11), %rbx
	movq	%rbx, -784(%rbp)
	movq	8(%r11), %r11
	movq	%r11, -776(%rbp)
	movq	-784(%rbp), %r11
	movb	-776(%rbp), %r10b
	movq	%r11, -720(%rbp)
	movb	%r10b, -712(%rbp)
	movq	%rax, -728(%rbp)
	movq	%r8, -736(%rbp)
	movq	-728(%rbp), %rax
	movq	-736(%rbp), %r8
	movq	-720(%rbp), %r11
	movb	-712(%rbp), %r10b
	movq	%r11, -672(%rbp)
	movb	%r10b, -664(%rbp)
	movq	%rax, -680(%rbp)
	movq	%r8, -688(%rbp)
	movq	-680(%rbp), %rax
	movq	%rcx, -656(%rbp)
	movq	-656(%rbp), %rcx
	movq	(%rcx), %rcx
	movq	%rdi, -600(%rbp)
	movq	-600(%rbp), %rdi
	movq	(%rdi), %r8
	movq	%r8, -704(%rbp)
	movq	8(%rdi), %rdi
	movq	%rdi, -696(%rbp)
	movq	-704(%rbp), %rdi
	movb	-696(%rbp), %r10b
	movq	%rdi, -632(%rbp)
	movb	%r10b, -624(%rbp)
	movq	%rax, -640(%rbp)
	movq	%rcx, -648(%rbp)
	movq	-640(%rbp), %rax
	movq	%rsi, -616(%rbp)
	movq	-616(%rbp), %rcx
	movq	(%rcx), %rcx
	movq	%rcx, (%rax)
	movq	%rdx, -608(%rbp)
	movq	-608(%rbp), %rcx
	movq	(%rcx), %rdx
	movq	%rdx, 8(%rax)
	movq	8(%rcx), %rcx
	movq	%rcx, 16(%rax)
	movq	-1192(%rbp), %rax
	movq	%r9, -352(%rbp)
	movq	-352(%rbp), %rcx
	movq	%rcx, -344(%rbp)
	movq	-344(%rbp), %rcx
	movq	%rcx, -336(%rbp)
	movq	-336(%rbp), %rcx
	movq	(%rcx), %rcx
	addq	$32, %rcx
	movq	%rcx, -328(%rbp)
	movq	-328(%rbp), %rcx
	movq	-1184(%rbp), %rdx
	movq	%rdx, -24(%rbp)
	movq	-24(%rbp), %rdx
	movq	%rax, -264(%rbp)
	movq	%rcx, -272(%rbp)
	movq	%rdx, -280(%rbp)
	movq	-264(%rbp), %rax
	movq	-272(%rbp), %rcx
	movq	-280(%rbp), %rdx
	movq	%rdx, -256(%rbp)
	movq	-256(%rbp), %rdx
	movq	%rax, -232(%rbp)
	movq	%rcx, -240(%rbp)
	movq	%rdx, -248(%rbp)
	movq	-232(%rbp), %rax
	movq	-240(%rbp), %rcx
	movq	-248(%rbp), %rdx
	movq	%rdx, -216(%rbp)
	movq	-216(%rbp), %rdx
	movq	%rax, -192(%rbp)
	movq	%rcx, -200(%rbp)
	movq	%rdx, -208(%rbp)
	movq	-200(%rbp), %rax
	movq	-208(%rbp), %rcx
	movq	%rcx, -184(%rbp)
	movq	-184(%rbp), %rcx
	movq	%rax, -168(%rbp)
	movq	%rcx, -176(%rbp)
	movq	-168(%rbp), %rax
	movq	-176(%rbp), %rcx
	movq	%rax, -152(%rbp)
	movq	%rcx, -160(%rbp)
	movq	-152(%rbp), %rax
	movq	-160(%rbp), %rcx
	movq	%rcx, -144(%rbp)
	movq	-144(%rbp), %rcx
	movq	%rax, -128(%rbp)
	movq	%rcx, -136(%rbp)
	movq	-128(%rbp), %rax
	movq	-136(%rbp), %rcx
	movq	%rax, -112(%rbp)
	movq	%rcx, -120(%rbp)
	movq	-112(%rbp), %rax
	movq	-120(%rbp), %rcx
	movl	(%rcx), %r14d
	movl	%r14d, (%rax)
	movq	%rax, %rcx
	addq	$8, %rcx
	movq	-120(%rbp), %rdx
	addq	$8, %rdx
	movq	%rcx, -96(%rbp)
	movq	%rdx, -104(%rbp)
	movq	-96(%rbp), %rcx
	movq	-104(%rbp), %rdx
	movq	%rcx, -80(%rbp)
	movq	%rdx, -88(%rbp)
	movq	-80(%rbp), %rcx
	movq	-88(%rbp), %rdx
	movq	%rdx, -72(%rbp)
	movq	-72(%rbp), %rdx
	movq	(%rdx), %rsi
	movq	%rsi, (%rcx)
	movq	8(%rdx), %rsi
	movq	%rsi, 8(%rcx)
	movq	16(%rdx), %rdx
	movq	%rdx, 16(%rcx)
	movq	-88(%rbp), %rcx
	movq	%rcx, -48(%rbp)
	movq	-48(%rbp), %rcx
	movq	%rcx, -40(%rbp)
	movq	-40(%rbp), %rcx
	movq	%rcx, -32(%rbp)
	movq	-32(%rbp), %rcx
	movq	%rcx, -56(%rbp)
	movl	$0, -60(%rbp)
	movq	%rax, -1256(%rbp)       ## 8-byte Spill
LBB22_1:                                ## =>This Inner Loop Header: Depth=1
	cmpl	$3, -60(%rbp)
	jae	LBB22_3
## BB#2:                                ##   in Loop: Header=BB22_1 Depth=1
	movl	-60(%rbp), %eax
	movl	%eax, %ecx
	movq	-56(%rbp), %rdx
	movq	$0, (%rdx,%rcx,8)
	movl	-60(%rbp), %eax
	addl	$1, %eax
	movl	%eax, -60(%rbp)
	jmp	LBB22_1
LBB22_3:                                ## %_ZNSt3__116allocator_traitsINS_9allocatorINS_11__tree_nodeINS_12__value_typeIiNS_12basic_stringIcNS_11char_traitsIcEENS1_IcEEEEEEPvEEEEE9constructIS9_JNS_4pairIKiS8_EEEEEvRSC_PT_DpOT0_.exit
	movq	-120(%rbp), %rax
	movl	(%rax), %ecx
	movq	-1256(%rbp), %rax       ## 8-byte Reload
	movl	%ecx, (%rax)
## BB#4:
	movq	-1240(%rbp), %rax       ## 8-byte Reload
	movq	%rax, -320(%rbp)
	movq	-320(%rbp), %rcx
	movq	%rcx, -312(%rbp)
	movq	-312(%rbp), %rcx
	movq	%rcx, -304(%rbp)
	movq	-304(%rbp), %rcx
	movb	$1, 16(%rcx)
	movb	$1, -1193(%rbp)
	movl	$1, -1232(%rbp)
	testb	$1, -1193(%rbp)
	jne	LBB22_12
## BB#5:
	movq	-1240(%rbp), %rax       ## 8-byte Reload
	movq	%rax, -1144(%rbp)
	movq	-1144(%rbp), %rcx
	movq	%rcx, -1136(%rbp)
	movq	-1136(%rbp), %rcx
	movq	%rcx, -1112(%rbp)
	movq	$0, -1120(%rbp)
	movq	-1112(%rbp), %rcx
	movq	%rcx, -1104(%rbp)
	movq	-1104(%rbp), %rdx
	movq	%rdx, -1096(%rbp)
	movq	-1096(%rbp), %rdx
	movq	(%rdx), %rdx
	movq	%rdx, -1128(%rbp)
	movq	-1120(%rbp), %rdx
	movq	%rcx, -936(%rbp)
	movq	-936(%rbp), %rsi
	movq	%rsi, -928(%rbp)
	movq	-928(%rbp), %rsi
	movq	%rdx, (%rsi)
	cmpq	$0, -1128(%rbp)
	movq	%rcx, -1264(%rbp)       ## 8-byte Spill
	je	LBB22_11
## BB#6:
	movq	-1264(%rbp), %rax       ## 8-byte Reload
	movq	%rax, -920(%rbp)
	movq	-920(%rbp), %rcx
	movq	%rcx, -912(%rbp)
	movq	-912(%rbp), %rcx
	addq	$8, %rcx
	movq	-1128(%rbp), %rdx
	movq	%rcx, -1080(%rbp)
	movq	%rdx, -1088(%rbp)
	movq	-1080(%rbp), %rcx
	testb	$1, 8(%rcx)
	movq	%rcx, -1272(%rbp)       ## 8-byte Spill
	je	LBB22_8
## BB#7:
	movq	-1272(%rbp), %rax       ## 8-byte Reload
	movq	(%rax), %rcx
	movq	-1088(%rbp), %rdx
	addq	$32, %rdx
	movq	%rdx, -1072(%rbp)
	movq	-1072(%rbp), %rdx
	movq	%rcx, -1040(%rbp)
	movq	%rdx, -1048(%rbp)
	movq	-1040(%rbp), %rcx
	movq	-1048(%rbp), %rdx
	movq	%rcx, -1024(%rbp)
	movq	%rdx, -1032(%rbp)
	movq	-1032(%rbp), %rcx
	movq	%rcx, -1008(%rbp)
	movq	-1008(%rbp), %rcx
	movq	%rcx, -1000(%rbp)
	movq	-1000(%rbp), %rcx
	movq	%rcx, %rdi
	callq	__ZNSt3__14pairIKiNS_12basic_stringIcNS_11char_traitsIcEENS_9allocatorIcEEEEED1Ev
LBB22_8:
	cmpq	$0, -1088(%rbp)
	je	LBB22_10
## BB#9:
	movq	-1272(%rbp), %rax       ## 8-byte Reload
	movq	(%rax), %rcx
	movq	-1088(%rbp), %rdx
	movq	%rcx, -976(%rbp)
	movq	%rdx, -984(%rbp)
	movq	$1, -992(%rbp)
	movq	-976(%rbp), %rcx
	movq	-984(%rbp), %rdx
	movq	-992(%rbp), %rsi
	movq	%rcx, -952(%rbp)
	movq	%rdx, -960(%rbp)
	movq	%rsi, -968(%rbp)
	movq	-960(%rbp), %rcx
	movq	%rcx, -944(%rbp)
	movq	-944(%rbp), %rdi
	callq	__ZdlPv
LBB22_10:                               ## %_ZNSt3__122__tree_node_destructorINS_9allocatorINS_11__tree_nodeINS_12__value_typeIiNS_12basic_stringIcNS_11char_traitsIcEENS1_IcEEEEEEPvEEEEEclEPSB_.exit.i.i.i
	jmp	LBB22_11
LBB22_11:                               ## %_ZNSt3__110unique_ptrINS_11__tree_nodeINS_12__value_typeIiNS_12basic_stringIcNS_11char_traitsIcEENS_9allocatorIcEEEEEEPvEENS_22__tree_node_destructorINS6_ISB_EEEEED1Ev.exit
	jmp	LBB22_12
LBB22_12:
	movq	-1248(%rbp), %rax       ## 8-byte Reload
	addq	$1264, %rsp             ## imm = 0x4F0
	popq	%rbx
	popq	%r14
	popq	%rbp
	retq
	.cfi_endproc

	.globl	__ZNSt3__16__treeINS_12__value_typeIiNS_12basic_stringIcNS_11char_traitsIcEENS_9allocatorIcEEEEEENS_19__map_value_compareIiS8_NS_4lessIiEELb1EEENS5_IS8_EEE20__node_insert_uniqueEPNS_11__tree_nodeIS8_PvEE
	.weak_def_can_be_hidden	__ZNSt3__16__treeINS_12__value_typeIiNS_12basic_stringIcNS_11char_traitsIcEENS_9allocatorIcEEEEEENS_19__map_value_compareIiS8_NS_4lessIiEELb1EEENS5_IS8_EEE20__node_insert_uniqueEPNS_11__tree_nodeIS8_PvEE
	.align	4, 0x90
__ZNSt3__16__treeINS_12__value_typeIiNS_12basic_stringIcNS_11char_traitsIcEENS_9allocatorIcEEEEEENS_19__map_value_compareIiS8_NS_4lessIiEELb1EEENS5_IS8_EEE20__node_insert_uniqueEPNS_11__tree_nodeIS8_PvEE: ## @_ZNSt3__16__treeINS_12__value_typeIiNS_12basic_stringIcNS_11char_traitsIcEENS_9allocatorIcEEEEEENS_19__map_value_compareIiS8_NS_4lessIiEELb1EEENS5_IS8_EEE20__node_insert_uniqueEPNS_11__tree_nodeIS8_PvEE
	.cfi_startproc
## BB#0:
	pushq	%rbp
Ltmp140:
	.cfi_def_cfa_offset 16
Ltmp141:
	.cfi_offset %rbp, -16
	movq	%rsp, %rbp
Ltmp142:
	.cfi_def_cfa_register %rbp
	subq	$192, %rsp
	leaq	-136(%rbp), %rax
	movq	%rdi, -120(%rbp)
	movq	%rsi, -128(%rbp)
	movq	-120(%rbp), %rsi
	movq	-128(%rbp), %rdi
	addq	$32, %rdi
	movq	%rdi, -176(%rbp)        ## 8-byte Spill
	movq	%rsi, %rdi
	movq	%rsi, -184(%rbp)        ## 8-byte Spill
	movq	%rax, %rsi
	movq	-176(%rbp), %rdx        ## 8-byte Reload
	callq	__ZNSt3__16__treeINS_12__value_typeIiNS_12basic_stringIcNS_11char_traitsIcEENS_9allocatorIcEEEEEENS_19__map_value_compareIiS8_NS_4lessIiEELb1EEENS5_IS8_EEE12__find_equalIS8_EERPNS_16__tree_node_baseIPvEESK_RKT_
	movq	%rax, -144(%rbp)
	movq	-144(%rbp), %rax
	movq	(%rax), %rax
	movq	%rax, -152(%rbp)
	movb	$0, -153(%rbp)
	movq	-144(%rbp), %rax
	cmpq	$0, (%rax)
	jne	LBB23_2
## BB#1:
	movq	-136(%rbp), %rsi
	movq	-144(%rbp), %rdx
	movq	-128(%rbp), %rax
	movq	-184(%rbp), %rdi        ## 8-byte Reload
	movq	%rax, %rcx
	callq	__ZNSt3__16__treeINS_12__value_typeIiNS_12basic_stringIcNS_11char_traitsIcEENS_9allocatorIcEEEEEENS_19__map_value_compareIiS8_NS_4lessIiEELb1EEENS5_IS8_EEE16__insert_node_atEPNS_16__tree_node_baseIPvEERSI_SI_
	movq	-128(%rbp), %rax
	movq	%rax, -152(%rbp)
	movb	$1, -153(%rbp)
LBB23_2:
	movq	-152(%rbp), %rax
	leaq	-168(%rbp), %rcx
	movq	%rcx, -88(%rbp)
	movq	%rax, -96(%rbp)
	movq	-88(%rbp), %rdx
	movq	%rdx, -72(%rbp)
	movq	%rax, -80(%rbp)
	movq	-72(%rbp), %rdx
	movq	%rax, (%rdx)
	leaq	-112(%rbp), %rax
	movq	%rax, -48(%rbp)
	movq	%rcx, -56(%rbp)
	leaq	-153(%rbp), %rax
	movq	%rax, -64(%rbp)
	movq	-48(%rbp), %rcx
	movq	-56(%rbp), %rdx
	movq	%rcx, -24(%rbp)
	movq	%rdx, -32(%rbp)
	movq	%rax, -40(%rbp)
	movq	-24(%rbp), %rax
	movq	-32(%rbp), %rcx
	movq	%rcx, -16(%rbp)
	movq	(%rcx), %rcx
	movq	%rcx, (%rax)
	movq	-40(%rbp), %rcx
	movq	%rcx, -8(%rbp)
	movb	(%rcx), %sil
	andb	$1, %sil
	movb	%sil, 8(%rax)
	movq	-112(%rbp), %rax
	movb	-104(%rbp), %dl
	addq	$192, %rsp
	popq	%rbp
	retq
	.cfi_endproc

	.globl	__ZNSt3__16__treeINS_12__value_typeIiNS_12basic_stringIcNS_11char_traitsIcEENS_9allocatorIcEEEEEENS_19__map_value_compareIiS8_NS_4lessIiEELb1EEENS5_IS8_EEE12__find_equalIS8_EERPNS_16__tree_node_baseIPvEESK_RKT_
	.weak_def_can_be_hidden	__ZNSt3__16__treeINS_12__value_typeIiNS_12basic_stringIcNS_11char_traitsIcEENS_9allocatorIcEEEEEENS_19__map_value_compareIiS8_NS_4lessIiEELb1EEENS5_IS8_EEE12__find_equalIS8_EERPNS_16__tree_node_baseIPvEESK_RKT_
	.align	4, 0x90
__ZNSt3__16__treeINS_12__value_typeIiNS_12basic_stringIcNS_11char_traitsIcEENS_9allocatorIcEEEEEENS_19__map_value_compareIiS8_NS_4lessIiEELb1EEENS5_IS8_EEE12__find_equalIS8_EERPNS_16__tree_node_baseIPvEESK_RKT_: ## @_ZNSt3__16__treeINS_12__value_typeIiNS_12basic_stringIcNS_11char_traitsIcEENS_9allocatorIcEEEEEENS_19__map_value_compareIiS8_NS_4lessIiEELb1EEENS5_IS8_EEE12__find_equalIS8_EERPNS_16__tree_node_baseIPvEESK_RKT_
	.cfi_startproc
## BB#0:
	pushq	%rbp
Ltmp143:
	.cfi_def_cfa_offset 16
Ltmp144:
	.cfi_offset %rbp, -16
	movq	%rsp, %rbp
Ltmp145:
	.cfi_def_cfa_register %rbp
	subq	$152, %rsp
	movq	%rdi, -248(%rbp)
	movq	%rsi, -256(%rbp)
	movq	%rdx, -264(%rbp)
	movq	-248(%rbp), %rdx
	movq	%rdx, -232(%rbp)
	movq	-232(%rbp), %rsi
	movq	%rsi, -224(%rbp)
	movq	-224(%rbp), %rsi
	addq	$8, %rsi
	movq	%rsi, -216(%rbp)
	movq	-216(%rbp), %rsi
	movq	%rsi, -208(%rbp)
	movq	-208(%rbp), %rsi
	movq	%rsi, -200(%rbp)
	movq	-200(%rbp), %rsi
	movq	%rsi, -192(%rbp)
	movq	-192(%rbp), %rsi
	movq	(%rsi), %rsi
	movq	%rsi, -272(%rbp)
	cmpq	$0, -272(%rbp)
	movq	%rdx, -280(%rbp)        ## 8-byte Spill
	je	LBB24_15
## BB#1:
	jmp	LBB24_2
LBB24_2:                                ## =>This Inner Loop Header: Depth=1
	movq	-280(%rbp), %rax        ## 8-byte Reload
	movq	%rax, -24(%rbp)
	movq	-24(%rbp), %rcx
	addq	$16, %rcx
	movq	%rcx, -16(%rbp)
	movq	-16(%rbp), %rcx
	movq	%rcx, -8(%rbp)
	movq	-8(%rbp), %rcx
	movq	-264(%rbp), %rdx
	movq	-272(%rbp), %rsi
	addq	$32, %rsi
	movq	%rcx, -56(%rbp)
	movq	%rdx, -64(%rbp)
	movq	%rsi, -72(%rbp)
	movq	-56(%rbp), %rcx
	movq	-64(%rbp), %rdx
	movq	-72(%rbp), %rsi
	movq	%rcx, -32(%rbp)
	movq	%rdx, -40(%rbp)
	movq	%rsi, -48(%rbp)
	movq	-40(%rbp), %rcx
	movl	(%rcx), %edi
	movq	-48(%rbp), %rcx
	cmpl	(%rcx), %edi
	jge	LBB24_7
## BB#3:                                ##   in Loop: Header=BB24_2 Depth=1
	movq	-272(%rbp), %rax
	cmpq	$0, (%rax)
	je	LBB24_5
## BB#4:                                ##   in Loop: Header=BB24_2 Depth=1
	movq	-272(%rbp), %rax
	movq	(%rax), %rax
	movq	%rax, -272(%rbp)
	jmp	LBB24_6
LBB24_5:
	movq	-272(%rbp), %rax
	movq	-256(%rbp), %rcx
	movq	%rax, (%rcx)
	movq	-256(%rbp), %rax
	movq	(%rax), %rax
	movq	%rax, -240(%rbp)
	jmp	LBB24_16
LBB24_6:                                ##   in Loop: Header=BB24_2 Depth=1
	jmp	LBB24_14
LBB24_7:                                ##   in Loop: Header=BB24_2 Depth=1
	movq	-280(%rbp), %rax        ## 8-byte Reload
	movq	%rax, -96(%rbp)
	movq	-96(%rbp), %rcx
	addq	$16, %rcx
	movq	%rcx, -88(%rbp)
	movq	-88(%rbp), %rcx
	movq	%rcx, -80(%rbp)
	movq	-80(%rbp), %rcx
	movq	-272(%rbp), %rdx
	addq	$32, %rdx
	movq	-264(%rbp), %rsi
	movq	%rcx, -128(%rbp)
	movq	%rdx, -136(%rbp)
	movq	%rsi, -144(%rbp)
	movq	-128(%rbp), %rcx
	movq	-136(%rbp), %rdx
	movq	-144(%rbp), %rsi
	movq	%rcx, -104(%rbp)
	movq	%rdx, -112(%rbp)
	movq	%rsi, -120(%rbp)
	movq	-112(%rbp), %rcx
	movl	(%rcx), %edi
	movq	-120(%rbp), %rcx
	cmpl	(%rcx), %edi
	jge	LBB24_12
## BB#8:                                ##   in Loop: Header=BB24_2 Depth=1
	movq	-272(%rbp), %rax
	cmpq	$0, 8(%rax)
	je	LBB24_10
## BB#9:                                ##   in Loop: Header=BB24_2 Depth=1
	movq	-272(%rbp), %rax
	movq	8(%rax), %rax
	movq	%rax, -272(%rbp)
	jmp	LBB24_11
LBB24_10:
	movq	-272(%rbp), %rax
	movq	-256(%rbp), %rcx
	movq	%rax, (%rcx)
	movq	-256(%rbp), %rax
	movq	(%rax), %rax
	addq	$8, %rax
	movq	%rax, -240(%rbp)
	jmp	LBB24_16
LBB24_11:                               ##   in Loop: Header=BB24_2 Depth=1
	jmp	LBB24_13
LBB24_12:
	movq	-272(%rbp), %rax
	movq	-256(%rbp), %rcx
	movq	%rax, (%rcx)
	movq	-256(%rbp), %rax
	movq	%rax, -240(%rbp)
	jmp	LBB24_16
LBB24_13:                               ##   in Loop: Header=BB24_2 Depth=1
	jmp	LBB24_14
LBB24_14:                               ##   in Loop: Header=BB24_2 Depth=1
	jmp	LBB24_2
LBB24_15:
	movq	-280(%rbp), %rax        ## 8-byte Reload
	movq	%rax, -184(%rbp)
	movq	-184(%rbp), %rcx
	addq	$8, %rcx
	movq	%rcx, -176(%rbp)
	movq	-176(%rbp), %rcx
	movq	%rcx, -168(%rbp)
	movq	-168(%rbp), %rcx
	movq	%rcx, -160(%rbp)
	movq	-160(%rbp), %rcx
	movq	%rcx, -152(%rbp)
	movq	-152(%rbp), %rcx
	movq	-256(%rbp), %rdx
	movq	%rcx, (%rdx)
	movq	-256(%rbp), %rcx
	movq	(%rcx), %rcx
	movq	%rcx, -240(%rbp)
LBB24_16:
	movq	-240(%rbp), %rax
	addq	$152, %rsp
	popq	%rbp
	retq
	.cfi_endproc

	.globl	__ZNSt3__16__treeINS_12__value_typeIiNS_12basic_stringIcNS_11char_traitsIcEENS_9allocatorIcEEEEEENS_19__map_value_compareIiS8_NS_4lessIiEELb1EEENS5_IS8_EEE16__insert_node_atEPNS_16__tree_node_baseIPvEERSI_SI_
	.weak_def_can_be_hidden	__ZNSt3__16__treeINS_12__value_typeIiNS_12basic_stringIcNS_11char_traitsIcEENS_9allocatorIcEEEEEENS_19__map_value_compareIiS8_NS_4lessIiEELb1EEENS5_IS8_EEE16__insert_node_atEPNS_16__tree_node_baseIPvEERSI_SI_
	.align	4, 0x90
__ZNSt3__16__treeINS_12__value_typeIiNS_12basic_stringIcNS_11char_traitsIcEENS_9allocatorIcEEEEEENS_19__map_value_compareIiS8_NS_4lessIiEELb1EEENS5_IS8_EEE16__insert_node_atEPNS_16__tree_node_baseIPvEERSI_SI_: ## @_ZNSt3__16__treeINS_12__value_typeIiNS_12basic_stringIcNS_11char_traitsIcEENS_9allocatorIcEEEEEENS_19__map_value_compareIiS8_NS_4lessIiEELb1EEENS5_IS8_EEE16__insert_node_atEPNS_16__tree_node_baseIPvEERSI_SI_
	.cfi_startproc
## BB#0:
	pushq	%rbp
Ltmp146:
	.cfi_def_cfa_offset 16
Ltmp147:
	.cfi_offset %rbp, -16
	movq	%rsp, %rbp
Ltmp148:
	.cfi_def_cfa_register %rbp
	subq	$128, %rsp
	movq	%rdi, -96(%rbp)
	movq	%rsi, -104(%rbp)
	movq	%rdx, -112(%rbp)
	movq	%rcx, -120(%rbp)
	movq	-96(%rbp), %rcx
	movq	-120(%rbp), %rdx
	movq	$0, (%rdx)
	movq	-120(%rbp), %rdx
	movq	$0, 8(%rdx)
	movq	-104(%rbp), %rdx
	movq	-120(%rbp), %rsi
	movq	%rdx, 16(%rsi)
	movq	-120(%rbp), %rdx
	movq	-112(%rbp), %rsi
	movq	%rdx, (%rsi)
	movq	%rcx, -88(%rbp)
	movq	-88(%rbp), %rdx
	movq	(%rdx), %rdx
	cmpq	$0, (%rdx)
	movq	%rcx, -128(%rbp)        ## 8-byte Spill
	je	LBB25_2
## BB#1:
	movq	-128(%rbp), %rax        ## 8-byte Reload
	movq	%rax, -56(%rbp)
	movq	-56(%rbp), %rcx
	movq	(%rcx), %rcx
	movq	(%rcx), %rcx
	movq	%rax, -8(%rbp)
	movq	-8(%rbp), %rdx
	movq	%rcx, (%rdx)
LBB25_2:
	movq	-128(%rbp), %rax        ## 8-byte Reload
	movq	%rax, -48(%rbp)
	movq	-48(%rbp), %rcx
	addq	$8, %rcx
	movq	%rcx, -40(%rbp)
	movq	-40(%rbp), %rcx
	movq	%rcx, -32(%rbp)
	movq	-32(%rbp), %rcx
	movq	%rcx, -24(%rbp)
	movq	-24(%rbp), %rcx
	movq	%rcx, -16(%rbp)
	movq	-16(%rbp), %rcx
	movq	(%rcx), %rdi
	movq	-112(%rbp), %rcx
	movq	(%rcx), %rsi
	callq	__ZNSt3__127__tree_balance_after_insertIPNS_16__tree_node_baseIPvEEEEvT_S5_
	movq	-128(%rbp), %rax        ## 8-byte Reload
	movq	%rax, -80(%rbp)
	movq	-80(%rbp), %rcx
	addq	$16, %rcx
	movq	%rcx, -72(%rbp)
	movq	-72(%rbp), %rcx
	movq	%rcx, -64(%rbp)
	movq	-64(%rbp), %rcx
	movq	(%rcx), %rsi
	addq	$1, %rsi
	movq	%rsi, (%rcx)
	addq	$128, %rsp
	popq	%rbp
	retq
	.cfi_endproc

	.globl	__ZNSt3__127__tree_balance_after_insertIPNS_16__tree_node_baseIPvEEEEvT_S5_
	.weak_def_can_be_hidden	__ZNSt3__127__tree_balance_after_insertIPNS_16__tree_node_baseIPvEEEEvT_S5_
	.align	4, 0x90
__ZNSt3__127__tree_balance_after_insertIPNS_16__tree_node_baseIPvEEEEvT_S5_: ## @_ZNSt3__127__tree_balance_after_insertIPNS_16__tree_node_baseIPvEEEEvT_S5_
	.cfi_startproc
## BB#0:
	pushq	%rbp
Ltmp149:
	.cfi_def_cfa_offset 16
Ltmp150:
	.cfi_offset %rbp, -16
	movq	%rsp, %rbp
Ltmp151:
	.cfi_def_cfa_register %rbp
	subq	$64, %rsp
	movq	%rdi, -32(%rbp)
	movq	%rsi, -40(%rbp)
	movq	-40(%rbp), %rsi
	cmpq	-32(%rbp), %rsi
	sete	%al
	movq	-40(%rbp), %rsi
	andb	$1, %al
	movb	%al, 24(%rsi)
LBB26_1:                                ## =>This Inner Loop Header: Depth=1
	xorl	%eax, %eax
	movb	%al, %cl
	movq	-40(%rbp), %rdx
	cmpq	-32(%rbp), %rdx
	movb	%cl, -57(%rbp)          ## 1-byte Spill
	je	LBB26_3
## BB#2:                                ##   in Loop: Header=BB26_1 Depth=1
	movq	-40(%rbp), %rax
	movq	16(%rax), %rax
	movb	24(%rax), %cl
	xorb	$1, %cl
	movb	%cl, -57(%rbp)          ## 1-byte Spill
LBB26_3:                                ##   in Loop: Header=BB26_1 Depth=1
	movb	-57(%rbp), %al          ## 1-byte Reload
	testb	$1, %al
	jne	LBB26_4
	jmp	LBB26_20
LBB26_4:                                ##   in Loop: Header=BB26_1 Depth=1
	movq	-40(%rbp), %rax
	movq	16(%rax), %rax
	movq	%rax, -24(%rbp)
	movq	-24(%rbp), %rax
	movq	-24(%rbp), %rcx
	movq	16(%rcx), %rcx
	cmpq	(%rcx), %rax
	jne	LBB26_12
## BB#5:                                ##   in Loop: Header=BB26_1 Depth=1
	movq	-40(%rbp), %rax
	movq	16(%rax), %rax
	movq	16(%rax), %rax
	movq	8(%rax), %rax
	movq	%rax, -48(%rbp)
	cmpq	$0, -48(%rbp)
	je	LBB26_8
## BB#6:                                ##   in Loop: Header=BB26_1 Depth=1
	movq	-48(%rbp), %rax
	testb	$1, 24(%rax)
	jne	LBB26_8
## BB#7:                                ##   in Loop: Header=BB26_1 Depth=1
	movq	-40(%rbp), %rax
	movq	16(%rax), %rax
	movq	%rax, -40(%rbp)
	movq	-40(%rbp), %rax
	movb	$1, 24(%rax)
	movq	-40(%rbp), %rax
	movq	16(%rax), %rax
	movq	%rax, -40(%rbp)
	movq	-40(%rbp), %rax
	cmpq	-32(%rbp), %rax
	sete	%cl
	movq	-40(%rbp), %rax
	andb	$1, %cl
	movb	%cl, 24(%rax)
	movq	-48(%rbp), %rax
	movb	$1, 24(%rax)
	jmp	LBB26_11
LBB26_8:
	movq	-40(%rbp), %rax
	movq	%rax, -16(%rbp)
	movq	-16(%rbp), %rax
	movq	-16(%rbp), %rcx
	movq	16(%rcx), %rcx
	cmpq	(%rcx), %rax
	je	LBB26_10
## BB#9:
	movq	-40(%rbp), %rax
	movq	16(%rax), %rax
	movq	%rax, -40(%rbp)
	movq	-40(%rbp), %rdi
	callq	__ZNSt3__118__tree_left_rotateIPNS_16__tree_node_baseIPvEEEEvT_
LBB26_10:
	movq	-40(%rbp), %rax
	movq	16(%rax), %rax
	movq	%rax, -40(%rbp)
	movq	-40(%rbp), %rax
	movb	$1, 24(%rax)
	movq	-40(%rbp), %rax
	movq	16(%rax), %rax
	movq	%rax, -40(%rbp)
	movq	-40(%rbp), %rax
	movb	$0, 24(%rax)
	movq	-40(%rbp), %rdi
	callq	__ZNSt3__119__tree_right_rotateIPNS_16__tree_node_baseIPvEEEEvT_
	jmp	LBB26_20
LBB26_11:                               ##   in Loop: Header=BB26_1 Depth=1
	jmp	LBB26_19
LBB26_12:                               ##   in Loop: Header=BB26_1 Depth=1
	movq	-40(%rbp), %rax
	movq	16(%rax), %rax
	movq	16(%rax), %rax
	movq	(%rax), %rax
	movq	%rax, -56(%rbp)
	cmpq	$0, -56(%rbp)
	je	LBB26_15
## BB#13:                               ##   in Loop: Header=BB26_1 Depth=1
	movq	-56(%rbp), %rax
	testb	$1, 24(%rax)
	jne	LBB26_15
## BB#14:                               ##   in Loop: Header=BB26_1 Depth=1
	movq	-40(%rbp), %rax
	movq	16(%rax), %rax
	movq	%rax, -40(%rbp)
	movq	-40(%rbp), %rax
	movb	$1, 24(%rax)
	movq	-40(%rbp), %rax
	movq	16(%rax), %rax
	movq	%rax, -40(%rbp)
	movq	-40(%rbp), %rax
	cmpq	-32(%rbp), %rax
	sete	%cl
	movq	-40(%rbp), %rax
	andb	$1, %cl
	movb	%cl, 24(%rax)
	movq	-56(%rbp), %rax
	movb	$1, 24(%rax)
	jmp	LBB26_18
LBB26_15:
	movq	-40(%rbp), %rax
	movq	%rax, -8(%rbp)
	movq	-8(%rbp), %rax
	movq	-8(%rbp), %rcx
	movq	16(%rcx), %rcx
	cmpq	(%rcx), %rax
	jne	LBB26_17
## BB#16:
	movq	-40(%rbp), %rax
	movq	16(%rax), %rax
	movq	%rax, -40(%rbp)
	movq	-40(%rbp), %rdi
	callq	__ZNSt3__119__tree_right_rotateIPNS_16__tree_node_baseIPvEEEEvT_
LBB26_17:
	movq	-40(%rbp), %rax
	movq	16(%rax), %rax
	movq	%rax, -40(%rbp)
	movq	-40(%rbp), %rax
	movb	$1, 24(%rax)
	movq	-40(%rbp), %rax
	movq	16(%rax), %rax
	movq	%rax, -40(%rbp)
	movq	-40(%rbp), %rax
	movb	$0, 24(%rax)
	movq	-40(%rbp), %rdi
	callq	__ZNSt3__118__tree_left_rotateIPNS_16__tree_node_baseIPvEEEEvT_
	jmp	LBB26_20
LBB26_18:                               ##   in Loop: Header=BB26_1 Depth=1
	jmp	LBB26_19
LBB26_19:                               ##   in Loop: Header=BB26_1 Depth=1
	jmp	LBB26_1
LBB26_20:
	addq	$64, %rsp
	popq	%rbp
	retq
	.cfi_endproc

	.globl	__ZNSt3__118__tree_left_rotateIPNS_16__tree_node_baseIPvEEEEvT_
	.weak_def_can_be_hidden	__ZNSt3__118__tree_left_rotateIPNS_16__tree_node_baseIPvEEEEvT_
	.align	4, 0x90
__ZNSt3__118__tree_left_rotateIPNS_16__tree_node_baseIPvEEEEvT_: ## @_ZNSt3__118__tree_left_rotateIPNS_16__tree_node_baseIPvEEEEvT_
	.cfi_startproc
## BB#0:
	pushq	%rbp
Ltmp152:
	.cfi_def_cfa_offset 16
Ltmp153:
	.cfi_offset %rbp, -16
	movq	%rsp, %rbp
Ltmp154:
	.cfi_def_cfa_register %rbp
	movq	%rdi, -16(%rbp)
	movq	-16(%rbp), %rdi
	movq	8(%rdi), %rdi
	movq	%rdi, -24(%rbp)
	movq	-24(%rbp), %rdi
	movq	(%rdi), %rdi
	movq	-16(%rbp), %rax
	movq	%rdi, 8(%rax)
	movq	-16(%rbp), %rax
	cmpq	$0, 8(%rax)
	je	LBB27_2
## BB#1:
	movq	-16(%rbp), %rax
	movq	-16(%rbp), %rcx
	movq	8(%rcx), %rcx
	movq	%rax, 16(%rcx)
LBB27_2:
	movq	-16(%rbp), %rax
	movq	16(%rax), %rax
	movq	-24(%rbp), %rcx
	movq	%rax, 16(%rcx)
	movq	-16(%rbp), %rax
	movq	%rax, -8(%rbp)
	movq	-8(%rbp), %rax
	movq	-8(%rbp), %rcx
	movq	16(%rcx), %rcx
	cmpq	(%rcx), %rax
	jne	LBB27_4
## BB#3:
	movq	-24(%rbp), %rax
	movq	-16(%rbp), %rcx
	movq	16(%rcx), %rcx
	movq	%rax, (%rcx)
	jmp	LBB27_5
LBB27_4:
	movq	-24(%rbp), %rax
	movq	-16(%rbp), %rcx
	movq	16(%rcx), %rcx
	movq	%rax, 8(%rcx)
LBB27_5:
	movq	-16(%rbp), %rax
	movq	-24(%rbp), %rcx
	movq	%rax, (%rcx)
	movq	-24(%rbp), %rax
	movq	-16(%rbp), %rcx
	movq	%rax, 16(%rcx)
	popq	%rbp
	retq
	.cfi_endproc

	.globl	__ZNSt3__119__tree_right_rotateIPNS_16__tree_node_baseIPvEEEEvT_
	.weak_def_can_be_hidden	__ZNSt3__119__tree_right_rotateIPNS_16__tree_node_baseIPvEEEEvT_
	.align	4, 0x90
__ZNSt3__119__tree_right_rotateIPNS_16__tree_node_baseIPvEEEEvT_: ## @_ZNSt3__119__tree_right_rotateIPNS_16__tree_node_baseIPvEEEEvT_
	.cfi_startproc
## BB#0:
	pushq	%rbp
Ltmp155:
	.cfi_def_cfa_offset 16
Ltmp156:
	.cfi_offset %rbp, -16
	movq	%rsp, %rbp
Ltmp157:
	.cfi_def_cfa_register %rbp
	movq	%rdi, -16(%rbp)
	movq	-16(%rbp), %rdi
	movq	(%rdi), %rdi
	movq	%rdi, -24(%rbp)
	movq	-24(%rbp), %rdi
	movq	8(%rdi), %rdi
	movq	-16(%rbp), %rax
	movq	%rdi, (%rax)
	movq	-16(%rbp), %rax
	cmpq	$0, (%rax)
	je	LBB28_2
## BB#1:
	movq	-16(%rbp), %rax
	movq	-16(%rbp), %rcx
	movq	(%rcx), %rcx
	movq	%rax, 16(%rcx)
LBB28_2:
	movq	-16(%rbp), %rax
	movq	16(%rax), %rax
	movq	-24(%rbp), %rcx
	movq	%rax, 16(%rcx)
	movq	-16(%rbp), %rax
	movq	%rax, -8(%rbp)
	movq	-8(%rbp), %rax
	movq	-8(%rbp), %rcx
	movq	16(%rcx), %rcx
	cmpq	(%rcx), %rax
	jne	LBB28_4
## BB#3:
	movq	-24(%rbp), %rax
	movq	-16(%rbp), %rcx
	movq	16(%rcx), %rcx
	movq	%rax, (%rcx)
	jmp	LBB28_5
LBB28_4:
	movq	-24(%rbp), %rax
	movq	-16(%rbp), %rcx
	movq	16(%rcx), %rcx
	movq	%rax, 8(%rcx)
LBB28_5:
	movq	-16(%rbp), %rax
	movq	-24(%rbp), %rcx
	movq	%rax, 8(%rcx)
	movq	-24(%rbp), %rax
	movq	-16(%rbp), %rcx
	movq	%rax, 16(%rcx)
	popq	%rbp
	retq
	.cfi_endproc

	.globl	__ZNSt3__16__treeINS_12__value_typeIiNS_12basic_stringIcNS_11char_traitsIcEENS_9allocatorIcEEEEEENS_19__map_value_compareIiS8_NS_4lessIiEELb1EEENS5_IS8_EEE15__insert_uniqueINS_4pairIiPKcEEEENSG_INS_15__tree_iteratorIS8_PNS_11__tree_nodeIS8_PvEElEEbEEOT_
	.weak_def_can_be_hidden	__ZNSt3__16__treeINS_12__value_typeIiNS_12basic_stringIcNS_11char_traitsIcEENS_9allocatorIcEEEEEENS_19__map_value_compareIiS8_NS_4lessIiEELb1EEENS5_IS8_EEE15__insert_uniqueINS_4pairIiPKcEEEENSG_INS_15__tree_iteratorIS8_PNS_11__tree_nodeIS8_PvEElEEbEEOT_
	.align	4, 0x90
__ZNSt3__16__treeINS_12__value_typeIiNS_12basic_stringIcNS_11char_traitsIcEENS_9allocatorIcEEEEEENS_19__map_value_compareIiS8_NS_4lessIiEELb1EEENS5_IS8_EEE15__insert_uniqueINS_4pairIiPKcEEEENSG_INS_15__tree_iteratorIS8_PNS_11__tree_nodeIS8_PvEElEEbEEOT_: ## @_ZNSt3__16__treeINS_12__value_typeIiNS_12basic_stringIcNS_11char_traitsIcEENS_9allocatorIcEEEEEENS_19__map_value_compareIiS8_NS_4lessIiEELb1EEENS5_IS8_EEE15__insert_uniqueINS_4pairIiPKcEEEENSG_INS_15__tree_iteratorIS8_PNS_11__tree_nodeIS8_PvEElEEbEEOT_
Lfunc_begin29:
	.cfi_startproc
	.cfi_personality 155, ___gxx_personality_v0
	.cfi_lsda 16, Lexception29
## BB#0:
	pushq	%rbp
Ltmp161:
	.cfi_def_cfa_offset 16
Ltmp162:
	.cfi_offset %rbp, -16
	movq	%rsp, %rbp
Ltmp163:
	.cfi_def_cfa_register %rbp
	subq	$704, %rsp              ## imm = 0x2C0
	movq	%rdi, -584(%rbp)
	movq	%rsi, -592(%rbp)
	movq	-584(%rbp), %rdi
	movq	%rsi, -560(%rbp)
	leaq	-616(%rbp), %rax
	movq	%rdi, -640(%rbp)        ## 8-byte Spill
	movq	%rax, %rdi
	movq	-640(%rbp), %rcx        ## 8-byte Reload
	movq	%rsi, -648(%rbp)        ## 8-byte Spill
	movq	%rcx, %rsi
	movq	-648(%rbp), %rdx        ## 8-byte Reload
	movq	%rax, -656(%rbp)        ## 8-byte Spill
	callq	__ZNSt3__16__treeINS_12__value_typeIiNS_12basic_stringIcNS_11char_traitsIcEENS_9allocatorIcEEEEEENS_19__map_value_compareIiS8_NS_4lessIiEELb1EEENS5_IS8_EEE16__construct_nodeIJNS_4pairIiPKcEEEEENS_10unique_ptrINS_11__tree_nodeIS8_PvEENS_22__tree_node_destructorINS5_ISN_EEEEEEDpOT_
	movq	-656(%rbp), %rax        ## 8-byte Reload
	movq	%rax, -312(%rbp)
	movq	%rax, -304(%rbp)
	movq	%rax, -296(%rbp)
	movq	-616(%rbp), %rsi
Ltmp158:
	movq	-640(%rbp), %rdi        ## 8-byte Reload
	callq	__ZNSt3__16__treeINS_12__value_typeIiNS_12basic_stringIcNS_11char_traitsIcEENS_9allocatorIcEEEEEENS_19__map_value_compareIiS8_NS_4lessIiEELb1EEENS5_IS8_EEE20__node_insert_uniqueEPNS_11__tree_nodeIS8_PvEE
Ltmp159:
	movb	%dl, -657(%rbp)         ## 1-byte Spill
	movq	%rax, -672(%rbp)        ## 8-byte Spill
	jmp	LBB29_1
LBB29_1:
	movq	-672(%rbp), %rax        ## 8-byte Reload
	movq	%rax, -576(%rbp)
	movb	-657(%rbp), %cl         ## 1-byte Reload
	movb	%cl, -568(%rbp)
	testb	$1, -568(%rbp)
	je	LBB29_10
## BB#2:
	leaq	-616(%rbp), %rax
	movq	%rax, -280(%rbp)
	movq	-280(%rbp), %rax
	movq	%rax, -272(%rbp)
	movq	-272(%rbp), %rcx
	movq	%rcx, -264(%rbp)
	movq	-264(%rbp), %rcx
	movq	(%rcx), %rcx
	movq	%rcx, -288(%rbp)
	movq	%rax, -256(%rbp)
	movq	-256(%rbp), %rax
	movq	%rax, -248(%rbp)
	movq	-248(%rbp), %rax
	movq	$0, (%rax)
	jmp	LBB29_10
LBB29_3:
Ltmp160:
	leaq	-616(%rbp), %rcx
	movl	%edx, %esi
	movq	%rax, -624(%rbp)
	movl	%esi, -628(%rbp)
	movq	%rcx, -240(%rbp)
	movq	-240(%rbp), %rax
	movq	%rax, -232(%rbp)
	movq	-232(%rbp), %rax
	movq	%rax, -208(%rbp)
	movq	$0, -216(%rbp)
	movq	-208(%rbp), %rax
	movq	%rax, -200(%rbp)
	movq	-200(%rbp), %rcx
	movq	%rcx, -192(%rbp)
	movq	-192(%rbp), %rcx
	movq	(%rcx), %rcx
	movq	%rcx, -224(%rbp)
	movq	-216(%rbp), %rcx
	movq	%rax, -32(%rbp)
	movq	-32(%rbp), %rdx
	movq	%rdx, -24(%rbp)
	movq	-24(%rbp), %rdx
	movq	%rcx, (%rdx)
	cmpq	$0, -224(%rbp)
	movq	%rax, -680(%rbp)        ## 8-byte Spill
	je	LBB29_9
## BB#4:
	movq	-680(%rbp), %rax        ## 8-byte Reload
	movq	%rax, -16(%rbp)
	movq	-16(%rbp), %rcx
	movq	%rcx, -8(%rbp)
	movq	-8(%rbp), %rcx
	addq	$8, %rcx
	movq	-224(%rbp), %rdx
	movq	%rcx, -176(%rbp)
	movq	%rdx, -184(%rbp)
	movq	-176(%rbp), %rcx
	testb	$1, 8(%rcx)
	movq	%rcx, -688(%rbp)        ## 8-byte Spill
	je	LBB29_6
## BB#5:
	movq	-688(%rbp), %rax        ## 8-byte Reload
	movq	(%rax), %rcx
	movq	-184(%rbp), %rdx
	addq	$32, %rdx
	movq	%rdx, -168(%rbp)
	movq	-168(%rbp), %rdx
	movq	%rcx, -136(%rbp)
	movq	%rdx, -144(%rbp)
	movq	-136(%rbp), %rcx
	movq	-144(%rbp), %rdx
	movq	%rcx, -120(%rbp)
	movq	%rdx, -128(%rbp)
	movq	-128(%rbp), %rcx
	movq	%rcx, -104(%rbp)
	movq	-104(%rbp), %rcx
	movq	%rcx, -96(%rbp)
	movq	-96(%rbp), %rcx
	movq	%rcx, %rdi
	callq	__ZNSt3__14pairIKiNS_12basic_stringIcNS_11char_traitsIcEENS_9allocatorIcEEEEED1Ev
LBB29_6:
	cmpq	$0, -184(%rbp)
	je	LBB29_8
## BB#7:
	movq	-688(%rbp), %rax        ## 8-byte Reload
	movq	(%rax), %rcx
	movq	-184(%rbp), %rdx
	movq	%rcx, -72(%rbp)
	movq	%rdx, -80(%rbp)
	movq	$1, -88(%rbp)
	movq	-72(%rbp), %rcx
	movq	-80(%rbp), %rdx
	movq	-88(%rbp), %rsi
	movq	%rcx, -48(%rbp)
	movq	%rdx, -56(%rbp)
	movq	%rsi, -64(%rbp)
	movq	-56(%rbp), %rcx
	movq	%rcx, -40(%rbp)
	movq	-40(%rbp), %rdi
	callq	__ZdlPv
LBB29_8:                                ## %_ZNSt3__122__tree_node_destructorINS_9allocatorINS_11__tree_nodeINS_12__value_typeIiNS_12basic_stringIcNS_11char_traitsIcEENS1_IcEEEEEEPvEEEEEclEPSB_.exit.i.i.i2
	jmp	LBB29_9
LBB29_9:                                ## %_ZNSt3__110unique_ptrINS_11__tree_nodeINS_12__value_typeIiNS_12basic_stringIcNS_11char_traitsIcEENS_9allocatorIcEEEEEEPvEENS_22__tree_node_destructorINS6_ISB_EEEEED1Ev.exit3
	jmp	LBB29_17
LBB29_10:
	leaq	-616(%rbp), %rax
	movl	$1, -632(%rbp)
	movq	%rax, -552(%rbp)
	movq	-552(%rbp), %rax
	movq	%rax, -544(%rbp)
	movq	-544(%rbp), %rax
	movq	%rax, -520(%rbp)
	movq	$0, -528(%rbp)
	movq	-520(%rbp), %rax
	movq	%rax, -512(%rbp)
	movq	-512(%rbp), %rcx
	movq	%rcx, -504(%rbp)
	movq	-504(%rbp), %rcx
	movq	(%rcx), %rcx
	movq	%rcx, -536(%rbp)
	movq	-528(%rbp), %rcx
	movq	%rax, -344(%rbp)
	movq	-344(%rbp), %rdx
	movq	%rdx, -336(%rbp)
	movq	-336(%rbp), %rdx
	movq	%rcx, (%rdx)
	cmpq	$0, -536(%rbp)
	movq	%rax, -696(%rbp)        ## 8-byte Spill
	je	LBB29_16
## BB#11:
	movq	-696(%rbp), %rax        ## 8-byte Reload
	movq	%rax, -328(%rbp)
	movq	-328(%rbp), %rcx
	movq	%rcx, -320(%rbp)
	movq	-320(%rbp), %rcx
	addq	$8, %rcx
	movq	-536(%rbp), %rdx
	movq	%rcx, -488(%rbp)
	movq	%rdx, -496(%rbp)
	movq	-488(%rbp), %rcx
	testb	$1, 8(%rcx)
	movq	%rcx, -704(%rbp)        ## 8-byte Spill
	je	LBB29_13
## BB#12:
	movq	-704(%rbp), %rax        ## 8-byte Reload
	movq	(%rax), %rcx
	movq	-496(%rbp), %rdx
	addq	$32, %rdx
	movq	%rdx, -480(%rbp)
	movq	-480(%rbp), %rdx
	movq	%rcx, -448(%rbp)
	movq	%rdx, -456(%rbp)
	movq	-448(%rbp), %rcx
	movq	-456(%rbp), %rdx
	movq	%rcx, -432(%rbp)
	movq	%rdx, -440(%rbp)
	movq	-440(%rbp), %rcx
	movq	%rcx, -416(%rbp)
	movq	-416(%rbp), %rcx
	movq	%rcx, -408(%rbp)
	movq	-408(%rbp), %rcx
	movq	%rcx, %rdi
	callq	__ZNSt3__14pairIKiNS_12basic_stringIcNS_11char_traitsIcEENS_9allocatorIcEEEEED1Ev
LBB29_13:
	cmpq	$0, -496(%rbp)
	je	LBB29_15
## BB#14:
	movq	-704(%rbp), %rax        ## 8-byte Reload
	movq	(%rax), %rcx
	movq	-496(%rbp), %rdx
	movq	%rcx, -384(%rbp)
	movq	%rdx, -392(%rbp)
	movq	$1, -400(%rbp)
	movq	-384(%rbp), %rcx
	movq	-392(%rbp), %rdx
	movq	-400(%rbp), %rsi
	movq	%rcx, -360(%rbp)
	movq	%rdx, -368(%rbp)
	movq	%rsi, -376(%rbp)
	movq	-368(%rbp), %rcx
	movq	%rcx, -352(%rbp)
	movq	-352(%rbp), %rdi
	callq	__ZdlPv
LBB29_15:                               ## %_ZNSt3__122__tree_node_destructorINS_9allocatorINS_11__tree_nodeINS_12__value_typeIiNS_12basic_stringIcNS_11char_traitsIcEENS1_IcEEEEEEPvEEEEEclEPSB_.exit.i.i.i
	jmp	LBB29_16
LBB29_16:                               ## %_ZNSt3__110unique_ptrINS_11__tree_nodeINS_12__value_typeIiNS_12basic_stringIcNS_11char_traitsIcEENS_9allocatorIcEEEEEEPvEENS_22__tree_node_destructorINS6_ISB_EEEEED1Ev.exit
	movq	-576(%rbp), %rax
	movb	-568(%rbp), %dl
	addq	$704, %rsp              ## imm = 0x2C0
	popq	%rbp
	retq
LBB29_17:
	movq	-624(%rbp), %rdi
	callq	__Unwind_Resume
Lfunc_end29:
	.cfi_endproc
	.section	__TEXT,__gcc_except_tab
	.align	2
GCC_except_table29:
Lexception29:
	.byte	255                     ## @LPStart Encoding = omit
	.byte	155                     ## @TType Encoding = indirect pcrel sdata4
	.byte	41                      ## @TType base offset
	.byte	3                       ## Call site Encoding = udata4
	.byte	39                      ## Call site table length
Lset44 = Lfunc_begin29-Lfunc_begin29    ## >> Call Site 1 <<
	.long	Lset44
Lset45 = Ltmp158-Lfunc_begin29          ##   Call between Lfunc_begin29 and Ltmp158
	.long	Lset45
	.long	0                       ##     has no landing pad
	.byte	0                       ##   On action: cleanup
Lset46 = Ltmp158-Lfunc_begin29          ## >> Call Site 2 <<
	.long	Lset46
Lset47 = Ltmp159-Ltmp158                ##   Call between Ltmp158 and Ltmp159
	.long	Lset47
Lset48 = Ltmp160-Lfunc_begin29          ##     jumps to Ltmp160
	.long	Lset48
	.byte	0                       ##   On action: cleanup
Lset49 = Ltmp159-Lfunc_begin29          ## >> Call Site 3 <<
	.long	Lset49
Lset50 = Lfunc_end29-Ltmp159            ##   Call between Ltmp159 and Lfunc_end29
	.long	Lset50
	.long	0                       ##     has no landing pad
	.byte	0                       ##   On action: cleanup
	.align	2

	.section	__TEXT,__textcoal_nt,coalesced,pure_instructions
	.globl	__ZNSt3__16__treeINS_12__value_typeIiNS_12basic_stringIcNS_11char_traitsIcEENS_9allocatorIcEEEEEENS_19__map_value_compareIiS8_NS_4lessIiEELb1EEENS5_IS8_EEE16__construct_nodeIJNS_4pairIiPKcEEEEENS_10unique_ptrINS_11__tree_nodeIS8_PvEENS_22__tree_node_destructorINS5_ISN_EEEEEEDpOT_
	.weak_def_can_be_hidden	__ZNSt3__16__treeINS_12__value_typeIiNS_12basic_stringIcNS_11char_traitsIcEENS_9allocatorIcEEEEEENS_19__map_value_compareIiS8_NS_4lessIiEELb1EEENS5_IS8_EEE16__construct_nodeIJNS_4pairIiPKcEEEEENS_10unique_ptrINS_11__tree_nodeIS8_PvEENS_22__tree_node_destructorINS5_ISN_EEEEEEDpOT_
	.align	4, 0x90
__ZNSt3__16__treeINS_12__value_typeIiNS_12basic_stringIcNS_11char_traitsIcEENS_9allocatorIcEEEEEENS_19__map_value_compareIiS8_NS_4lessIiEELb1EEENS5_IS8_EEE16__construct_nodeIJNS_4pairIiPKcEEEEENS_10unique_ptrINS_11__tree_nodeIS8_PvEENS_22__tree_node_destructorINS5_ISN_EEEEEEDpOT_: ## @_ZNSt3__16__treeINS_12__value_typeIiNS_12basic_stringIcNS_11char_traitsIcEENS_9allocatorIcEEEEEENS_19__map_value_compareIiS8_NS_4lessIiEELb1EEENS5_IS8_EEE16__construct_nodeIJNS_4pairIiPKcEEEEENS_10unique_ptrINS_11__tree_nodeIS8_PvEENS_22__tree_node_destructorINS5_ISN_EEEEEEDpOT_
Lfunc_begin30:
	.cfi_startproc
	.cfi_personality 155, ___gxx_personality_v0
	.cfi_lsda 16, Lexception30
## BB#0:
	pushq	%rbp
Ltmp169:
	.cfi_def_cfa_offset 16
Ltmp170:
	.cfi_offset %rbp, -16
	movq	%rsp, %rbp
Ltmp171:
	.cfi_def_cfa_register %rbp
	subq	$1312, %rsp             ## imm = 0x520
	movq	%rdi, %rax
	movq	%rsi, -1176(%rbp)
	movq	%rdx, -1184(%rbp)
	movq	-1176(%rbp), %rdx
	movq	%rdx, -1168(%rbp)
	addq	$8, %rdx
	movq	%rdx, -1160(%rbp)
	movq	%rdx, -1152(%rbp)
	movq	%rdx, -1192(%rbp)
	movb	$0, -1193(%rbp)
	movq	-1192(%rbp), %rdx
	movq	%rdx, -896(%rbp)
	movq	$1, -904(%rbp)
	movq	-896(%rbp), %rdx
	movq	%rdx, -872(%rbp)
	movq	$1, -880(%rbp)
	movq	$0, -888(%rbp)
	movq	-880(%rbp), %rdx
	shlq	$6, %rdx
	movq	%rdx, -864(%rbp)
	movq	%rdi, -1240(%rbp)       ## 8-byte Spill
	movq	%rdx, %rdi
	movq	%rax, -1248(%rbp)       ## 8-byte Spill
	callq	__Znwm
	movq	-1192(%rbp), %rdx
	leaq	-1216(%rbp), %rsi
	movq	%rsi, -840(%rbp)
	movq	%rdx, -848(%rbp)
	movb	$0, -849(%rbp)
	movq	-840(%rbp), %rdx
	movq	-848(%rbp), %rdi
	movq	%rdx, -816(%rbp)
	movq	%rdi, -824(%rbp)
	movb	$0, -825(%rbp)
	movq	-816(%rbp), %rdx
	movq	-824(%rbp), %rdi
	movq	%rdi, (%rdx)
	movb	-825(%rbp), %cl
	andb	$1, %cl
	movb	%cl, 8(%rdx)
	movq	-1240(%rbp), %rdx       ## 8-byte Reload
	movq	%rdx, -792(%rbp)
	movq	%rax, -800(%rbp)
	movq	%rsi, -808(%rbp)
	movq	-792(%rbp), %rax
	movq	-800(%rbp), %rdi
	movq	%rax, -752(%rbp)
	movq	%rdi, -760(%rbp)
	movq	%rsi, -768(%rbp)
	movq	-752(%rbp), %rax
	movq	-760(%rbp), %rdi
	movq	%rsi, -744(%rbp)
	movq	-1216(%rbp), %rsi
	movq	-1208(%rbp), %r8
	movq	%r8, -776(%rbp)
	movq	%rsi, -784(%rbp)
	movq	-784(%rbp), %rsi
	movb	-776(%rbp), %cl
	movq	%rsi, -720(%rbp)
	movb	%cl, -712(%rbp)
	movq	%rax, -728(%rbp)
	movq	%rdi, -736(%rbp)
	movq	-728(%rbp), %rax
	movq	-720(%rbp), %rsi
	movb	-712(%rbp), %cl
	movq	%rsi, -672(%rbp)
	movb	%cl, -664(%rbp)
	movq	%rax, -680(%rbp)
	movq	%rdi, -688(%rbp)
	movq	-680(%rbp), %rax
	leaq	-688(%rbp), %rsi
	movq	%rsi, -656(%rbp)
	movq	-688(%rbp), %rsi
	leaq	-672(%rbp), %rdi
	movq	%rdi, -600(%rbp)
	movq	-672(%rbp), %rdi
	movq	-664(%rbp), %r8
	movq	%r8, -696(%rbp)
	movq	%rdi, -704(%rbp)
	movq	-704(%rbp), %rdi
	movb	-696(%rbp), %cl
	movq	%rdi, -632(%rbp)
	movb	%cl, -624(%rbp)
	movq	%rax, -640(%rbp)
	movq	%rsi, -648(%rbp)
	movq	-640(%rbp), %rax
	leaq	-648(%rbp), %rsi
	movq	%rsi, -616(%rbp)
	movq	-648(%rbp), %rsi
	movq	%rsi, (%rax)
	leaq	-632(%rbp), %rsi
	movq	%rsi, -608(%rbp)
	movq	-632(%rbp), %rsi
	movq	-624(%rbp), %rdi
	movq	%rdi, 16(%rax)
	movq	%rsi, 8(%rax)
	movq	-1192(%rbp), %rax
	movq	%rdx, -352(%rbp)
	movq	%rdx, -344(%rbp)
	movq	%rdx, -336(%rbp)
	movq	(%rdx), %rsi
	addq	$32, %rsi
	movq	%rsi, -328(%rbp)
	movq	-1184(%rbp), %rdi
	movq	%rdi, -8(%rbp)
	movq	%rax, -264(%rbp)
	movq	%rsi, -272(%rbp)
	movq	%rdi, -280(%rbp)
	movq	-264(%rbp), %rax
	movq	-272(%rbp), %rsi
	movq	%rdi, -256(%rbp)
	movq	%rax, -232(%rbp)
	movq	%rsi, -240(%rbp)
	movq	%rdi, -248(%rbp)
	movq	-232(%rbp), %rax
	movq	-240(%rbp), %rsi
	movq	%rdi, -216(%rbp)
	movq	%rax, -192(%rbp)
	movq	%rsi, -200(%rbp)
	movq	%rdi, -208(%rbp)
	movq	-200(%rbp), %rax
	movq	%rdi, -184(%rbp)
	movq	%rax, -168(%rbp)
	movq	%rdi, -176(%rbp)
	movq	-168(%rbp), %rax
	movq	%rax, -152(%rbp)
	movq	%rdi, -160(%rbp)
	movq	-152(%rbp), %rax
	movq	%rdi, -144(%rbp)
	movq	%rax, -120(%rbp)
	movq	%rdi, -128(%rbp)
	movq	$0, -136(%rbp)
	movq	-120(%rbp), %rax
	movq	-128(%rbp), %rsi
	movq	%rax, -96(%rbp)
	movq	%rsi, -104(%rbp)
	movq	$0, -112(%rbp)
	movq	-96(%rbp), %rax
	movq	-104(%rbp), %rsi
	movq	%rsi, -88(%rbp)
	movl	(%rsi), %r9d
	movl	%r9d, (%rax)
	addq	$8, %rax
	movq	-104(%rbp), %rsi
	movq	%rsi, %rdi
	addq	$8, %rdi
	movq	%rdi, -16(%rbp)
	movq	8(%rsi), %rsi
	movq	%rax, -72(%rbp)
	movq	%rsi, -80(%rbp)
	movq	-72(%rbp), %rax
	movq	%rax, -56(%rbp)
	movq	%rsi, -64(%rbp)
	movq	-56(%rbp), %rax
	movq	%rax, -48(%rbp)
	movq	%rax, -40(%rbp)
	movq	%rax, -32(%rbp)
	movq	%rax, -24(%rbp)
	movq	-64(%rbp), %rsi
Ltmp164:
	movq	%rsi, %rdi
	movq	%rax, -1256(%rbp)       ## 8-byte Spill
	movq	%rsi, -1264(%rbp)       ## 8-byte Spill
	callq	__ZNSt3__111char_traitsIcE6lengthEPKc
Ltmp165:
	movq	%rax, -1272(%rbp)       ## 8-byte Spill
	jmp	LBB30_1
LBB30_1:                                ## %.noexc
Ltmp166:
	movq	-1256(%rbp), %rdi       ## 8-byte Reload
	movq	-1264(%rbp), %rsi       ## 8-byte Reload
	movq	-1272(%rbp), %rdx       ## 8-byte Reload
	callq	__ZNSt3__112basic_stringIcNS_11char_traitsIcEENS_9allocatorIcEEE6__initEPKcm
Ltmp167:
	jmp	LBB30_2
LBB30_2:                                ## %_ZNSt3__116allocator_traitsINS_9allocatorINS_11__tree_nodeINS_12__value_typeIiNS_12basic_stringIcNS_11char_traitsIcEENS1_IcEEEEEEPvEEEEE9constructIS9_JNS_4pairIiPKcEEEEEvRSC_PT_DpOT0_.exit
	jmp	LBB30_3
LBB30_3:
	movq	-1240(%rbp), %rax       ## 8-byte Reload
	movq	%rax, -320(%rbp)
	movq	-320(%rbp), %rcx
	movq	%rcx, -312(%rbp)
	movq	-312(%rbp), %rcx
	movq	%rcx, -304(%rbp)
	movq	-304(%rbp), %rcx
	movb	$1, 16(%rcx)
	movb	$1, -1193(%rbp)
	movl	$1, -1232(%rbp)
	testb	$1, -1193(%rbp)
	jne	LBB30_18
	jmp	LBB30_11
LBB30_4:
Ltmp168:
	movl	%edx, %ecx
	movq	%rax, -1224(%rbp)
	movl	%ecx, -1228(%rbp)
	movq	-1240(%rbp), %rax       ## 8-byte Reload
	movq	%rax, -592(%rbp)
	movq	-592(%rbp), %rdx
	movq	%rdx, -584(%rbp)
	movq	-584(%rbp), %rdx
	movq	%rdx, -560(%rbp)
	movq	$0, -568(%rbp)
	movq	-560(%rbp), %rdx
	movq	%rdx, -552(%rbp)
	movq	-552(%rbp), %rsi
	movq	%rsi, -544(%rbp)
	movq	-544(%rbp), %rsi
	movq	(%rsi), %rsi
	movq	%rsi, -576(%rbp)
	movq	-568(%rbp), %rsi
	movq	%rdx, -384(%rbp)
	movq	-384(%rbp), %rdi
	movq	%rdi, -376(%rbp)
	movq	-376(%rbp), %rdi
	movq	%rsi, (%rdi)
	cmpq	$0, -576(%rbp)
	movq	%rdx, -1280(%rbp)       ## 8-byte Spill
	je	LBB30_10
## BB#5:
	movq	-1280(%rbp), %rax       ## 8-byte Reload
	movq	%rax, -368(%rbp)
	movq	-368(%rbp), %rcx
	movq	%rcx, -360(%rbp)
	movq	-360(%rbp), %rcx
	addq	$8, %rcx
	movq	-576(%rbp), %rdx
	movq	%rcx, -528(%rbp)
	movq	%rdx, -536(%rbp)
	movq	-528(%rbp), %rcx
	testb	$1, 8(%rcx)
	movq	%rcx, -1288(%rbp)       ## 8-byte Spill
	je	LBB30_7
## BB#6:
	movq	-1288(%rbp), %rax       ## 8-byte Reload
	movq	(%rax), %rcx
	movq	-536(%rbp), %rdx
	addq	$32, %rdx
	movq	%rdx, -520(%rbp)
	movq	-520(%rbp), %rdx
	movq	%rcx, -488(%rbp)
	movq	%rdx, -496(%rbp)
	movq	-488(%rbp), %rcx
	movq	-496(%rbp), %rdx
	movq	%rcx, -472(%rbp)
	movq	%rdx, -480(%rbp)
	movq	-480(%rbp), %rcx
	movq	%rcx, -456(%rbp)
	movq	-456(%rbp), %rcx
	movq	%rcx, -448(%rbp)
	movq	-448(%rbp), %rcx
	movq	%rcx, %rdi
	callq	__ZNSt3__14pairIKiNS_12basic_stringIcNS_11char_traitsIcEENS_9allocatorIcEEEEED1Ev
LBB30_7:
	cmpq	$0, -536(%rbp)
	je	LBB30_9
## BB#8:
	movq	-1288(%rbp), %rax       ## 8-byte Reload
	movq	(%rax), %rcx
	movq	-536(%rbp), %rdx
	movq	%rcx, -424(%rbp)
	movq	%rdx, -432(%rbp)
	movq	$1, -440(%rbp)
	movq	-424(%rbp), %rcx
	movq	-432(%rbp), %rdx
	movq	-440(%rbp), %rsi
	movq	%rcx, -400(%rbp)
	movq	%rdx, -408(%rbp)
	movq	%rsi, -416(%rbp)
	movq	-408(%rbp), %rcx
	movq	%rcx, -392(%rbp)
	movq	-392(%rbp), %rdi
	callq	__ZdlPv
LBB30_9:                                ## %_ZNSt3__122__tree_node_destructorINS_9allocatorINS_11__tree_nodeINS_12__value_typeIiNS_12basic_stringIcNS_11char_traitsIcEENS1_IcEEEEEEPvEEEEEclEPSB_.exit.i.i.i2
	jmp	LBB30_10
LBB30_10:                               ## %_ZNSt3__110unique_ptrINS_11__tree_nodeINS_12__value_typeIiNS_12basic_stringIcNS_11char_traitsIcEENS_9allocatorIcEEEEEEPvEENS_22__tree_node_destructorINS6_ISB_EEEEED1Ev.exit3
	jmp	LBB30_19
LBB30_11:
	movq	-1240(%rbp), %rax       ## 8-byte Reload
	movq	%rax, -1144(%rbp)
	movq	-1144(%rbp), %rcx
	movq	%rcx, -1136(%rbp)
	movq	-1136(%rbp), %rcx
	movq	%rcx, -1112(%rbp)
	movq	$0, -1120(%rbp)
	movq	-1112(%rbp), %rcx
	movq	%rcx, -1104(%rbp)
	movq	-1104(%rbp), %rdx
	movq	%rdx, -1096(%rbp)
	movq	-1096(%rbp), %rdx
	movq	(%rdx), %rdx
	movq	%rdx, -1128(%rbp)
	movq	-1120(%rbp), %rdx
	movq	%rcx, -936(%rbp)
	movq	-936(%rbp), %rsi
	movq	%rsi, -928(%rbp)
	movq	-928(%rbp), %rsi
	movq	%rdx, (%rsi)
	cmpq	$0, -1128(%rbp)
	movq	%rcx, -1296(%rbp)       ## 8-byte Spill
	je	LBB30_17
## BB#12:
	movq	-1296(%rbp), %rax       ## 8-byte Reload
	movq	%rax, -920(%rbp)
	movq	-920(%rbp), %rcx
	movq	%rcx, -912(%rbp)
	movq	-912(%rbp), %rcx
	addq	$8, %rcx
	movq	-1128(%rbp), %rdx
	movq	%rcx, -1080(%rbp)
	movq	%rdx, -1088(%rbp)
	movq	-1080(%rbp), %rcx
	testb	$1, 8(%rcx)
	movq	%rcx, -1304(%rbp)       ## 8-byte Spill
	je	LBB30_14
## BB#13:
	movq	-1304(%rbp), %rax       ## 8-byte Reload
	movq	(%rax), %rcx
	movq	-1088(%rbp), %rdx
	addq	$32, %rdx
	movq	%rdx, -1072(%rbp)
	movq	-1072(%rbp), %rdx
	movq	%rcx, -1040(%rbp)
	movq	%rdx, -1048(%rbp)
	movq	-1040(%rbp), %rcx
	movq	-1048(%rbp), %rdx
	movq	%rcx, -1024(%rbp)
	movq	%rdx, -1032(%rbp)
	movq	-1032(%rbp), %rcx
	movq	%rcx, -1008(%rbp)
	movq	-1008(%rbp), %rcx
	movq	%rcx, -1000(%rbp)
	movq	-1000(%rbp), %rcx
	movq	%rcx, %rdi
	callq	__ZNSt3__14pairIKiNS_12basic_stringIcNS_11char_traitsIcEENS_9allocatorIcEEEEED1Ev
LBB30_14:
	cmpq	$0, -1088(%rbp)
	je	LBB30_16
## BB#15:
	movq	-1304(%rbp), %rax       ## 8-byte Reload
	movq	(%rax), %rcx
	movq	-1088(%rbp), %rdx
	movq	%rcx, -976(%rbp)
	movq	%rdx, -984(%rbp)
	movq	$1, -992(%rbp)
	movq	-976(%rbp), %rcx
	movq	-984(%rbp), %rdx
	movq	-992(%rbp), %rsi
	movq	%rcx, -952(%rbp)
	movq	%rdx, -960(%rbp)
	movq	%rsi, -968(%rbp)
	movq	-960(%rbp), %rcx
	movq	%rcx, -944(%rbp)
	movq	-944(%rbp), %rdi
	callq	__ZdlPv
LBB30_16:                               ## %_ZNSt3__122__tree_node_destructorINS_9allocatorINS_11__tree_nodeINS_12__value_typeIiNS_12basic_stringIcNS_11char_traitsIcEENS1_IcEEEEEEPvEEEEEclEPSB_.exit.i.i.i
	jmp	LBB30_17
LBB30_17:                               ## %_ZNSt3__110unique_ptrINS_11__tree_nodeINS_12__value_typeIiNS_12basic_stringIcNS_11char_traitsIcEENS_9allocatorIcEEEEEEPvEENS_22__tree_node_destructorINS6_ISB_EEEEED1Ev.exit
	jmp	LBB30_18
LBB30_18:
	movq	-1248(%rbp), %rax       ## 8-byte Reload
	addq	$1312, %rsp             ## imm = 0x520
	popq	%rbp
	retq
LBB30_19:
	movq	-1224(%rbp), %rdi
	callq	__Unwind_Resume
Lfunc_end30:
	.cfi_endproc
	.section	__TEXT,__gcc_except_tab
	.align	2
GCC_except_table30:
Lexception30:
	.byte	255                     ## @LPStart Encoding = omit
	.byte	155                     ## @TType Encoding = indirect pcrel sdata4
	.byte	41                      ## @TType base offset
	.byte	3                       ## Call site Encoding = udata4
	.byte	39                      ## Call site table length
Lset51 = Lfunc_begin30-Lfunc_begin30    ## >> Call Site 1 <<
	.long	Lset51
Lset52 = Ltmp164-Lfunc_begin30          ##   Call between Lfunc_begin30 and Ltmp164
	.long	Lset52
	.long	0                       ##     has no landing pad
	.byte	0                       ##   On action: cleanup
Lset53 = Ltmp164-Lfunc_begin30          ## >> Call Site 2 <<
	.long	Lset53
Lset54 = Ltmp167-Ltmp164                ##   Call between Ltmp164 and Ltmp167
	.long	Lset54
Lset55 = Ltmp168-Lfunc_begin30          ##     jumps to Ltmp168
	.long	Lset55
	.byte	0                       ##   On action: cleanup
Lset56 = Ltmp167-Lfunc_begin30          ## >> Call Site 3 <<
	.long	Lset56
Lset57 = Lfunc_end30-Ltmp167            ##   Call between Ltmp167 and Lfunc_end30
	.long	Lset57
	.long	0                       ##     has no landing pad
	.byte	0                       ##   On action: cleanup
	.align	2

	.section	__TEXT,__textcoal_nt,coalesced,pure_instructions
	.globl	__ZNSt3__16__treeINS_12__value_typeIiNS_12basic_stringIcNS_11char_traitsIcEENS_9allocatorIcEEEEEENS_19__map_value_compareIiS8_NS_4lessIiEELb1EEENS5_IS8_EEE15__insert_uniqueINS_4pairIiS7_EEEENSG_INS_15__tree_iteratorIS8_PNS_11__tree_nodeIS8_PvEElEEbEEOT_
	.weak_def_can_be_hidden	__ZNSt3__16__treeINS_12__value_typeIiNS_12basic_stringIcNS_11char_traitsIcEENS_9allocatorIcEEEEEENS_19__map_value_compareIiS8_NS_4lessIiEELb1EEENS5_IS8_EEE15__insert_uniqueINS_4pairIiS7_EEEENSG_INS_15__tree_iteratorIS8_PNS_11__tree_nodeIS8_PvEElEEbEEOT_
	.align	4, 0x90
__ZNSt3__16__treeINS_12__value_typeIiNS_12basic_stringIcNS_11char_traitsIcEENS_9allocatorIcEEEEEENS_19__map_value_compareIiS8_NS_4lessIiEELb1EEENS5_IS8_EEE15__insert_uniqueINS_4pairIiS7_EEEENSG_INS_15__tree_iteratorIS8_PNS_11__tree_nodeIS8_PvEElEEbEEOT_: ## @_ZNSt3__16__treeINS_12__value_typeIiNS_12basic_stringIcNS_11char_traitsIcEENS_9allocatorIcEEEEEENS_19__map_value_compareIiS8_NS_4lessIiEELb1EEENS5_IS8_EEE15__insert_uniqueINS_4pairIiS7_EEEENSG_INS_15__tree_iteratorIS8_PNS_11__tree_nodeIS8_PvEElEEbEEOT_
Lfunc_begin31:
	.cfi_startproc
	.cfi_personality 155, ___gxx_personality_v0
	.cfi_lsda 16, Lexception31
## BB#0:
	pushq	%rbp
Ltmp175:
	.cfi_def_cfa_offset 16
Ltmp176:
	.cfi_offset %rbp, -16
	movq	%rsp, %rbp
Ltmp177:
	.cfi_def_cfa_register %rbp
	subq	$704, %rsp              ## imm = 0x2C0
	movq	%rdi, -584(%rbp)
	movq	%rsi, -592(%rbp)
	movq	-584(%rbp), %rdi
	movq	%rsi, -560(%rbp)
	leaq	-616(%rbp), %rax
	movq	%rdi, -640(%rbp)        ## 8-byte Spill
	movq	%rax, %rdi
	movq	-640(%rbp), %rcx        ## 8-byte Reload
	movq	%rsi, -648(%rbp)        ## 8-byte Spill
	movq	%rcx, %rsi
	movq	-648(%rbp), %rdx        ## 8-byte Reload
	movq	%rax, -656(%rbp)        ## 8-byte Spill
	callq	__ZNSt3__16__treeINS_12__value_typeIiNS_12basic_stringIcNS_11char_traitsIcEENS_9allocatorIcEEEEEENS_19__map_value_compareIiS8_NS_4lessIiEELb1EEENS5_IS8_EEE16__construct_nodeIJNS_4pairIiS7_EEEEENS_10unique_ptrINS_11__tree_nodeIS8_PvEENS_22__tree_node_destructorINS5_ISL_EEEEEEDpOT_
	movq	-656(%rbp), %rax        ## 8-byte Reload
	movq	%rax, -312(%rbp)
	movq	%rax, -304(%rbp)
	movq	%rax, -296(%rbp)
	movq	-616(%rbp), %rsi
Ltmp172:
	movq	-640(%rbp), %rdi        ## 8-byte Reload
	callq	__ZNSt3__16__treeINS_12__value_typeIiNS_12basic_stringIcNS_11char_traitsIcEENS_9allocatorIcEEEEEENS_19__map_value_compareIiS8_NS_4lessIiEELb1EEENS5_IS8_EEE20__node_insert_uniqueEPNS_11__tree_nodeIS8_PvEE
Ltmp173:
	movb	%dl, -657(%rbp)         ## 1-byte Spill
	movq	%rax, -672(%rbp)        ## 8-byte Spill
	jmp	LBB31_1
LBB31_1:
	movq	-672(%rbp), %rax        ## 8-byte Reload
	movq	%rax, -576(%rbp)
	movb	-657(%rbp), %cl         ## 1-byte Reload
	movb	%cl, -568(%rbp)
	testb	$1, -568(%rbp)
	je	LBB31_10
## BB#2:
	leaq	-616(%rbp), %rax
	movq	%rax, -280(%rbp)
	movq	-280(%rbp), %rax
	movq	%rax, -272(%rbp)
	movq	-272(%rbp), %rcx
	movq	%rcx, -264(%rbp)
	movq	-264(%rbp), %rcx
	movq	(%rcx), %rcx
	movq	%rcx, -288(%rbp)
	movq	%rax, -256(%rbp)
	movq	-256(%rbp), %rax
	movq	%rax, -248(%rbp)
	movq	-248(%rbp), %rax
	movq	$0, (%rax)
	jmp	LBB31_10
LBB31_3:
Ltmp174:
	leaq	-616(%rbp), %rcx
	movl	%edx, %esi
	movq	%rax, -624(%rbp)
	movl	%esi, -628(%rbp)
	movq	%rcx, -240(%rbp)
	movq	-240(%rbp), %rax
	movq	%rax, -232(%rbp)
	movq	-232(%rbp), %rax
	movq	%rax, -208(%rbp)
	movq	$0, -216(%rbp)
	movq	-208(%rbp), %rax
	movq	%rax, -200(%rbp)
	movq	-200(%rbp), %rcx
	movq	%rcx, -192(%rbp)
	movq	-192(%rbp), %rcx
	movq	(%rcx), %rcx
	movq	%rcx, -224(%rbp)
	movq	-216(%rbp), %rcx
	movq	%rax, -32(%rbp)
	movq	-32(%rbp), %rdx
	movq	%rdx, -24(%rbp)
	movq	-24(%rbp), %rdx
	movq	%rcx, (%rdx)
	cmpq	$0, -224(%rbp)
	movq	%rax, -680(%rbp)        ## 8-byte Spill
	je	LBB31_9
## BB#4:
	movq	-680(%rbp), %rax        ## 8-byte Reload
	movq	%rax, -16(%rbp)
	movq	-16(%rbp), %rcx
	movq	%rcx, -8(%rbp)
	movq	-8(%rbp), %rcx
	addq	$8, %rcx
	movq	-224(%rbp), %rdx
	movq	%rcx, -176(%rbp)
	movq	%rdx, -184(%rbp)
	movq	-176(%rbp), %rcx
	testb	$1, 8(%rcx)
	movq	%rcx, -688(%rbp)        ## 8-byte Spill
	je	LBB31_6
## BB#5:
	movq	-688(%rbp), %rax        ## 8-byte Reload
	movq	(%rax), %rcx
	movq	-184(%rbp), %rdx
	addq	$32, %rdx
	movq	%rdx, -168(%rbp)
	movq	-168(%rbp), %rdx
	movq	%rcx, -136(%rbp)
	movq	%rdx, -144(%rbp)
	movq	-136(%rbp), %rcx
	movq	-144(%rbp), %rdx
	movq	%rcx, -120(%rbp)
	movq	%rdx, -128(%rbp)
	movq	-128(%rbp), %rcx
	movq	%rcx, -104(%rbp)
	movq	-104(%rbp), %rcx
	movq	%rcx, -96(%rbp)
	movq	-96(%rbp), %rcx
	movq	%rcx, %rdi
	callq	__ZNSt3__14pairIKiNS_12basic_stringIcNS_11char_traitsIcEENS_9allocatorIcEEEEED1Ev
LBB31_6:
	cmpq	$0, -184(%rbp)
	je	LBB31_8
## BB#7:
	movq	-688(%rbp), %rax        ## 8-byte Reload
	movq	(%rax), %rcx
	movq	-184(%rbp), %rdx
	movq	%rcx, -72(%rbp)
	movq	%rdx, -80(%rbp)
	movq	$1, -88(%rbp)
	movq	-72(%rbp), %rcx
	movq	-80(%rbp), %rdx
	movq	-88(%rbp), %rsi
	movq	%rcx, -48(%rbp)
	movq	%rdx, -56(%rbp)
	movq	%rsi, -64(%rbp)
	movq	-56(%rbp), %rcx
	movq	%rcx, -40(%rbp)
	movq	-40(%rbp), %rdi
	callq	__ZdlPv
LBB31_8:                                ## %_ZNSt3__122__tree_node_destructorINS_9allocatorINS_11__tree_nodeINS_12__value_typeIiNS_12basic_stringIcNS_11char_traitsIcEENS1_IcEEEEEEPvEEEEEclEPSB_.exit.i.i.i2
	jmp	LBB31_9
LBB31_9:                                ## %_ZNSt3__110unique_ptrINS_11__tree_nodeINS_12__value_typeIiNS_12basic_stringIcNS_11char_traitsIcEENS_9allocatorIcEEEEEEPvEENS_22__tree_node_destructorINS6_ISB_EEEEED1Ev.exit3
	jmp	LBB31_17
LBB31_10:
	leaq	-616(%rbp), %rax
	movl	$1, -632(%rbp)
	movq	%rax, -552(%rbp)
	movq	-552(%rbp), %rax
	movq	%rax, -544(%rbp)
	movq	-544(%rbp), %rax
	movq	%rax, -520(%rbp)
	movq	$0, -528(%rbp)
	movq	-520(%rbp), %rax
	movq	%rax, -512(%rbp)
	movq	-512(%rbp), %rcx
	movq	%rcx, -504(%rbp)
	movq	-504(%rbp), %rcx
	movq	(%rcx), %rcx
	movq	%rcx, -536(%rbp)
	movq	-528(%rbp), %rcx
	movq	%rax, -344(%rbp)
	movq	-344(%rbp), %rdx
	movq	%rdx, -336(%rbp)
	movq	-336(%rbp), %rdx
	movq	%rcx, (%rdx)
	cmpq	$0, -536(%rbp)
	movq	%rax, -696(%rbp)        ## 8-byte Spill
	je	LBB31_16
## BB#11:
	movq	-696(%rbp), %rax        ## 8-byte Reload
	movq	%rax, -328(%rbp)
	movq	-328(%rbp), %rcx
	movq	%rcx, -320(%rbp)
	movq	-320(%rbp), %rcx
	addq	$8, %rcx
	movq	-536(%rbp), %rdx
	movq	%rcx, -488(%rbp)
	movq	%rdx, -496(%rbp)
	movq	-488(%rbp), %rcx
	testb	$1, 8(%rcx)
	movq	%rcx, -704(%rbp)        ## 8-byte Spill
	je	LBB31_13
## BB#12:
	movq	-704(%rbp), %rax        ## 8-byte Reload
	movq	(%rax), %rcx
	movq	-496(%rbp), %rdx
	addq	$32, %rdx
	movq	%rdx, -480(%rbp)
	movq	-480(%rbp), %rdx
	movq	%rcx, -448(%rbp)
	movq	%rdx, -456(%rbp)
	movq	-448(%rbp), %rcx
	movq	-456(%rbp), %rdx
	movq	%rcx, -432(%rbp)
	movq	%rdx, -440(%rbp)
	movq	-440(%rbp), %rcx
	movq	%rcx, -416(%rbp)
	movq	-416(%rbp), %rcx
	movq	%rcx, -408(%rbp)
	movq	-408(%rbp), %rcx
	movq	%rcx, %rdi
	callq	__ZNSt3__14pairIKiNS_12basic_stringIcNS_11char_traitsIcEENS_9allocatorIcEEEEED1Ev
LBB31_13:
	cmpq	$0, -496(%rbp)
	je	LBB31_15
## BB#14:
	movq	-704(%rbp), %rax        ## 8-byte Reload
	movq	(%rax), %rcx
	movq	-496(%rbp), %rdx
	movq	%rcx, -384(%rbp)
	movq	%rdx, -392(%rbp)
	movq	$1, -400(%rbp)
	movq	-384(%rbp), %rcx
	movq	-392(%rbp), %rdx
	movq	-400(%rbp), %rsi
	movq	%rcx, -360(%rbp)
	movq	%rdx, -368(%rbp)
	movq	%rsi, -376(%rbp)
	movq	-368(%rbp), %rcx
	movq	%rcx, -352(%rbp)
	movq	-352(%rbp), %rdi
	callq	__ZdlPv
LBB31_15:                               ## %_ZNSt3__122__tree_node_destructorINS_9allocatorINS_11__tree_nodeINS_12__value_typeIiNS_12basic_stringIcNS_11char_traitsIcEENS1_IcEEEEEEPvEEEEEclEPSB_.exit.i.i.i
	jmp	LBB31_16
LBB31_16:                               ## %_ZNSt3__110unique_ptrINS_11__tree_nodeINS_12__value_typeIiNS_12basic_stringIcNS_11char_traitsIcEENS_9allocatorIcEEEEEEPvEENS_22__tree_node_destructorINS6_ISB_EEEEED1Ev.exit
	movq	-576(%rbp), %rax
	movb	-568(%rbp), %dl
	addq	$704, %rsp              ## imm = 0x2C0
	popq	%rbp
	retq
LBB31_17:
	movq	-624(%rbp), %rdi
	callq	__Unwind_Resume
Lfunc_end31:
	.cfi_endproc
	.section	__TEXT,__gcc_except_tab
	.align	2
GCC_except_table31:
Lexception31:
	.byte	255                     ## @LPStart Encoding = omit
	.byte	155                     ## @TType Encoding = indirect pcrel sdata4
	.byte	41                      ## @TType base offset
	.byte	3                       ## Call site Encoding = udata4
	.byte	39                      ## Call site table length
Lset58 = Lfunc_begin31-Lfunc_begin31    ## >> Call Site 1 <<
	.long	Lset58
Lset59 = Ltmp172-Lfunc_begin31          ##   Call between Lfunc_begin31 and Ltmp172
	.long	Lset59
	.long	0                       ##     has no landing pad
	.byte	0                       ##   On action: cleanup
Lset60 = Ltmp172-Lfunc_begin31          ## >> Call Site 2 <<
	.long	Lset60
Lset61 = Ltmp173-Ltmp172                ##   Call between Ltmp172 and Ltmp173
	.long	Lset61
Lset62 = Ltmp174-Lfunc_begin31          ##     jumps to Ltmp174
	.long	Lset62
	.byte	0                       ##   On action: cleanup
Lset63 = Ltmp173-Lfunc_begin31          ## >> Call Site 3 <<
	.long	Lset63
Lset64 = Lfunc_end31-Ltmp173            ##   Call between Ltmp173 and Lfunc_end31
	.long	Lset64
	.long	0                       ##     has no landing pad
	.byte	0                       ##   On action: cleanup
	.align	2

	.section	__TEXT,__textcoal_nt,coalesced,pure_instructions
	.globl	__ZNSt3__16__treeINS_12__value_typeIiNS_12basic_stringIcNS_11char_traitsIcEENS_9allocatorIcEEEEEENS_19__map_value_compareIiS8_NS_4lessIiEELb1EEENS5_IS8_EEE16__construct_nodeIJNS_4pairIiS7_EEEEENS_10unique_ptrINS_11__tree_nodeIS8_PvEENS_22__tree_node_destructorINS5_ISL_EEEEEEDpOT_
	.weak_def_can_be_hidden	__ZNSt3__16__treeINS_12__value_typeIiNS_12basic_stringIcNS_11char_traitsIcEENS_9allocatorIcEEEEEENS_19__map_value_compareIiS8_NS_4lessIiEELb1EEENS5_IS8_EEE16__construct_nodeIJNS_4pairIiS7_EEEEENS_10unique_ptrINS_11__tree_nodeIS8_PvEENS_22__tree_node_destructorINS5_ISL_EEEEEEDpOT_
	.align	4, 0x90
__ZNSt3__16__treeINS_12__value_typeIiNS_12basic_stringIcNS_11char_traitsIcEENS_9allocatorIcEEEEEENS_19__map_value_compareIiS8_NS_4lessIiEELb1EEENS5_IS8_EEE16__construct_nodeIJNS_4pairIiS7_EEEEENS_10unique_ptrINS_11__tree_nodeIS8_PvEENS_22__tree_node_destructorINS5_ISL_EEEEEEDpOT_: ## @_ZNSt3__16__treeINS_12__value_typeIiNS_12basic_stringIcNS_11char_traitsIcEENS_9allocatorIcEEEEEENS_19__map_value_compareIiS8_NS_4lessIiEELb1EEENS5_IS8_EEE16__construct_nodeIJNS_4pairIiS7_EEEEENS_10unique_ptrINS_11__tree_nodeIS8_PvEENS_22__tree_node_destructorINS5_ISL_EEEEEEDpOT_
	.cfi_startproc
## BB#0:
	pushq	%rbp
Ltmp178:
	.cfi_def_cfa_offset 16
Ltmp179:
	.cfi_offset %rbp, -16
	movq	%rsp, %rbp
Ltmp180:
	.cfi_def_cfa_register %rbp
	pushq	%r14
	pushq	%rbx
	subq	$1280, %rsp             ## imm = 0x500
Ltmp181:
	.cfi_offset %rbx, -32
Ltmp182:
	.cfi_offset %r14, -24
	movq	%rdi, %rax
	movq	%rsi, -1208(%rbp)
	movq	%rdx, -1216(%rbp)
	movq	-1208(%rbp), %rdx
	movq	%rdx, -1200(%rbp)
	movq	-1200(%rbp), %rdx
	addq	$8, %rdx
	movq	%rdx, -1192(%rbp)
	movq	-1192(%rbp), %rdx
	movq	%rdx, -1184(%rbp)
	movq	-1184(%rbp), %rdx
	movq	%rdx, -1224(%rbp)
	movb	$0, -1225(%rbp)
	movq	-1224(%rbp), %rdx
	movq	%rdx, -928(%rbp)
	movq	$1, -936(%rbp)
	movq	-928(%rbp), %rdx
	movq	-936(%rbp), %rsi
	movq	%rdx, -904(%rbp)
	movq	%rsi, -912(%rbp)
	movq	$0, -920(%rbp)
	movq	-912(%rbp), %rdx
	shlq	$6, %rdx
	movq	%rdx, -896(%rbp)
	movq	-896(%rbp), %rdx
	movq	%rdi, -1272(%rbp)       ## 8-byte Spill
	movq	%rdx, %rdi
	movq	%rax, -1280(%rbp)       ## 8-byte Spill
	callq	__Znwm
	leaq	-664(%rbp), %rdx
	leaq	-680(%rbp), %rsi
	leaq	-704(%rbp), %rdi
	leaq	-720(%rbp), %rcx
	leaq	-1248(%rbp), %r8
	movq	-1224(%rbp), %r9
	movq	%r8, -872(%rbp)
	movq	%r9, -880(%rbp)
	movb	$0, -881(%rbp)
	movq	-872(%rbp), %r9
	movb	-881(%rbp), %r10b
	movq	-880(%rbp), %r11
	movq	%r9, -848(%rbp)
	movq	%r11, -856(%rbp)
	andb	$1, %r10b
	movb	%r10b, -857(%rbp)
	movq	-848(%rbp), %r9
	movq	-856(%rbp), %r11
	movq	%r11, (%r9)
	movb	-857(%rbp), %r10b
	andb	$1, %r10b
	movb	%r10b, 8(%r9)
	movq	-1272(%rbp), %r9        ## 8-byte Reload
	movq	%r9, -824(%rbp)
	movq	%rax, -832(%rbp)
	movq	%r8, -840(%rbp)
	movq	-824(%rbp), %rax
	movq	-832(%rbp), %r8
	movq	-840(%rbp), %r11
	movq	%rax, -784(%rbp)
	movq	%r8, -792(%rbp)
	movq	%r11, -800(%rbp)
	movq	-784(%rbp), %rax
	movq	-792(%rbp), %r8
	movq	-800(%rbp), %r11
	movq	%r11, -776(%rbp)
	movq	-776(%rbp), %r11
	movq	(%r11), %rbx
	movq	%rbx, -816(%rbp)
	movq	8(%r11), %r11
	movq	%r11, -808(%rbp)
	movq	-816(%rbp), %r11
	movb	-808(%rbp), %r10b
	movq	%r11, -752(%rbp)
	movb	%r10b, -744(%rbp)
	movq	%rax, -760(%rbp)
	movq	%r8, -768(%rbp)
	movq	-760(%rbp), %rax
	movq	-768(%rbp), %r8
	movq	-752(%rbp), %r11
	movb	-744(%rbp), %r10b
	movq	%r11, -704(%rbp)
	movb	%r10b, -696(%rbp)
	movq	%rax, -712(%rbp)
	movq	%r8, -720(%rbp)
	movq	-712(%rbp), %rax
	movq	%rcx, -688(%rbp)
	movq	-688(%rbp), %rcx
	movq	(%rcx), %rcx
	movq	%rdi, -632(%rbp)
	movq	-632(%rbp), %rdi
	movq	(%rdi), %r8
	movq	%r8, -736(%rbp)
	movq	8(%rdi), %rdi
	movq	%rdi, -728(%rbp)
	movq	-736(%rbp), %rdi
	movb	-728(%rbp), %r10b
	movq	%rdi, -664(%rbp)
	movb	%r10b, -656(%rbp)
	movq	%rax, -672(%rbp)
	movq	%rcx, -680(%rbp)
	movq	-672(%rbp), %rax
	movq	%rsi, -648(%rbp)
	movq	-648(%rbp), %rcx
	movq	(%rcx), %rcx
	movq	%rcx, (%rax)
	movq	%rdx, -640(%rbp)
	movq	-640(%rbp), %rcx
	movq	(%rcx), %rdx
	movq	%rdx, 8(%rax)
	movq	8(%rcx), %rcx
	movq	%rcx, 16(%rax)
	movq	-1224(%rbp), %rax
	movq	%r9, -384(%rbp)
	movq	-384(%rbp), %rcx
	movq	%rcx, -376(%rbp)
	movq	-376(%rbp), %rcx
	movq	%rcx, -368(%rbp)
	movq	-368(%rbp), %rcx
	movq	(%rcx), %rcx
	addq	$32, %rcx
	movq	%rcx, -360(%rbp)
	movq	-360(%rbp), %rcx
	movq	-1216(%rbp), %rdx
	movq	%rdx, -24(%rbp)
	movq	-24(%rbp), %rdx
	movq	%rax, -296(%rbp)
	movq	%rcx, -304(%rbp)
	movq	%rdx, -312(%rbp)
	movq	-296(%rbp), %rax
	movq	-304(%rbp), %rcx
	movq	-312(%rbp), %rdx
	movq	%rdx, -288(%rbp)
	movq	-288(%rbp), %rdx
	movq	%rax, -264(%rbp)
	movq	%rcx, -272(%rbp)
	movq	%rdx, -280(%rbp)
	movq	-264(%rbp), %rax
	movq	-272(%rbp), %rcx
	movq	-280(%rbp), %rdx
	movq	%rdx, -248(%rbp)
	movq	-248(%rbp), %rdx
	movq	%rax, -224(%rbp)
	movq	%rcx, -232(%rbp)
	movq	%rdx, -240(%rbp)
	movq	-232(%rbp), %rax
	movq	-240(%rbp), %rcx
	movq	%rcx, -216(%rbp)
	movq	-216(%rbp), %rcx
	movq	%rax, -200(%rbp)
	movq	%rcx, -208(%rbp)
	movq	-200(%rbp), %rax
	movq	-208(%rbp), %rcx
	movq	%rax, -184(%rbp)
	movq	%rcx, -192(%rbp)
	movq	-184(%rbp), %rax
	movq	-192(%rbp), %rcx
	movq	%rcx, -176(%rbp)
	movq	-176(%rbp), %rcx
	movq	%rax, -152(%rbp)
	movq	%rcx, -160(%rbp)
	movq	$0, -168(%rbp)
	movq	-152(%rbp), %rax
	movq	-168(%rbp), %rcx
	movq	-160(%rbp), %rdx
	movq	%rax, -128(%rbp)
	movq	%rdx, -136(%rbp)
	movq	%rcx, -144(%rbp)
	movq	-128(%rbp), %rax
	movq	-136(%rbp), %rcx
	movq	%rcx, -120(%rbp)
	movq	-120(%rbp), %rcx
	movl	(%rcx), %r14d
	movl	%r14d, (%rax)
	addq	$8, %rax
	movq	-136(%rbp), %rcx
	addq	$8, %rcx
	movq	%rcx, -32(%rbp)
	movq	-32(%rbp), %rcx
	movq	%rax, -104(%rbp)
	movq	%rcx, -112(%rbp)
	movq	-104(%rbp), %rax
	movq	-112(%rbp), %rcx
	movq	%rax, -88(%rbp)
	movq	%rcx, -96(%rbp)
	movq	-88(%rbp), %rax
	movq	-96(%rbp), %rcx
	movq	%rcx, -80(%rbp)
	movq	-80(%rbp), %rcx
	movq	(%rcx), %rdx
	movq	%rdx, (%rax)
	movq	8(%rcx), %rdx
	movq	%rdx, 8(%rax)
	movq	16(%rcx), %rcx
	movq	%rcx, 16(%rax)
	movq	-96(%rbp), %rax
	movq	%rax, -56(%rbp)
	movq	-56(%rbp), %rax
	movq	%rax, -48(%rbp)
	movq	-48(%rbp), %rax
	movq	%rax, -40(%rbp)
	movq	-40(%rbp), %rax
	movq	%rax, -64(%rbp)
	movl	$0, -68(%rbp)
LBB32_1:                                ## =>This Inner Loop Header: Depth=1
	cmpl	$3, -68(%rbp)
	jae	LBB32_3
## BB#2:                                ##   in Loop: Header=BB32_1 Depth=1
	movl	-68(%rbp), %eax
	movl	%eax, %ecx
	movq	-64(%rbp), %rdx
	movq	$0, (%rdx,%rcx,8)
	movl	-68(%rbp), %eax
	addl	$1, %eax
	movl	%eax, -68(%rbp)
	jmp	LBB32_1
LBB32_3:                                ## %_ZNSt3__116allocator_traitsINS_9allocatorINS_11__tree_nodeINS_12__value_typeIiNS_12basic_stringIcNS_11char_traitsIcEENS1_IcEEEEEEPvEEEEE9constructIS9_JNS_4pairIiS8_EEEEEvRSC_PT_DpOT0_.exit
	jmp	LBB32_4
LBB32_4:
	movq	-1272(%rbp), %rax       ## 8-byte Reload
	movq	%rax, -352(%rbp)
	movq	-352(%rbp), %rcx
	movq	%rcx, -344(%rbp)
	movq	-344(%rbp), %rcx
	movq	%rcx, -336(%rbp)
	movq	-336(%rbp), %rcx
	movb	$1, 16(%rcx)
	movb	$1, -1225(%rbp)
	movl	$1, -1264(%rbp)
	testb	$1, -1225(%rbp)
	jne	LBB32_12
## BB#5:
	movq	-1272(%rbp), %rax       ## 8-byte Reload
	movq	%rax, -1176(%rbp)
	movq	-1176(%rbp), %rcx
	movq	%rcx, -1168(%rbp)
	movq	-1168(%rbp), %rcx
	movq	%rcx, -1144(%rbp)
	movq	$0, -1152(%rbp)
	movq	-1144(%rbp), %rcx
	movq	%rcx, -1136(%rbp)
	movq	-1136(%rbp), %rdx
	movq	%rdx, -1128(%rbp)
	movq	-1128(%rbp), %rdx
	movq	(%rdx), %rdx
	movq	%rdx, -1160(%rbp)
	movq	-1152(%rbp), %rdx
	movq	%rcx, -968(%rbp)
	movq	-968(%rbp), %rsi
	movq	%rsi, -960(%rbp)
	movq	-960(%rbp), %rsi
	movq	%rdx, (%rsi)
	cmpq	$0, -1160(%rbp)
	movq	%rcx, -1288(%rbp)       ## 8-byte Spill
	je	LBB32_11
## BB#6:
	movq	-1288(%rbp), %rax       ## 8-byte Reload
	movq	%rax, -952(%rbp)
	movq	-952(%rbp), %rcx
	movq	%rcx, -944(%rbp)
	movq	-944(%rbp), %rcx
	addq	$8, %rcx
	movq	-1160(%rbp), %rdx
	movq	%rcx, -1112(%rbp)
	movq	%rdx, -1120(%rbp)
	movq	-1112(%rbp), %rcx
	testb	$1, 8(%rcx)
	movq	%rcx, -1296(%rbp)       ## 8-byte Spill
	je	LBB32_8
## BB#7:
	movq	-1296(%rbp), %rax       ## 8-byte Reload
	movq	(%rax), %rcx
	movq	-1120(%rbp), %rdx
	addq	$32, %rdx
	movq	%rdx, -1104(%rbp)
	movq	-1104(%rbp), %rdx
	movq	%rcx, -1072(%rbp)
	movq	%rdx, -1080(%rbp)
	movq	-1072(%rbp), %rcx
	movq	-1080(%rbp), %rdx
	movq	%rcx, -1056(%rbp)
	movq	%rdx, -1064(%rbp)
	movq	-1064(%rbp), %rcx
	movq	%rcx, -1040(%rbp)
	movq	-1040(%rbp), %rcx
	movq	%rcx, -1032(%rbp)
	movq	-1032(%rbp), %rcx
	movq	%rcx, %rdi
	callq	__ZNSt3__14pairIKiNS_12basic_stringIcNS_11char_traitsIcEENS_9allocatorIcEEEEED1Ev
LBB32_8:
	cmpq	$0, -1120(%rbp)
	je	LBB32_10
## BB#9:
	movq	-1296(%rbp), %rax       ## 8-byte Reload
	movq	(%rax), %rcx
	movq	-1120(%rbp), %rdx
	movq	%rcx, -1008(%rbp)
	movq	%rdx, -1016(%rbp)
	movq	$1, -1024(%rbp)
	movq	-1008(%rbp), %rcx
	movq	-1016(%rbp), %rdx
	movq	-1024(%rbp), %rsi
	movq	%rcx, -984(%rbp)
	movq	%rdx, -992(%rbp)
	movq	%rsi, -1000(%rbp)
	movq	-992(%rbp), %rcx
	movq	%rcx, -976(%rbp)
	movq	-976(%rbp), %rdi
	callq	__ZdlPv
LBB32_10:                               ## %_ZNSt3__122__tree_node_destructorINS_9allocatorINS_11__tree_nodeINS_12__value_typeIiNS_12basic_stringIcNS_11char_traitsIcEENS1_IcEEEEEEPvEEEEEclEPSB_.exit.i.i.i
	jmp	LBB32_11
LBB32_11:                               ## %_ZNSt3__110unique_ptrINS_11__tree_nodeINS_12__value_typeIiNS_12basic_stringIcNS_11char_traitsIcEENS_9allocatorIcEEEEEEPvEENS_22__tree_node_destructorINS6_ISB_EEEEED1Ev.exit
	jmp	LBB32_12
LBB32_12:
	movq	-1280(%rbp), %rax       ## 8-byte Reload
	addq	$1280, %rsp             ## imm = 0x500
	popq	%rbx
	popq	%r14
	popq	%rbp
	retq
	.cfi_endproc

	.globl	__ZNSt3__13mapIiNS_12basic_stringIcNS_11char_traitsIcEENS_9allocatorIcEEEENS_4lessIiEENS4_INS_4pairIKiS6_EEEEE16__find_equal_keyERPNS_16__tree_node_baseIPvEERSA_
	.weak_def_can_be_hidden	__ZNSt3__13mapIiNS_12basic_stringIcNS_11char_traitsIcEENS_9allocatorIcEEEENS_4lessIiEENS4_INS_4pairIKiS6_EEEEE16__find_equal_keyERPNS_16__tree_node_baseIPvEERSA_
	.align	4, 0x90
__ZNSt3__13mapIiNS_12basic_stringIcNS_11char_traitsIcEENS_9allocatorIcEEEENS_4lessIiEENS4_INS_4pairIKiS6_EEEEE16__find_equal_keyERPNS_16__tree_node_baseIPvEERSA_: ## @_ZNSt3__13mapIiNS_12basic_stringIcNS_11char_traitsIcEENS_9allocatorIcEEEENS_4lessIiEENS4_INS_4pairIKiS6_EEEEE16__find_equal_keyERPNS_16__tree_node_baseIPvEERSA_
	.cfi_startproc
## BB#0:
	pushq	%rbp
Ltmp183:
	.cfi_def_cfa_offset 16
Ltmp184:
	.cfi_offset %rbp, -16
	movq	%rsp, %rbp
Ltmp185:
	.cfi_def_cfa_register %rbp
	subq	$120, %rsp
	movq	%rdi, -216(%rbp)
	movq	%rsi, -224(%rbp)
	movq	%rdx, -232(%rbp)
	movq	-216(%rbp), %rdx
	movq	%rdx, -200(%rbp)
	movq	-200(%rbp), %rsi
	movq	%rsi, -192(%rbp)
	movq	-192(%rbp), %rsi
	addq	$8, %rsi
	movq	%rsi, -184(%rbp)
	movq	-184(%rbp), %rsi
	movq	%rsi, -176(%rbp)
	movq	-176(%rbp), %rsi
	movq	%rsi, -168(%rbp)
	movq	-168(%rbp), %rsi
	movq	%rsi, -160(%rbp)
	movq	-160(%rbp), %rsi
	movq	(%rsi), %rsi
	movq	%rsi, -240(%rbp)
	cmpq	$0, -240(%rbp)
	movq	%rdx, -248(%rbp)        ## 8-byte Spill
	je	LBB33_15
## BB#1:
	jmp	LBB33_2
LBB33_2:                                ## =>This Inner Loop Header: Depth=1
	movq	-248(%rbp), %rax        ## 8-byte Reload
	movq	%rax, -24(%rbp)
	movq	-24(%rbp), %rcx
	addq	$16, %rcx
	movq	%rcx, -16(%rbp)
	movq	-16(%rbp), %rcx
	movq	%rcx, -8(%rbp)
	movq	-8(%rbp), %rcx
	movq	%rcx, -32(%rbp)
	movq	-32(%rbp), %rcx
	movq	-232(%rbp), %rdx
	movq	-240(%rbp), %rsi
	addq	$32, %rsi
	movq	%rcx, -40(%rbp)
	movq	%rdx, -48(%rbp)
	movq	%rsi, -56(%rbp)
	movq	-48(%rbp), %rcx
	movl	(%rcx), %edi
	movq	-56(%rbp), %rcx
	cmpl	(%rcx), %edi
	jge	LBB33_7
## BB#3:                                ##   in Loop: Header=BB33_2 Depth=1
	movq	-240(%rbp), %rax
	cmpq	$0, (%rax)
	je	LBB33_5
## BB#4:                                ##   in Loop: Header=BB33_2 Depth=1
	movq	-240(%rbp), %rax
	movq	(%rax), %rax
	movq	%rax, -240(%rbp)
	jmp	LBB33_6
LBB33_5:
	movq	-240(%rbp), %rax
	movq	-224(%rbp), %rcx
	movq	%rax, (%rcx)
	movq	-224(%rbp), %rax
	movq	(%rax), %rax
	movq	%rax, -208(%rbp)
	jmp	LBB33_16
LBB33_6:                                ##   in Loop: Header=BB33_2 Depth=1
	jmp	LBB33_14
LBB33_7:                                ##   in Loop: Header=BB33_2 Depth=1
	movq	-248(%rbp), %rax        ## 8-byte Reload
	movq	%rax, -80(%rbp)
	movq	-80(%rbp), %rcx
	addq	$16, %rcx
	movq	%rcx, -72(%rbp)
	movq	-72(%rbp), %rcx
	movq	%rcx, -64(%rbp)
	movq	-64(%rbp), %rcx
	movq	%rcx, -88(%rbp)
	movq	-88(%rbp), %rcx
	movq	-240(%rbp), %rdx
	addq	$32, %rdx
	movq	-232(%rbp), %rsi
	movq	%rcx, -96(%rbp)
	movq	%rdx, -104(%rbp)
	movq	%rsi, -112(%rbp)
	movq	-104(%rbp), %rcx
	movl	(%rcx), %edi
	movq	-112(%rbp), %rcx
	cmpl	(%rcx), %edi
	jge	LBB33_12
## BB#8:                                ##   in Loop: Header=BB33_2 Depth=1
	movq	-240(%rbp), %rax
	cmpq	$0, 8(%rax)
	je	LBB33_10
## BB#9:                                ##   in Loop: Header=BB33_2 Depth=1
	movq	-240(%rbp), %rax
	movq	8(%rax), %rax
	movq	%rax, -240(%rbp)
	jmp	LBB33_11
LBB33_10:
	movq	-240(%rbp), %rax
	movq	-224(%rbp), %rcx
	movq	%rax, (%rcx)
	movq	-224(%rbp), %rax
	movq	(%rax), %rax
	addq	$8, %rax
	movq	%rax, -208(%rbp)
	jmp	LBB33_16
LBB33_11:                               ##   in Loop: Header=BB33_2 Depth=1
	jmp	LBB33_13
LBB33_12:
	movq	-240(%rbp), %rax
	movq	-224(%rbp), %rcx
	movq	%rax, (%rcx)
	movq	-224(%rbp), %rax
	movq	%rax, -208(%rbp)
	jmp	LBB33_16
LBB33_13:                               ##   in Loop: Header=BB33_2 Depth=1
	jmp	LBB33_14
LBB33_14:                               ##   in Loop: Header=BB33_2 Depth=1
	jmp	LBB33_2
LBB33_15:
	movq	-248(%rbp), %rax        ## 8-byte Reload
	movq	%rax, -152(%rbp)
	movq	-152(%rbp), %rcx
	addq	$8, %rcx
	movq	%rcx, -144(%rbp)
	movq	-144(%rbp), %rcx
	movq	%rcx, -136(%rbp)
	movq	-136(%rbp), %rcx
	movq	%rcx, -128(%rbp)
	movq	-128(%rbp), %rcx
	movq	%rcx, -120(%rbp)
	movq	-120(%rbp), %rcx
	movq	-224(%rbp), %rdx
	movq	%rcx, (%rdx)
	movq	-224(%rbp), %rcx
	movq	(%rcx), %rcx
	movq	%rcx, -208(%rbp)
LBB33_16:
	movq	-208(%rbp), %rax
	addq	$120, %rsp
	popq	%rbp
	retq
	.cfi_endproc

	.globl	__ZNSt3__13mapIiNS_12basic_stringIcNS_11char_traitsIcEENS_9allocatorIcEEEENS_4lessIiEENS4_INS_4pairIKiS6_EEEEE25__construct_node_with_keyEOi
	.weak_def_can_be_hidden	__ZNSt3__13mapIiNS_12basic_stringIcNS_11char_traitsIcEENS_9allocatorIcEEEENS_4lessIiEENS4_INS_4pairIKiS6_EEEEE25__construct_node_with_keyEOi
	.align	4, 0x90
__ZNSt3__13mapIiNS_12basic_stringIcNS_11char_traitsIcEENS_9allocatorIcEEEENS_4lessIiEENS4_INS_4pairIKiS6_EEEEE25__construct_node_with_keyEOi: ## @_ZNSt3__13mapIiNS_12basic_stringIcNS_11char_traitsIcEENS_9allocatorIcEEEENS_4lessIiEENS4_INS_4pairIKiS6_EEEEE25__construct_node_with_keyEOi
	.cfi_startproc
## BB#0:
	pushq	%rbp
Ltmp186:
	.cfi_def_cfa_offset 16
Ltmp187:
	.cfi_offset %rbp, -16
	movq	%rsp, %rbp
Ltmp188:
	.cfi_def_cfa_register %rbp
	pushq	%rbx
	subq	$1368, %rsp             ## imm = 0x558
Ltmp189:
	.cfi_offset %rbx, -24
	movq	%rdi, %rax
	movq	%rsi, -1280(%rbp)
	movq	%rdx, -1288(%rbp)
	movq	-1280(%rbp), %rdx
	movq	%rdx, -1272(%rbp)
	movq	-1272(%rbp), %rdx
	addq	$8, %rdx
	movq	%rdx, -1264(%rbp)
	movq	-1264(%rbp), %rdx
	movq	%rdx, -1256(%rbp)
	movq	-1256(%rbp), %rdx
	movq	%rdx, -1296(%rbp)
	movb	$0, -1297(%rbp)
	movq	-1296(%rbp), %rdx
	movq	%rdx, -968(%rbp)
	movq	$1, -976(%rbp)
	movq	-968(%rbp), %rdx
	movq	-976(%rbp), %rsi
	movq	%rdx, -944(%rbp)
	movq	%rsi, -952(%rbp)
	movq	$0, -960(%rbp)
	movq	-952(%rbp), %rdx
	shlq	$6, %rdx
	movq	%rdx, -936(%rbp)
	movq	-936(%rbp), %rdx
	movq	%rdi, -1344(%rbp)       ## 8-byte Spill
	movq	%rdx, %rdi
	movq	%rax, -1352(%rbp)       ## 8-byte Spill
	callq	__Znwm
	leaq	-720(%rbp), %rdx
	leaq	-736(%rbp), %rsi
	leaq	-760(%rbp), %rdi
	leaq	-776(%rbp), %rcx
	leaq	-1320(%rbp), %r8
	movq	-1296(%rbp), %r9
	movq	%r8, -920(%rbp)
	movq	%r9, -928(%rbp)
	movq	-920(%rbp), %r9
	movq	-928(%rbp), %r10
	movq	%r9, -904(%rbp)
	movq	%r10, -912(%rbp)
	movq	-904(%rbp), %r9
	movq	-912(%rbp), %r10
	movq	%r10, (%r9)
	movb	$0, 8(%r9)
	movb	$0, 9(%r9)
	movq	-1344(%rbp), %r9        ## 8-byte Reload
	movq	%r9, -880(%rbp)
	movq	%rax, -888(%rbp)
	movq	%r8, -896(%rbp)
	movq	-880(%rbp), %rax
	movq	-888(%rbp), %r8
	movq	-896(%rbp), %r10
	movq	%rax, -840(%rbp)
	movq	%r8, -848(%rbp)
	movq	%r10, -856(%rbp)
	movq	-840(%rbp), %rax
	movq	-848(%rbp), %r8
	movq	-856(%rbp), %r10
	movq	%r10, -832(%rbp)
	movq	-832(%rbp), %r10
	movq	(%r10), %r11
	movq	%r11, -872(%rbp)
	movq	8(%r10), %r10
	movq	%r10, -864(%rbp)
	movq	-872(%rbp), %r10
	movq	-864(%rbp), %r11
	movq	%r10, -808(%rbp)
	movq	%r11, -800(%rbp)
	movq	%rax, -816(%rbp)
	movq	%r8, -824(%rbp)
	movq	-816(%rbp), %rax
	movq	-824(%rbp), %r8
	movq	-808(%rbp), %r10
	movq	-800(%rbp), %r11
	movq	%r10, -760(%rbp)
	movq	%r11, -752(%rbp)
	movq	%rax, -768(%rbp)
	movq	%r8, -776(%rbp)
	movq	-768(%rbp), %rax
	movq	%rcx, -744(%rbp)
	movq	-744(%rbp), %rcx
	movq	(%rcx), %rcx
	movq	%rdi, -688(%rbp)
	movq	-688(%rbp), %rdi
	movq	(%rdi), %r8
	movq	%r8, -792(%rbp)
	movq	8(%rdi), %rdi
	movq	%rdi, -784(%rbp)
	movq	-792(%rbp), %rdi
	movq	-784(%rbp), %r8
	movq	%rdi, -720(%rbp)
	movq	%r8, -712(%rbp)
	movq	%rax, -728(%rbp)
	movq	%rcx, -736(%rbp)
	movq	-728(%rbp), %rax
	movq	%rsi, -704(%rbp)
	movq	-704(%rbp), %rcx
	movq	(%rcx), %rcx
	movq	%rcx, (%rax)
	movq	%rdx, -696(%rbp)
	movq	-696(%rbp), %rcx
	movq	(%rcx), %rdx
	movq	%rdx, 8(%rax)
	movq	8(%rcx), %rcx
	movq	%rcx, 16(%rax)
	movq	-1296(%rbp), %rax
	movq	%r9, -408(%rbp)
	movq	-408(%rbp), %rcx
	movq	%rcx, -400(%rbp)
	movq	-400(%rbp), %rcx
	movq	%rcx, -392(%rbp)
	movq	-392(%rbp), %rcx
	movq	(%rcx), %rcx
	addq	$32, %rcx
	movq	%rcx, -384(%rbp)
	movq	-384(%rbp), %rcx
	movq	-1288(%rbp), %rdx
	movq	%rdx, -16(%rbp)
	movq	-16(%rbp), %rdx
	movq	%rax, -104(%rbp)
	movq	%rcx, -112(%rbp)
	movq	%rdx, -120(%rbp)
	movq	-104(%rbp), %rax
	movq	-112(%rbp), %rcx
	movq	-120(%rbp), %rdx
	movq	%rdx, -96(%rbp)
	movq	-96(%rbp), %rdx
	movq	%rax, -72(%rbp)
	movq	%rcx, -80(%rbp)
	movq	%rdx, -88(%rbp)
	movq	-72(%rbp), %rax
	movq	-80(%rbp), %rcx
	movq	-88(%rbp), %rdx
	movq	%rdx, -56(%rbp)
	movq	-56(%rbp), %rdx
	movq	%rax, -32(%rbp)
	movq	%rcx, -40(%rbp)
	movq	%rdx, -48(%rbp)
	movq	-40(%rbp), %rax
	movq	-48(%rbp), %rcx
	movq	%rcx, -24(%rbp)
	movq	-24(%rbp), %rcx
	movl	(%rcx), %ebx
	movl	%ebx, (%rax)
## BB#1:
	movq	-1344(%rbp), %rax       ## 8-byte Reload
	movq	%rax, -160(%rbp)
	movq	-160(%rbp), %rcx
	movq	%rcx, -152(%rbp)
	movq	-152(%rbp), %rcx
	movq	%rcx, -144(%rbp)
	movq	-144(%rbp), %rcx
	movb	$1, 16(%rcx)
	movq	-1296(%rbp), %rcx
	movq	%rax, -184(%rbp)
	movq	-184(%rbp), %rdx
	movq	%rdx, -176(%rbp)
	movq	-176(%rbp), %rdx
	movq	%rdx, -168(%rbp)
	movq	-168(%rbp), %rdx
	movq	(%rdx), %rdx
	addq	$32, %rdx
	addq	$8, %rdx
	movq	%rdx, -192(%rbp)
	movq	-192(%rbp), %rdx
	movq	%rcx, -328(%rbp)
	movq	%rdx, -336(%rbp)
	movq	-328(%rbp), %rcx
	movq	-336(%rbp), %rdx
	movq	%rcx, -312(%rbp)
	movq	%rdx, -320(%rbp)
	movq	-312(%rbp), %rcx
	movq	-320(%rbp), %rdx
	movq	%rcx, -288(%rbp)
	movq	%rdx, -296(%rbp)
	movq	-296(%rbp), %rcx
	movq	%rcx, -280(%rbp)
	movq	-280(%rbp), %rcx
	movq	%rcx, -272(%rbp)
	movq	-272(%rbp), %rcx
	movq	%rcx, -264(%rbp)
	movq	-264(%rbp), %rdx
	movq	%rdx, -256(%rbp)
	movq	-256(%rbp), %rdx
	movq	%rdx, -248(%rbp)
	movq	-248(%rbp), %rdx
	movq	%rdx, -240(%rbp)
	movq	%rcx, -216(%rbp)
	movq	-216(%rbp), %rcx
	movq	%rcx, -208(%rbp)
	movq	-208(%rbp), %rcx
	movq	%rcx, -200(%rbp)
	movq	-200(%rbp), %rcx
	movq	%rcx, -224(%rbp)
	movl	$0, -228(%rbp)
LBB34_2:                                ## =>This Inner Loop Header: Depth=1
	cmpl	$3, -228(%rbp)
	jae	LBB34_4
## BB#3:                                ##   in Loop: Header=BB34_2 Depth=1
	movl	-228(%rbp), %eax
	movl	%eax, %ecx
	movq	-224(%rbp), %rdx
	movq	$0, (%rdx,%rcx,8)
	movl	-228(%rbp), %eax
	addl	$1, %eax
	movl	%eax, -228(%rbp)
	jmp	LBB34_2
LBB34_4:                                ## %_ZNSt3__116allocator_traitsINS_9allocatorINS_11__tree_nodeINS_12__value_typeIiNS_12basic_stringIcNS_11char_traitsIcEENS1_IcEEEEEEPvEEEEE9constructIS8_JEEEvRSC_PT_DpOT0_.exit
	jmp	LBB34_5
LBB34_5:
	movq	-1344(%rbp), %rax       ## 8-byte Reload
	movq	%rax, -376(%rbp)
	movq	-376(%rbp), %rcx
	movq	%rcx, -368(%rbp)
	movq	-368(%rbp), %rcx
	movq	%rcx, -360(%rbp)
	movq	-360(%rbp), %rcx
	movb	$1, 17(%rcx)
	movb	$1, -1297(%rbp)
	movl	$1, -1336(%rbp)
	testb	$1, -1297(%rbp)
	jne	LBB34_15
## BB#6:
	movq	-1344(%rbp), %rax       ## 8-byte Reload
	movq	%rax, -1248(%rbp)
	movq	-1248(%rbp), %rcx
	movq	%rcx, -1240(%rbp)
	movq	-1240(%rbp), %rcx
	movq	%rcx, -1216(%rbp)
	movq	$0, -1224(%rbp)
	movq	-1216(%rbp), %rcx
	movq	%rcx, -1208(%rbp)
	movq	-1208(%rbp), %rdx
	movq	%rdx, -1200(%rbp)
	movq	-1200(%rbp), %rdx
	movq	(%rdx), %rdx
	movq	%rdx, -1232(%rbp)
	movq	-1224(%rbp), %rdx
	movq	%rcx, -1008(%rbp)
	movq	-1008(%rbp), %rsi
	movq	%rsi, -1000(%rbp)
	movq	-1000(%rbp), %rsi
	movq	%rdx, (%rsi)
	cmpq	$0, -1232(%rbp)
	movq	%rcx, -1360(%rbp)       ## 8-byte Spill
	je	LBB34_14
## BB#7:
	movq	-1360(%rbp), %rax       ## 8-byte Reload
	movq	%rax, -992(%rbp)
	movq	-992(%rbp), %rcx
	movq	%rcx, -984(%rbp)
	movq	-984(%rbp), %rcx
	addq	$8, %rcx
	movq	-1232(%rbp), %rdx
	movq	%rcx, -1184(%rbp)
	movq	%rdx, -1192(%rbp)
	movq	-1184(%rbp), %rcx
	testb	$1, 9(%rcx)
	movq	%rcx, -1368(%rbp)       ## 8-byte Spill
	je	LBB34_9
## BB#8:
	movq	-1368(%rbp), %rax       ## 8-byte Reload
	movq	(%rax), %rcx
	movq	-1192(%rbp), %rdx
	addq	$32, %rdx
	addq	$8, %rdx
	movq	%rdx, -1176(%rbp)
	movq	-1176(%rbp), %rdx
	movq	%rcx, -1144(%rbp)
	movq	%rdx, -1152(%rbp)
	movq	-1144(%rbp), %rcx
	movq	-1152(%rbp), %rdx
	movq	%rcx, -1128(%rbp)
	movq	%rdx, -1136(%rbp)
	movq	-1136(%rbp), %rdi
	callq	__ZNSt3__112basic_stringIcNS_11char_traitsIcEENS_9allocatorIcEEED1Ev
LBB34_9:
	movq	-1368(%rbp), %rax       ## 8-byte Reload
	testb	$1, 8(%rax)
	je	LBB34_11
## BB#10:
	movq	-1368(%rbp), %rax       ## 8-byte Reload
	movq	(%rax), %rcx
	movq	-1192(%rbp), %rdx
	addq	$32, %rdx
	movq	%rdx, -1120(%rbp)
	movq	-1120(%rbp), %rdx
	movq	%rcx, -1032(%rbp)
	movq	%rdx, -1040(%rbp)
	movq	-1032(%rbp), %rcx
	movq	-1040(%rbp), %rdx
	movq	%rcx, -1016(%rbp)
	movq	%rdx, -1024(%rbp)
LBB34_11:
	cmpq	$0, -1192(%rbp)
	je	LBB34_13
## BB#12:
	movq	-1368(%rbp), %rax       ## 8-byte Reload
	movq	(%rax), %rcx
	movq	-1192(%rbp), %rdx
	movq	%rcx, -1096(%rbp)
	movq	%rdx, -1104(%rbp)
	movq	$1, -1112(%rbp)
	movq	-1096(%rbp), %rcx
	movq	-1104(%rbp), %rdx
	movq	-1112(%rbp), %rsi
	movq	%rcx, -1072(%rbp)
	movq	%rdx, -1080(%rbp)
	movq	%rsi, -1088(%rbp)
	movq	-1080(%rbp), %rcx
	movq	%rcx, -1064(%rbp)
	movq	-1064(%rbp), %rdi
	callq	__ZdlPv
LBB34_13:                               ## %_ZNSt3__121__map_node_destructorINS_9allocatorINS_11__tree_nodeINS_12__value_typeIiNS_12basic_stringIcNS_11char_traitsIcEENS1_IcEEEEEEPvEEEEEclEPSB_.exit.i.i.i
	jmp	LBB34_14
LBB34_14:                               ## %_ZNSt3__110unique_ptrINS_11__tree_nodeINS_12__value_typeIiNS_12basic_stringIcNS_11char_traitsIcEENS_9allocatorIcEEEEEEPvEENS_21__map_node_destructorINS6_ISB_EEEEED1Ev.exit
	jmp	LBB34_15
LBB34_15:
	movq	-1352(%rbp), %rax       ## 8-byte Reload
	addq	$1368, %rsp             ## imm = 0x558
	popq	%rbx
	popq	%rbp
	retq
	.cfi_endproc

	.globl	__ZNSt3__124__put_character_sequenceIcNS_11char_traitsIcEEEERNS_13basic_ostreamIT_T0_EES7_PKS4_m
	.weak_def_can_be_hidden	__ZNSt3__124__put_character_sequenceIcNS_11char_traitsIcEEEERNS_13basic_ostreamIT_T0_EES7_PKS4_m
	.align	4, 0x90
__ZNSt3__124__put_character_sequenceIcNS_11char_traitsIcEEEERNS_13basic_ostreamIT_T0_EES7_PKS4_m: ## @_ZNSt3__124__put_character_sequenceIcNS_11char_traitsIcEEEERNS_13basic_ostreamIT_T0_EES7_PKS4_m
Lfunc_begin35:
	.cfi_startproc
	.cfi_personality 155, ___gxx_personality_v0
	.cfi_lsda 16, Lexception35
## BB#0:
	pushq	%rbp
Ltmp211:
	.cfi_def_cfa_offset 16
Ltmp212:
	.cfi_offset %rbp, -16
	movq	%rsp, %rbp
Ltmp213:
	.cfi_def_cfa_register %rbp
	subq	$384, %rsp              ## imm = 0x180
	movq	%rdi, -184(%rbp)
	movq	%rsi, -192(%rbp)
	movq	%rdx, -200(%rbp)
	movq	-184(%rbp), %rsi
Ltmp190:
	leaq	-216(%rbp), %rdi
	callq	__ZNSt3__113basic_ostreamIcNS_11char_traitsIcEEE6sentryC1ERS3_
Ltmp191:
	jmp	LBB35_1
LBB35_1:
	leaq	-216(%rbp), %rax
	movq	%rax, -176(%rbp)
	movq	-176(%rbp), %rax
	movb	(%rax), %cl
	movb	%cl, -249(%rbp)         ## 1-byte Spill
## BB#2:
	movb	-249(%rbp), %al         ## 1-byte Reload
	testb	$1, %al
	jne	LBB35_3
	jmp	LBB35_26
LBB35_3:
	leaq	-240(%rbp), %rax
	movq	-184(%rbp), %rcx
	movq	%rax, -160(%rbp)
	movq	%rcx, -168(%rbp)
	movq	-160(%rbp), %rax
	movq	-168(%rbp), %rcx
	movq	%rax, -144(%rbp)
	movq	%rcx, -152(%rbp)
	movq	-144(%rbp), %rax
	movq	-152(%rbp), %rcx
	movq	(%rcx), %rdx
	movq	-24(%rdx), %rdx
	addq	%rdx, %rcx
	movq	%rcx, -136(%rbp)
	movq	-136(%rbp), %rcx
	movq	%rcx, -128(%rbp)
	movq	-128(%rbp), %rcx
	movq	40(%rcx), %rcx
	movq	%rcx, (%rax)
	movq	-192(%rbp), %rsi
	movq	-184(%rbp), %rax
	movq	(%rax), %rcx
	movq	-24(%rcx), %rcx
	addq	%rcx, %rax
	movq	%rax, -88(%rbp)
	movq	-88(%rbp), %rax
	movl	8(%rax), %edi
	movq	%rsi, -264(%rbp)        ## 8-byte Spill
	movl	%edi, -268(%rbp)        ## 4-byte Spill
## BB#4:
	movl	-268(%rbp), %eax        ## 4-byte Reload
	andl	$176, %eax
	cmpl	$32, %eax
	jne	LBB35_6
## BB#5:
	movq	-192(%rbp), %rax
	addq	-200(%rbp), %rax
	movq	%rax, -280(%rbp)        ## 8-byte Spill
	jmp	LBB35_7
LBB35_6:
	movq	-192(%rbp), %rax
	movq	%rax, -280(%rbp)        ## 8-byte Spill
LBB35_7:
	movq	-280(%rbp), %rax        ## 8-byte Reload
	movq	-192(%rbp), %rcx
	addq	-200(%rbp), %rcx
	movq	-184(%rbp), %rdx
	movq	(%rdx), %rsi
	movq	-24(%rsi), %rsi
	addq	%rsi, %rdx
	movq	-184(%rbp), %rsi
	movq	(%rsi), %rdi
	movq	-24(%rdi), %rdi
	addq	%rdi, %rsi
	movq	%rsi, -72(%rbp)
	movq	-72(%rbp), %rsi
	movq	%rax, -288(%rbp)        ## 8-byte Spill
	movq	%rcx, -296(%rbp)        ## 8-byte Spill
	movq	%rdx, -304(%rbp)        ## 8-byte Spill
	movq	%rsi, -312(%rbp)        ## 8-byte Spill
	callq	__ZNSt3__111char_traitsIcE3eofEv
	movq	-312(%rbp), %rcx        ## 8-byte Reload
	movl	144(%rcx), %esi
	movl	%eax, %edi
	callq	__ZNSt3__111char_traitsIcE11eq_int_typeEii
	testb	$1, %al
	jne	LBB35_8
	jmp	LBB35_13
LBB35_8:
	movq	-312(%rbp), %rax        ## 8-byte Reload
	movq	%rax, -32(%rbp)
	movb	$32, -33(%rbp)
	movq	-32(%rbp), %rsi
Ltmp193:
	leaq	-48(%rbp), %rdi
	callq	__ZNKSt3__18ios_base6getlocEv
Ltmp194:
	jmp	LBB35_9
LBB35_9:                                ## %.noexc
	leaq	-48(%rbp), %rax
	movq	%rax, -24(%rbp)
Ltmp195:
	movq	__ZNSt3__15ctypeIcE2idE@GOTPCREL(%rip), %rsi
	movq	%rax, %rdi
	callq	__ZNKSt3__16locale9use_facetERNS0_2idE
Ltmp196:
	movq	%rax, -320(%rbp)        ## 8-byte Spill
	jmp	LBB35_10
LBB35_10:                               ## %_ZNSt3__19use_facetINS_5ctypeIcEEEERKT_RKNS_6localeE.exit.i.i
	movb	-33(%rbp), %al
	movq	-320(%rbp), %rcx        ## 8-byte Reload
	movq	%rcx, -8(%rbp)
	movb	%al, -9(%rbp)
	movq	-8(%rbp), %rdx
	movq	(%rdx), %rsi
	movq	56(%rsi), %rsi
	movsbl	-9(%rbp), %edi
Ltmp197:
	movl	%edi, -324(%rbp)        ## 4-byte Spill
	movq	%rdx, %rdi
	movl	-324(%rbp), %r8d        ## 4-byte Reload
	movq	%rsi, -336(%rbp)        ## 8-byte Spill
	movl	%r8d, %esi
	movq	-336(%rbp), %rdx        ## 8-byte Reload
	callq	*%rdx
Ltmp198:
	movb	%al, -337(%rbp)         ## 1-byte Spill
	jmp	LBB35_12
LBB35_11:
Ltmp199:
	movl	%edx, %ecx
	movq	%rax, -56(%rbp)
	movl	%ecx, -60(%rbp)
	leaq	-48(%rbp), %rdi
	callq	__ZNSt3__16localeD1Ev
	movq	-56(%rbp), %rax
	movl	-60(%rbp), %ecx
	movq	%rax, -352(%rbp)        ## 8-byte Spill
	movl	%ecx, -356(%rbp)        ## 4-byte Spill
	jmp	LBB35_21
LBB35_12:                               ## %_ZNKSt3__19basic_iosIcNS_11char_traitsIcEEE5widenEc.exit.i
	leaq	-48(%rbp), %rdi
	callq	__ZNSt3__16localeD1Ev
	movb	-337(%rbp), %al         ## 1-byte Reload
	movsbl	%al, %ecx
	movq	-312(%rbp), %rdi        ## 8-byte Reload
	movl	%ecx, 144(%rdi)
LBB35_13:                               ## %_ZNKSt3__19basic_iosIcNS_11char_traitsIcEEE4fillEv.exit
	movq	-312(%rbp), %rax        ## 8-byte Reload
	movl	144(%rax), %ecx
	movb	%cl, %dl
	movb	%dl, -357(%rbp)         ## 1-byte Spill
## BB#14:
	movq	-240(%rbp), %rdi
Ltmp200:
	movb	-357(%rbp), %al         ## 1-byte Reload
	movsbl	%al, %r9d
	movq	-264(%rbp), %rsi        ## 8-byte Reload
	movq	-288(%rbp), %rdx        ## 8-byte Reload
	movq	-296(%rbp), %rcx        ## 8-byte Reload
	movq	-304(%rbp), %r8         ## 8-byte Reload
	callq	__ZNSt3__116__pad_and_outputIcNS_11char_traitsIcEEEENS_19ostreambuf_iteratorIT_T0_EES6_PKS4_S8_S8_RNS_8ios_baseES4_
Ltmp201:
	movq	%rax, -368(%rbp)        ## 8-byte Spill
	jmp	LBB35_15
LBB35_15:
	leaq	-248(%rbp), %rax
	movq	-368(%rbp), %rcx        ## 8-byte Reload
	movq	%rcx, -248(%rbp)
	movq	%rax, -80(%rbp)
	movq	-80(%rbp), %rax
	cmpq	$0, (%rax)
	jne	LBB35_25
## BB#16:
	movq	-184(%rbp), %rax
	movq	(%rax), %rcx
	movq	-24(%rcx), %rcx
	addq	%rcx, %rax
	movq	%rax, -112(%rbp)
	movl	$5, -116(%rbp)
	movq	-112(%rbp), %rax
	movq	%rax, -96(%rbp)
	movl	$5, -100(%rbp)
	movq	-96(%rbp), %rax
	movl	32(%rax), %edx
	orl	$5, %edx
Ltmp202:
	movq	%rax, %rdi
	movl	%edx, %esi
	callq	__ZNSt3__18ios_base5clearEj
Ltmp203:
	jmp	LBB35_17
LBB35_17:                               ## %_ZNSt3__19basic_iosIcNS_11char_traitsIcEEE8setstateEj.exit
	jmp	LBB35_18
LBB35_18:
	jmp	LBB35_25
LBB35_19:
Ltmp192:
	movl	%edx, %ecx
	movq	%rax, -224(%rbp)
	movl	%ecx, -228(%rbp)
	jmp	LBB35_22
LBB35_20:
Ltmp204:
	movl	%edx, %ecx
	movq	%rax, -352(%rbp)        ## 8-byte Spill
	movl	%ecx, -356(%rbp)        ## 4-byte Spill
	jmp	LBB35_21
LBB35_21:                               ## %.body
	movl	-356(%rbp), %eax        ## 4-byte Reload
	movq	-352(%rbp), %rcx        ## 8-byte Reload
	leaq	-216(%rbp), %rdi
	movq	%rcx, -224(%rbp)
	movl	%eax, -228(%rbp)
	callq	__ZNSt3__113basic_ostreamIcNS_11char_traitsIcEEE6sentryD1Ev
LBB35_22:
	movq	-224(%rbp), %rdi
	callq	___cxa_begin_catch
	movq	-184(%rbp), %rdi
	movq	(%rdi), %rcx
	movq	-24(%rcx), %rcx
	addq	%rcx, %rdi
Ltmp205:
	movq	%rax, -376(%rbp)        ## 8-byte Spill
	callq	__ZNSt3__18ios_base33__set_badbit_and_consider_rethrowEv
Ltmp206:
	jmp	LBB35_23
LBB35_23:
	callq	___cxa_end_catch
LBB35_24:
	movq	-184(%rbp), %rax
	addq	$384, %rsp              ## imm = 0x180
	popq	%rbp
	retq
LBB35_25:
	jmp	LBB35_26
LBB35_26:
	leaq	-216(%rbp), %rdi
	callq	__ZNSt3__113basic_ostreamIcNS_11char_traitsIcEEE6sentryD1Ev
	jmp	LBB35_24
LBB35_27:
Ltmp207:
	movl	%edx, %ecx
	movq	%rax, -224(%rbp)
	movl	%ecx, -228(%rbp)
Ltmp208:
	callq	___cxa_end_catch
Ltmp209:
	jmp	LBB35_28
LBB35_28:
	jmp	LBB35_29
LBB35_29:
	movq	-224(%rbp), %rdi
	callq	__Unwind_Resume
LBB35_30:
Ltmp210:
	movl	%edx, %ecx
	movq	%rax, %rdi
	movl	%ecx, -380(%rbp)        ## 4-byte Spill
	callq	___clang_call_terminate
Lfunc_end35:
	.cfi_endproc
	.section	__TEXT,__gcc_except_tab
	.align	2
GCC_except_table35:
Lexception35:
	.byte	255                     ## @LPStart Encoding = omit
	.byte	155                     ## @TType Encoding = indirect pcrel sdata4
	.asciz	"\201\201\200\200"      ## @TType base offset
	.byte	3                       ## Call site Encoding = udata4
	.byte	117                     ## Call site table length
Lset65 = Ltmp190-Lfunc_begin35          ## >> Call Site 1 <<
	.long	Lset65
Lset66 = Ltmp191-Ltmp190                ##   Call between Ltmp190 and Ltmp191
	.long	Lset66
Lset67 = Ltmp192-Lfunc_begin35          ##     jumps to Ltmp192
	.long	Lset67
	.byte	5                       ##   On action: 3
Lset68 = Ltmp193-Lfunc_begin35          ## >> Call Site 2 <<
	.long	Lset68
Lset69 = Ltmp194-Ltmp193                ##   Call between Ltmp193 and Ltmp194
	.long	Lset69
Lset70 = Ltmp204-Lfunc_begin35          ##     jumps to Ltmp204
	.long	Lset70
	.byte	5                       ##   On action: 3
Lset71 = Ltmp195-Lfunc_begin35          ## >> Call Site 3 <<
	.long	Lset71
Lset72 = Ltmp198-Ltmp195                ##   Call between Ltmp195 and Ltmp198
	.long	Lset72
Lset73 = Ltmp199-Lfunc_begin35          ##     jumps to Ltmp199
	.long	Lset73
	.byte	3                       ##   On action: 2
Lset74 = Ltmp200-Lfunc_begin35          ## >> Call Site 4 <<
	.long	Lset74
Lset75 = Ltmp203-Ltmp200                ##   Call between Ltmp200 and Ltmp203
	.long	Lset75
Lset76 = Ltmp204-Lfunc_begin35          ##     jumps to Ltmp204
	.long	Lset76
	.byte	5                       ##   On action: 3
Lset77 = Ltmp203-Lfunc_begin35          ## >> Call Site 5 <<
	.long	Lset77
Lset78 = Ltmp205-Ltmp203                ##   Call between Ltmp203 and Ltmp205
	.long	Lset78
	.long	0                       ##     has no landing pad
	.byte	0                       ##   On action: cleanup
Lset79 = Ltmp205-Lfunc_begin35          ## >> Call Site 6 <<
	.long	Lset79
Lset80 = Ltmp206-Ltmp205                ##   Call between Ltmp205 and Ltmp206
	.long	Lset80
Lset81 = Ltmp207-Lfunc_begin35          ##     jumps to Ltmp207
	.long	Lset81
	.byte	0                       ##   On action: cleanup
Lset82 = Ltmp206-Lfunc_begin35          ## >> Call Site 7 <<
	.long	Lset82
Lset83 = Ltmp208-Ltmp206                ##   Call between Ltmp206 and Ltmp208
	.long	Lset83
	.long	0                       ##     has no landing pad
	.byte	0                       ##   On action: cleanup
Lset84 = Ltmp208-Lfunc_begin35          ## >> Call Site 8 <<
	.long	Lset84
Lset85 = Ltmp209-Ltmp208                ##   Call between Ltmp208 and Ltmp209
	.long	Lset85
Lset86 = Ltmp210-Lfunc_begin35          ##     jumps to Ltmp210
	.long	Lset86
	.byte	5                       ##   On action: 3
Lset87 = Ltmp209-Lfunc_begin35          ## >> Call Site 9 <<
	.long	Lset87
Lset88 = Lfunc_end35-Ltmp209            ##   Call between Ltmp209 and Lfunc_end35
	.long	Lset88
	.long	0                       ##     has no landing pad
	.byte	0                       ##   On action: cleanup
	.byte	0                       ## >> Action Record 1 <<
                                        ##   Cleanup
	.byte	0                       ##   No further actions
	.byte	1                       ## >> Action Record 2 <<
                                        ##   Catch TypeInfo 1
	.byte	125                     ##   Continue to action 1
	.byte	1                       ## >> Action Record 3 <<
                                        ##   Catch TypeInfo 1
	.byte	0                       ##   No further actions
                                        ## >> Catch TypeInfos <<
	.long	0                       ## TypeInfo 1
	.align	2

	.section	__TEXT,__textcoal_nt,coalesced,pure_instructions
	.private_extern	__ZNSt3__116__pad_and_outputIcNS_11char_traitsIcEEEENS_19ostreambuf_iteratorIT_T0_EES6_PKS4_S8_S8_RNS_8ios_baseES4_
	.globl	__ZNSt3__116__pad_and_outputIcNS_11char_traitsIcEEEENS_19ostreambuf_iteratorIT_T0_EES6_PKS4_S8_S8_RNS_8ios_baseES4_
	.weak_def_can_be_hidden	__ZNSt3__116__pad_and_outputIcNS_11char_traitsIcEEEENS_19ostreambuf_iteratorIT_T0_EES6_PKS4_S8_S8_RNS_8ios_baseES4_
	.align	4, 0x90
__ZNSt3__116__pad_and_outputIcNS_11char_traitsIcEEEENS_19ostreambuf_iteratorIT_T0_EES6_PKS4_S8_S8_RNS_8ios_baseES4_: ## @_ZNSt3__116__pad_and_outputIcNS_11char_traitsIcEEEENS_19ostreambuf_iteratorIT_T0_EES6_PKS4_S8_S8_RNS_8ios_baseES4_
Lfunc_begin36:
	.cfi_startproc
	.cfi_personality 155, ___gxx_personality_v0
	.cfi_lsda 16, Lexception36
## BB#0:
	pushq	%rbp
Ltmp217:
	.cfi_def_cfa_offset 16
Ltmp218:
	.cfi_offset %rbp, -16
	movq	%rsp, %rbp
Ltmp219:
	.cfi_def_cfa_register %rbp
	subq	$480, %rsp              ## imm = 0x1E0
	movb	%r9b, %al
	movq	%rdi, -312(%rbp)
	movq	%rsi, -320(%rbp)
	movq	%rdx, -328(%rbp)
	movq	%rcx, -336(%rbp)
	movq	%r8, -344(%rbp)
	movb	%al, -345(%rbp)
	cmpq	$0, -312(%rbp)
	jne	LBB36_2
## BB#1:
	movq	-312(%rbp), %rax
	movq	%rax, -304(%rbp)
	jmp	LBB36_26
LBB36_2:
	movq	-336(%rbp), %rax
	movq	-320(%rbp), %rcx
	subq	%rcx, %rax
	movq	%rax, -360(%rbp)
	movq	-344(%rbp), %rax
	movq	%rax, -296(%rbp)
	movq	-296(%rbp), %rax
	movq	24(%rax), %rax
	movq	%rax, -368(%rbp)
	movq	-368(%rbp), %rax
	cmpq	-360(%rbp), %rax
	jle	LBB36_4
## BB#3:
	movq	-360(%rbp), %rax
	movq	-368(%rbp), %rcx
	subq	%rax, %rcx
	movq	%rcx, -368(%rbp)
	jmp	LBB36_5
LBB36_4:
	movq	$0, -368(%rbp)
LBB36_5:
	movq	-328(%rbp), %rax
	movq	-320(%rbp), %rcx
	subq	%rcx, %rax
	movq	%rax, -376(%rbp)
	cmpq	$0, -376(%rbp)
	jle	LBB36_9
## BB#6:
	movq	-312(%rbp), %rax
	movq	-320(%rbp), %rcx
	movq	-376(%rbp), %rdx
	movq	%rax, -224(%rbp)
	movq	%rcx, -232(%rbp)
	movq	%rdx, -240(%rbp)
	movq	-224(%rbp), %rax
	movq	(%rax), %rcx
	movq	96(%rcx), %rcx
	movq	-232(%rbp), %rsi
	movq	-240(%rbp), %rdx
	movq	%rax, %rdi
	callq	*%rcx
	cmpq	-376(%rbp), %rax
	je	LBB36_8
## BB#7:
	movq	$0, -312(%rbp)
	movq	-312(%rbp), %rax
	movq	%rax, -304(%rbp)
	jmp	LBB36_26
LBB36_8:
	jmp	LBB36_9
LBB36_9:
	cmpq	$0, -368(%rbp)
	jle	LBB36_21
## BB#10:
	leaq	-400(%rbp), %rax
	movq	-368(%rbp), %rcx
	movb	-345(%rbp), %dl
	movq	%rax, -200(%rbp)
	movq	%rcx, -208(%rbp)
	movb	%dl, -209(%rbp)
	movq	-200(%rbp), %rax
	movq	-208(%rbp), %rcx
	movb	-209(%rbp), %dl
	movq	%rax, -176(%rbp)
	movq	%rcx, -184(%rbp)
	movb	%dl, -185(%rbp)
	movq	-176(%rbp), %rax
	movq	%rax, -168(%rbp)
	movq	-168(%rbp), %rcx
	movq	%rcx, -160(%rbp)
	movq	-160(%rbp), %rcx
	movq	%rcx, -152(%rbp)
	movq	-152(%rbp), %rcx
	movq	%rcx, -144(%rbp)
	movq	-184(%rbp), %rsi
	movq	%rax, %rdi
	movsbl	-185(%rbp), %edx
	callq	__ZNSt3__112basic_stringIcNS_11char_traitsIcEENS_9allocatorIcEEE6__initEmc
	leaq	-400(%rbp), %rax
	movq	-312(%rbp), %rcx
	movq	%rax, -136(%rbp)
	movq	-136(%rbp), %rax
	movq	%rax, -128(%rbp)
	movq	-128(%rbp), %rax
	movq	%rax, -120(%rbp)
	movq	-120(%rbp), %rsi
	movq	%rsi, -112(%rbp)
	movq	-112(%rbp), %rsi
	movq	%rsi, -104(%rbp)
	movq	-104(%rbp), %rsi
	movzbl	(%rsi), %edx
	andl	$1, %edx
	cmpl	$0, %edx
	movq	%rcx, -424(%rbp)        ## 8-byte Spill
	movq	%rax, -432(%rbp)        ## 8-byte Spill
	je	LBB36_12
## BB#11:
	movq	-432(%rbp), %rax        ## 8-byte Reload
	movq	%rax, -56(%rbp)
	movq	-56(%rbp), %rcx
	movq	%rcx, -48(%rbp)
	movq	-48(%rbp), %rcx
	movq	%rcx, -40(%rbp)
	movq	-40(%rbp), %rcx
	movq	16(%rcx), %rcx
	movq	%rcx, -440(%rbp)        ## 8-byte Spill
	jmp	LBB36_13
LBB36_12:
	movq	-432(%rbp), %rax        ## 8-byte Reload
	movq	%rax, -96(%rbp)
	movq	-96(%rbp), %rcx
	movq	%rcx, -88(%rbp)
	movq	-88(%rbp), %rcx
	movq	%rcx, -80(%rbp)
	movq	-80(%rbp), %rcx
	addq	$1, %rcx
	movq	%rcx, -72(%rbp)
	movq	-72(%rbp), %rcx
	movq	%rcx, -64(%rbp)
	movq	-64(%rbp), %rcx
	movq	%rcx, -440(%rbp)        ## 8-byte Spill
LBB36_13:                               ## %_ZNKSt3__112basic_stringIcNS_11char_traitsIcEENS_9allocatorIcEEE4dataEv.exit
	movq	-440(%rbp), %rax        ## 8-byte Reload
	movq	%rax, -32(%rbp)
	movq	-368(%rbp), %rcx
	movq	-424(%rbp), %rdx        ## 8-byte Reload
	movq	%rdx, -8(%rbp)
	movq	%rax, -16(%rbp)
	movq	%rcx, -24(%rbp)
	movq	-8(%rbp), %rax
	movq	(%rax), %rsi
	movq	96(%rsi), %rsi
	movq	-16(%rbp), %rdi
Ltmp214:
	movq	%rdi, -448(%rbp)        ## 8-byte Spill
	movq	%rax, %rdi
	movq	-448(%rbp), %rax        ## 8-byte Reload
	movq	%rsi, -456(%rbp)        ## 8-byte Spill
	movq	%rax, %rsi
	movq	%rcx, %rdx
	movq	-456(%rbp), %rcx        ## 8-byte Reload
	callq	*%rcx
Ltmp215:
	movq	%rax, -464(%rbp)        ## 8-byte Spill
	jmp	LBB36_14
LBB36_14:                               ## %_ZNSt3__115basic_streambufIcNS_11char_traitsIcEEE5sputnEPKcl.exit
	jmp	LBB36_15
LBB36_15:
	movq	-464(%rbp), %rax        ## 8-byte Reload
	cmpq	-368(%rbp), %rax
	je	LBB36_18
## BB#16:
	movq	$0, -312(%rbp)
	movq	-312(%rbp), %rax
	movq	%rax, -304(%rbp)
	movl	$1, -416(%rbp)
	jmp	LBB36_19
LBB36_17:
Ltmp216:
	leaq	-400(%rbp), %rdi
	movl	%edx, %ecx
	movq	%rax, -408(%rbp)
	movl	%ecx, -412(%rbp)
	callq	__ZNSt3__112basic_stringIcNS_11char_traitsIcEENS_9allocatorIcEEED1Ev
	jmp	LBB36_27
LBB36_18:
	movl	$0, -416(%rbp)
LBB36_19:
	leaq	-400(%rbp), %rdi
	callq	__ZNSt3__112basic_stringIcNS_11char_traitsIcEENS_9allocatorIcEEED1Ev
	movl	-416(%rbp), %eax
	subl	$1, %eax
	movl	%eax, -468(%rbp)        ## 4-byte Spill
	je	LBB36_26
	jmp	LBB36_20
LBB36_20:
	jmp	LBB36_21
LBB36_21:
	movq	-336(%rbp), %rax
	movq	-328(%rbp), %rcx
	subq	%rcx, %rax
	movq	%rax, -376(%rbp)
	cmpq	$0, -376(%rbp)
	jle	LBB36_25
## BB#22:
	movq	-312(%rbp), %rax
	movq	-328(%rbp), %rcx
	movq	-376(%rbp), %rdx
	movq	%rax, -248(%rbp)
	movq	%rcx, -256(%rbp)
	movq	%rdx, -264(%rbp)
	movq	-248(%rbp), %rax
	movq	(%rax), %rcx
	movq	96(%rcx), %rcx
	movq	-256(%rbp), %rsi
	movq	-264(%rbp), %rdx
	movq	%rax, %rdi
	callq	*%rcx
	cmpq	-376(%rbp), %rax
	je	LBB36_24
## BB#23:
	movq	$0, -312(%rbp)
	movq	-312(%rbp), %rax
	movq	%rax, -304(%rbp)
	jmp	LBB36_26
LBB36_24:
	jmp	LBB36_25
LBB36_25:
	movq	-344(%rbp), %rax
	movq	%rax, -272(%rbp)
	movq	$0, -280(%rbp)
	movq	-272(%rbp), %rax
	movq	24(%rax), %rcx
	movq	%rcx, -288(%rbp)
	movq	-280(%rbp), %rcx
	movq	%rcx, 24(%rax)
	movq	-312(%rbp), %rax
	movq	%rax, -304(%rbp)
LBB36_26:
	movq	-304(%rbp), %rax
	addq	$480, %rsp              ## imm = 0x1E0
	popq	%rbp
	retq
LBB36_27:
	movq	-408(%rbp), %rdi
	callq	__Unwind_Resume
## BB#28:
Lfunc_end36:
	.cfi_endproc
	.section	__TEXT,__gcc_except_tab
	.align	2
GCC_except_table36:
Lexception36:
	.byte	255                     ## @LPStart Encoding = omit
	.byte	155                     ## @TType Encoding = indirect pcrel sdata4
	.byte	41                      ## @TType base offset
	.byte	3                       ## Call site Encoding = udata4
	.byte	39                      ## Call site table length
Lset89 = Lfunc_begin36-Lfunc_begin36    ## >> Call Site 1 <<
	.long	Lset89
Lset90 = Ltmp214-Lfunc_begin36          ##   Call between Lfunc_begin36 and Ltmp214
	.long	Lset90
	.long	0                       ##     has no landing pad
	.byte	0                       ##   On action: cleanup
Lset91 = Ltmp214-Lfunc_begin36          ## >> Call Site 2 <<
	.long	Lset91
Lset92 = Ltmp215-Ltmp214                ##   Call between Ltmp214 and Ltmp215
	.long	Lset92
Lset93 = Ltmp216-Lfunc_begin36          ##     jumps to Ltmp216
	.long	Lset93
	.byte	0                       ##   On action: cleanup
Lset94 = Ltmp215-Lfunc_begin36          ## >> Call Site 3 <<
	.long	Lset94
Lset95 = Lfunc_end36-Ltmp215            ##   Call between Ltmp215 and Lfunc_end36
	.long	Lset95
	.long	0                       ##     has no landing pad
	.byte	0                       ##   On action: cleanup
	.align	2

	.section	__TEXT,__textcoal_nt,coalesced,pure_instructions
	.globl	__ZNSt3__111char_traitsIcE11eq_int_typeEii
	.weak_def_can_be_hidden	__ZNSt3__111char_traitsIcE11eq_int_typeEii
	.align	4, 0x90
__ZNSt3__111char_traitsIcE11eq_int_typeEii: ## @_ZNSt3__111char_traitsIcE11eq_int_typeEii
	.cfi_startproc
## BB#0:
	pushq	%rbp
Ltmp220:
	.cfi_def_cfa_offset 16
Ltmp221:
	.cfi_offset %rbp, -16
	movq	%rsp, %rbp
Ltmp222:
	.cfi_def_cfa_register %rbp
	movl	%edi, -4(%rbp)
	movl	%esi, -8(%rbp)
	movl	-4(%rbp), %esi
	cmpl	-8(%rbp), %esi
	sete	%al
	andb	$1, %al
	movzbl	%al, %eax
	popq	%rbp
	retq
	.cfi_endproc

	.globl	__ZNSt3__111char_traitsIcE3eofEv
	.weak_def_can_be_hidden	__ZNSt3__111char_traitsIcE3eofEv
	.align	4, 0x90
__ZNSt3__111char_traitsIcE3eofEv:       ## @_ZNSt3__111char_traitsIcE3eofEv
	.cfi_startproc
## BB#0:
	pushq	%rbp
Ltmp223:
	.cfi_def_cfa_offset 16
Ltmp224:
	.cfi_offset %rbp, -16
	movq	%rsp, %rbp
Ltmp225:
	.cfi_def_cfa_register %rbp
	movl	$4294967295, %eax       ## imm = 0xFFFFFFFF
	popq	%rbp
	retq
	.cfi_endproc

	.globl	__ZNSt3__1lsIcNS_11char_traitsIcEENS_9allocatorIcEEEERNS_13basic_ostreamIT_T0_EES9_RKNS_12basic_stringIS6_S7_T1_EE
	.weak_def_can_be_hidden	__ZNSt3__1lsIcNS_11char_traitsIcEENS_9allocatorIcEEEERNS_13basic_ostreamIT_T0_EES9_RKNS_12basic_stringIS6_S7_T1_EE
	.align	4, 0x90
__ZNSt3__1lsIcNS_11char_traitsIcEENS_9allocatorIcEEEERNS_13basic_ostreamIT_T0_EES9_RKNS_12basic_stringIS6_S7_T1_EE: ## @_ZNSt3__1lsIcNS_11char_traitsIcEENS_9allocatorIcEEEERNS_13basic_ostreamIT_T0_EES9_RKNS_12basic_stringIS6_S7_T1_EE
	.cfi_startproc
## BB#0:
	pushq	%rbp
Ltmp226:
	.cfi_def_cfa_offset 16
Ltmp227:
	.cfi_offset %rbp, -16
	movq	%rsp, %rbp
Ltmp228:
	.cfi_def_cfa_register %rbp
	subq	$256, %rsp              ## imm = 0x100
	movq	%rdi, -200(%rbp)
	movq	%rsi, -208(%rbp)
	movq	-200(%rbp), %rdi
	movq	-208(%rbp), %rsi
	movq	%rsi, -192(%rbp)
	movq	-192(%rbp), %rsi
	movq	%rsi, -184(%rbp)
	movq	-184(%rbp), %rsi
	movq	%rsi, -176(%rbp)
	movq	-176(%rbp), %rax
	movq	%rax, -168(%rbp)
	movq	-168(%rbp), %rax
	movq	%rax, -160(%rbp)
	movq	-160(%rbp), %rax
	movzbl	(%rax), %ecx
	andl	$1, %ecx
	cmpl	$0, %ecx
	movq	%rdi, -216(%rbp)        ## 8-byte Spill
	movq	%rsi, -224(%rbp)        ## 8-byte Spill
	je	LBB39_2
## BB#1:
	movq	-224(%rbp), %rax        ## 8-byte Reload
	movq	%rax, -112(%rbp)
	movq	-112(%rbp), %rcx
	movq	%rcx, -104(%rbp)
	movq	-104(%rbp), %rcx
	movq	%rcx, -96(%rbp)
	movq	-96(%rbp), %rcx
	movq	16(%rcx), %rcx
	movq	%rcx, -232(%rbp)        ## 8-byte Spill
	jmp	LBB39_3
LBB39_2:
	movq	-224(%rbp), %rax        ## 8-byte Reload
	movq	%rax, -152(%rbp)
	movq	-152(%rbp), %rcx
	movq	%rcx, -144(%rbp)
	movq	-144(%rbp), %rcx
	movq	%rcx, -136(%rbp)
	movq	-136(%rbp), %rcx
	addq	$1, %rcx
	movq	%rcx, -128(%rbp)
	movq	-128(%rbp), %rcx
	movq	%rcx, -120(%rbp)
	movq	-120(%rbp), %rcx
	movq	%rcx, -232(%rbp)        ## 8-byte Spill
LBB39_3:                                ## %_ZNKSt3__112basic_stringIcNS_11char_traitsIcEENS_9allocatorIcEEE4dataEv.exit
	movq	-232(%rbp), %rax        ## 8-byte Reload
	movq	%rax, -88(%rbp)
	movq	-88(%rbp), %rsi
	movq	-208(%rbp), %rax
	movq	%rax, -80(%rbp)
	movq	-80(%rbp), %rax
	movq	%rax, -72(%rbp)
	movq	-72(%rbp), %rcx
	movq	%rcx, -64(%rbp)
	movq	-64(%rbp), %rcx
	movq	%rcx, -56(%rbp)
	movq	-56(%rbp), %rcx
	movzbl	(%rcx), %edx
	andl	$1, %edx
	cmpl	$0, %edx
	movq	%rsi, -240(%rbp)        ## 8-byte Spill
	movq	%rax, -248(%rbp)        ## 8-byte Spill
	je	LBB39_5
## BB#4:
	movq	-248(%rbp), %rax        ## 8-byte Reload
	movq	%rax, -24(%rbp)
	movq	-24(%rbp), %rcx
	movq	%rcx, -16(%rbp)
	movq	-16(%rbp), %rcx
	movq	%rcx, -8(%rbp)
	movq	-8(%rbp), %rcx
	movq	8(%rcx), %rcx
	movq	%rcx, -256(%rbp)        ## 8-byte Spill
	jmp	LBB39_6
LBB39_5:
	movq	-248(%rbp), %rax        ## 8-byte Reload
	movq	%rax, -48(%rbp)
	movq	-48(%rbp), %rcx
	movq	%rcx, -40(%rbp)
	movq	-40(%rbp), %rcx
	movq	%rcx, -32(%rbp)
	movq	-32(%rbp), %rcx
	movzbl	(%rcx), %edx
	sarl	$1, %edx
	movslq	%edx, %rcx
	movq	%rcx, -256(%rbp)        ## 8-byte Spill
LBB39_6:                                ## %_ZNKSt3__112basic_stringIcNS_11char_traitsIcEENS_9allocatorIcEEE4sizeEv.exit
	movq	-256(%rbp), %rax        ## 8-byte Reload
	movq	-216(%rbp), %rdi        ## 8-byte Reload
	movq	-240(%rbp), %rsi        ## 8-byte Reload
	movq	%rax, %rdx
	callq	__ZNSt3__124__put_character_sequenceIcNS_11char_traitsIcEEEERNS_13basic_ostreamIT_T0_EES7_PKS4_m
	addq	$256, %rsp              ## imm = 0x100
	popq	%rbp
	retq
	.cfi_endproc

	.globl	__ZNSt3__111__tree_nextIPNS_16__tree_node_baseIPvEEEET_S5_
	.weak_def_can_be_hidden	__ZNSt3__111__tree_nextIPNS_16__tree_node_baseIPvEEEET_S5_
	.align	4, 0x90
__ZNSt3__111__tree_nextIPNS_16__tree_node_baseIPvEEEET_S5_: ## @_ZNSt3__111__tree_nextIPNS_16__tree_node_baseIPvEEEET_S5_
	.cfi_startproc
## BB#0:
	pushq	%rbp
Ltmp229:
	.cfi_def_cfa_offset 16
Ltmp230:
	.cfi_offset %rbp, -16
	movq	%rsp, %rbp
Ltmp231:
	.cfi_def_cfa_register %rbp
	movq	%rdi, -32(%rbp)
	movq	-32(%rbp), %rdi
	cmpq	$0, 8(%rdi)
	je	LBB40_5
## BB#1:
	movq	-32(%rbp), %rax
	movq	8(%rax), %rax
	movq	%rax, -16(%rbp)
LBB40_2:                                ## =>This Inner Loop Header: Depth=1
	movq	-16(%rbp), %rax
	cmpq	$0, (%rax)
	je	LBB40_4
## BB#3:                                ##   in Loop: Header=BB40_2 Depth=1
	movq	-16(%rbp), %rax
	movq	(%rax), %rax
	movq	%rax, -16(%rbp)
	jmp	LBB40_2
LBB40_4:                                ## %_ZNSt3__110__tree_minIPNS_16__tree_node_baseIPvEEEET_S5_.exit
	movq	-16(%rbp), %rax
	movq	%rax, -24(%rbp)
	jmp	LBB40_9
LBB40_5:
	jmp	LBB40_6
LBB40_6:                                ## =>This Inner Loop Header: Depth=1
	movq	-32(%rbp), %rax
	movq	%rax, -8(%rbp)
	movq	-8(%rbp), %rax
	movq	-8(%rbp), %rcx
	movq	16(%rcx), %rcx
	cmpq	(%rcx), %rax
	sete	%dl
	xorb	$1, %dl
	testb	$1, %dl
	jne	LBB40_7
	jmp	LBB40_8
LBB40_7:                                ##   in Loop: Header=BB40_6 Depth=1
	movq	-32(%rbp), %rax
	movq	16(%rax), %rax
	movq	%rax, -32(%rbp)
	jmp	LBB40_6
LBB40_8:
	movq	-32(%rbp), %rax
	movq	16(%rax), %rax
	movq	%rax, -24(%rbp)
LBB40_9:
	movq	-24(%rbp), %rax
	popq	%rbp
	retq
	.cfi_endproc

	.globl	__ZNSt3__16__treeINS_12__value_typeIiNS_12basic_stringIcNS_11char_traitsIcEENS_9allocatorIcEEEEEENS_19__map_value_compareIiS8_NS_4lessIiEELb1EEENS5_IS8_EEE14__insert_multiIRKNS_4pairIKiS7_EEEENS_15__tree_iteratorIS8_PNS_11__tree_nodeIS8_PvEElEENS_21__tree_const_iteratorIS8_SP_lEEOT_
	.weak_def_can_be_hidden	__ZNSt3__16__treeINS_12__value_typeIiNS_12basic_stringIcNS_11char_traitsIcEENS_9allocatorIcEEEEEENS_19__map_value_compareIiS8_NS_4lessIiEELb1EEENS5_IS8_EEE14__insert_multiIRKNS_4pairIKiS7_EEEENS_15__tree_iteratorIS8_PNS_11__tree_nodeIS8_PvEElEENS_21__tree_const_iteratorIS8_SP_lEEOT_
	.align	4, 0x90
__ZNSt3__16__treeINS_12__value_typeIiNS_12basic_stringIcNS_11char_traitsIcEENS_9allocatorIcEEEEEENS_19__map_value_compareIiS8_NS_4lessIiEELb1EEENS5_IS8_EEE14__insert_multiIRKNS_4pairIKiS7_EEEENS_15__tree_iteratorIS8_PNS_11__tree_nodeIS8_PvEElEENS_21__tree_const_iteratorIS8_SP_lEEOT_: ## @_ZNSt3__16__treeINS_12__value_typeIiNS_12basic_stringIcNS_11char_traitsIcEENS_9allocatorIcEEEEEENS_19__map_value_compareIiS8_NS_4lessIiEELb1EEENS5_IS8_EEE14__insert_multiIRKNS_4pairIKiS7_EEEENS_15__tree_iteratorIS8_PNS_11__tree_nodeIS8_PvEElEENS_21__tree_const_iteratorIS8_SP_lEEOT_
Lfunc_begin41:
	.cfi_startproc
	.cfi_personality 155, ___gxx_personality_v0
	.cfi_lsda 16, Lexception41
## BB#0:
	pushq	%rbp
Ltmp237:
	.cfi_def_cfa_offset 16
Ltmp238:
	.cfi_offset %rbp, -16
	movq	%rsp, %rbp
Ltmp239:
	.cfi_def_cfa_register %rbp
	subq	$784, %rsp              ## imm = 0x310
	movq	%rsi, -632(%rbp)
	movq	%rdi, -640(%rbp)
	movq	%rdx, -648(%rbp)
	movq	-640(%rbp), %rsi
	movq	%rdx, -616(%rbp)
	leaq	-672(%rbp), %rdi
	movq	%rdi, -720(%rbp)        ## 8-byte Spill
	movq	%rsi, -728(%rbp)        ## 8-byte Spill
	callq	__ZNSt3__16__treeINS_12__value_typeIiNS_12basic_stringIcNS_11char_traitsIcEENS_9allocatorIcEEEEEENS_19__map_value_compareIiS8_NS_4lessIiEELb1EEENS5_IS8_EEE16__construct_nodeIJRKNS_4pairIKiS7_EEEEENS_10unique_ptrINS_11__tree_nodeIS8_PvEENS_22__tree_node_destructorINS5_ISO_EEEEEEDpOT_
	movq	-632(%rbp), %rdx
	movq	%rdx, -696(%rbp)
	movq	-720(%rbp), %rdx        ## 8-byte Reload
	movq	%rdx, -368(%rbp)
	movq	%rdx, -360(%rbp)
	movq	%rdx, -352(%rbp)
	movq	-672(%rbp), %rsi
	addq	$32, %rsi
	movq	-696(%rbp), %rdi
Ltmp232:
	leaq	-680(%rbp), %rdx
	movq	-728(%rbp), %rax        ## 8-byte Reload
	movq	%rdi, -736(%rbp)        ## 8-byte Spill
	movq	%rax, %rdi
	movq	-736(%rbp), %rcx        ## 8-byte Reload
	movq	%rsi, -744(%rbp)        ## 8-byte Spill
	movq	%rcx, %rsi
	movq	-744(%rbp), %rcx        ## 8-byte Reload
	callq	__ZNSt3__16__treeINS_12__value_typeIiNS_12basic_stringIcNS_11char_traitsIcEENS_9allocatorIcEEEEEENS_19__map_value_compareIiS8_NS_4lessIiEELb1EEENS5_IS8_EEE11__find_leafENS_21__tree_const_iteratorIS8_PNS_11__tree_nodeIS8_PvEElEERPNS_16__tree_node_baseISH_EERKS8_
Ltmp233:
	movq	%rax, -752(%rbp)        ## 8-byte Spill
	jmp	LBB41_1
LBB41_1:
	movq	-752(%rbp), %rax        ## 8-byte Reload
	movq	%rax, -688(%rbp)
	movq	-680(%rbp), %rsi
	leaq	-672(%rbp), %rcx
	movq	%rcx, -344(%rbp)
	movq	%rcx, -336(%rbp)
	movq	%rcx, -328(%rbp)
	movq	-672(%rbp), %rcx
Ltmp234:
	movq	-728(%rbp), %rdi        ## 8-byte Reload
	movq	%rax, %rdx
	callq	__ZNSt3__16__treeINS_12__value_typeIiNS_12basic_stringIcNS_11char_traitsIcEENS_9allocatorIcEEEEEENS_19__map_value_compareIiS8_NS_4lessIiEELb1EEENS5_IS8_EEE16__insert_node_atEPNS_16__tree_node_baseIPvEERSI_SI_
Ltmp235:
	jmp	LBB41_2
LBB41_2:
	leaq	-672(%rbp), %rax
	leaq	-624(%rbp), %rcx
	movq	%rax, -72(%rbp)
	movq	-72(%rbp), %rdx
	movq	%rdx, -64(%rbp)
	movq	-64(%rbp), %rsi
	movq	%rsi, -56(%rbp)
	movq	-56(%rbp), %rsi
	movq	(%rsi), %rsi
	movq	%rsi, -80(%rbp)
	movq	%rdx, -48(%rbp)
	movq	-48(%rbp), %rdx
	movq	%rdx, -40(%rbp)
	movq	-40(%rbp), %rdx
	movq	$0, (%rdx)
	movq	-80(%rbp), %rdx
	movq	%rcx, -24(%rbp)
	movq	%rdx, -32(%rbp)
	movq	-24(%rbp), %rcx
	movq	-32(%rbp), %rdx
	movq	%rcx, -8(%rbp)
	movq	%rdx, -16(%rbp)
	movq	-8(%rbp), %rcx
	movq	-16(%rbp), %rdx
	movq	%rdx, (%rcx)
	movl	$1, -712(%rbp)
	movq	%rax, -320(%rbp)
	movq	-320(%rbp), %rax
	movq	%rax, -312(%rbp)
	movq	-312(%rbp), %rax
	movq	%rax, -288(%rbp)
	movq	$0, -296(%rbp)
	movq	-288(%rbp), %rax
	movq	%rax, -280(%rbp)
	movq	-280(%rbp), %rcx
	movq	%rcx, -272(%rbp)
	movq	-272(%rbp), %rcx
	movq	(%rcx), %rcx
	movq	%rcx, -304(%rbp)
	movq	-296(%rbp), %rcx
	movq	%rax, -112(%rbp)
	movq	-112(%rbp), %rdx
	movq	%rdx, -104(%rbp)
	movq	-104(%rbp), %rdx
	movq	%rcx, (%rdx)
	cmpq	$0, -304(%rbp)
	movq	%rax, -760(%rbp)        ## 8-byte Spill
	je	LBB41_8
## BB#3:
	movq	-760(%rbp), %rax        ## 8-byte Reload
	movq	%rax, -96(%rbp)
	movq	-96(%rbp), %rcx
	movq	%rcx, -88(%rbp)
	movq	-88(%rbp), %rcx
	addq	$8, %rcx
	movq	-304(%rbp), %rdx
	movq	%rcx, -256(%rbp)
	movq	%rdx, -264(%rbp)
	movq	-256(%rbp), %rcx
	testb	$1, 8(%rcx)
	movq	%rcx, -768(%rbp)        ## 8-byte Spill
	je	LBB41_5
## BB#4:
	movq	-768(%rbp), %rax        ## 8-byte Reload
	movq	(%rax), %rcx
	movq	-264(%rbp), %rdx
	addq	$32, %rdx
	movq	%rdx, -248(%rbp)
	movq	-248(%rbp), %rdx
	movq	%rcx, -216(%rbp)
	movq	%rdx, -224(%rbp)
	movq	-216(%rbp), %rcx
	movq	-224(%rbp), %rdx
	movq	%rcx, -200(%rbp)
	movq	%rdx, -208(%rbp)
	movq	-208(%rbp), %rcx
	movq	%rcx, -184(%rbp)
	movq	-184(%rbp), %rcx
	movq	%rcx, -176(%rbp)
	movq	-176(%rbp), %rcx
	movq	%rcx, %rdi
	callq	__ZNSt3__14pairIKiNS_12basic_stringIcNS_11char_traitsIcEENS_9allocatorIcEEEEED1Ev
LBB41_5:
	cmpq	$0, -264(%rbp)
	je	LBB41_7
## BB#6:
	movq	-768(%rbp), %rax        ## 8-byte Reload
	movq	(%rax), %rcx
	movq	-264(%rbp), %rdx
	movq	%rcx, -152(%rbp)
	movq	%rdx, -160(%rbp)
	movq	$1, -168(%rbp)
	movq	-152(%rbp), %rcx
	movq	-160(%rbp), %rdx
	movq	-168(%rbp), %rsi
	movq	%rcx, -128(%rbp)
	movq	%rdx, -136(%rbp)
	movq	%rsi, -144(%rbp)
	movq	-136(%rbp), %rcx
	movq	%rcx, -120(%rbp)
	movq	-120(%rbp), %rdi
	callq	__ZdlPv
LBB41_7:                                ## %_ZNSt3__122__tree_node_destructorINS_9allocatorINS_11__tree_nodeINS_12__value_typeIiNS_12basic_stringIcNS_11char_traitsIcEENS1_IcEEEEEEPvEEEEEclEPSB_.exit.i.i.i2
	jmp	LBB41_8
LBB41_8:                                ## %_ZNSt3__110unique_ptrINS_11__tree_nodeINS_12__value_typeIiNS_12basic_stringIcNS_11char_traitsIcEENS_9allocatorIcEEEEEEPvEENS_22__tree_node_destructorINS6_ISB_EEEEED1Ev.exit3
	movq	-624(%rbp), %rax
	addq	$784, %rsp              ## imm = 0x310
	popq	%rbp
	retq
LBB41_9:
Ltmp236:
	leaq	-672(%rbp), %rcx
	movl	%edx, %esi
	movq	%rax, -704(%rbp)
	movl	%esi, -708(%rbp)
	movq	%rcx, -608(%rbp)
	movq	-608(%rbp), %rax
	movq	%rax, -600(%rbp)
	movq	-600(%rbp), %rax
	movq	%rax, -576(%rbp)
	movq	$0, -584(%rbp)
	movq	-576(%rbp), %rax
	movq	%rax, -568(%rbp)
	movq	-568(%rbp), %rcx
	movq	%rcx, -560(%rbp)
	movq	-560(%rbp), %rcx
	movq	(%rcx), %rcx
	movq	%rcx, -592(%rbp)
	movq	-584(%rbp), %rcx
	movq	%rax, -400(%rbp)
	movq	-400(%rbp), %rdx
	movq	%rdx, -392(%rbp)
	movq	-392(%rbp), %rdx
	movq	%rcx, (%rdx)
	cmpq	$0, -592(%rbp)
	movq	%rax, -776(%rbp)        ## 8-byte Spill
	je	LBB41_15
## BB#10:
	movq	-776(%rbp), %rax        ## 8-byte Reload
	movq	%rax, -384(%rbp)
	movq	-384(%rbp), %rcx
	movq	%rcx, -376(%rbp)
	movq	-376(%rbp), %rcx
	addq	$8, %rcx
	movq	-592(%rbp), %rdx
	movq	%rcx, -544(%rbp)
	movq	%rdx, -552(%rbp)
	movq	-544(%rbp), %rcx
	testb	$1, 8(%rcx)
	movq	%rcx, -784(%rbp)        ## 8-byte Spill
	je	LBB41_12
## BB#11:
	movq	-784(%rbp), %rax        ## 8-byte Reload
	movq	(%rax), %rcx
	movq	-552(%rbp), %rdx
	addq	$32, %rdx
	movq	%rdx, -536(%rbp)
	movq	-536(%rbp), %rdx
	movq	%rcx, -504(%rbp)
	movq	%rdx, -512(%rbp)
	movq	-504(%rbp), %rcx
	movq	-512(%rbp), %rdx
	movq	%rcx, -488(%rbp)
	movq	%rdx, -496(%rbp)
	movq	-496(%rbp), %rcx
	movq	%rcx, -472(%rbp)
	movq	-472(%rbp), %rcx
	movq	%rcx, -464(%rbp)
	movq	-464(%rbp), %rcx
	movq	%rcx, %rdi
	callq	__ZNSt3__14pairIKiNS_12basic_stringIcNS_11char_traitsIcEENS_9allocatorIcEEEEED1Ev
LBB41_12:
	cmpq	$0, -552(%rbp)
	je	LBB41_14
## BB#13:
	movq	-784(%rbp), %rax        ## 8-byte Reload
	movq	(%rax), %rcx
	movq	-552(%rbp), %rdx
	movq	%rcx, -440(%rbp)
	movq	%rdx, -448(%rbp)
	movq	$1, -456(%rbp)
	movq	-440(%rbp), %rcx
	movq	-448(%rbp), %rdx
	movq	-456(%rbp), %rsi
	movq	%rcx, -416(%rbp)
	movq	%rdx, -424(%rbp)
	movq	%rsi, -432(%rbp)
	movq	-424(%rbp), %rcx
	movq	%rcx, -408(%rbp)
	movq	-408(%rbp), %rdi
	callq	__ZdlPv
LBB41_14:                               ## %_ZNSt3__122__tree_node_destructorINS_9allocatorINS_11__tree_nodeINS_12__value_typeIiNS_12basic_stringIcNS_11char_traitsIcEENS1_IcEEEEEEPvEEEEEclEPSB_.exit.i.i.i
	jmp	LBB41_15
LBB41_15:                               ## %_ZNSt3__110unique_ptrINS_11__tree_nodeINS_12__value_typeIiNS_12basic_stringIcNS_11char_traitsIcEENS_9allocatorIcEEEEEEPvEENS_22__tree_node_destructorINS6_ISB_EEEEED1Ev.exit
	jmp	LBB41_16
LBB41_16:
	movq	-704(%rbp), %rdi
	callq	__Unwind_Resume
Lfunc_end41:
	.cfi_endproc
	.section	__TEXT,__gcc_except_tab
	.align	2
GCC_except_table41:
Lexception41:
	.byte	255                     ## @LPStart Encoding = omit
	.byte	155                     ## @TType Encoding = indirect pcrel sdata4
	.byte	41                      ## @TType base offset
	.byte	3                       ## Call site Encoding = udata4
	.byte	39                      ## Call site table length
Lset96 = Lfunc_begin41-Lfunc_begin41    ## >> Call Site 1 <<
	.long	Lset96
Lset97 = Ltmp232-Lfunc_begin41          ##   Call between Lfunc_begin41 and Ltmp232
	.long	Lset97
	.long	0                       ##     has no landing pad
	.byte	0                       ##   On action: cleanup
Lset98 = Ltmp232-Lfunc_begin41          ## >> Call Site 2 <<
	.long	Lset98
Lset99 = Ltmp235-Ltmp232                ##   Call between Ltmp232 and Ltmp235
	.long	Lset99
Lset100 = Ltmp236-Lfunc_begin41         ##     jumps to Ltmp236
	.long	Lset100
	.byte	0                       ##   On action: cleanup
Lset101 = Ltmp235-Lfunc_begin41         ## >> Call Site 3 <<
	.long	Lset101
Lset102 = Lfunc_end41-Ltmp235           ##   Call between Ltmp235 and Lfunc_end41
	.long	Lset102
	.long	0                       ##     has no landing pad
	.byte	0                       ##   On action: cleanup
	.align	2

	.section	__TEXT,__textcoal_nt,coalesced,pure_instructions
	.globl	__ZNSt3__16__treeINS_12__value_typeIiNS_12basic_stringIcNS_11char_traitsIcEENS_9allocatorIcEEEEEENS_19__map_value_compareIiS8_NS_4lessIiEELb1EEENS5_IS8_EEE16__construct_nodeIJRKNS_4pairIKiS7_EEEEENS_10unique_ptrINS_11__tree_nodeIS8_PvEENS_22__tree_node_destructorINS5_ISO_EEEEEEDpOT_
	.weak_def_can_be_hidden	__ZNSt3__16__treeINS_12__value_typeIiNS_12basic_stringIcNS_11char_traitsIcEENS_9allocatorIcEEEEEENS_19__map_value_compareIiS8_NS_4lessIiEELb1EEENS5_IS8_EEE16__construct_nodeIJRKNS_4pairIKiS7_EEEEENS_10unique_ptrINS_11__tree_nodeIS8_PvEENS_22__tree_node_destructorINS5_ISO_EEEEEEDpOT_
	.align	4, 0x90
__ZNSt3__16__treeINS_12__value_typeIiNS_12basic_stringIcNS_11char_traitsIcEENS_9allocatorIcEEEEEENS_19__map_value_compareIiS8_NS_4lessIiEELb1EEENS5_IS8_EEE16__construct_nodeIJRKNS_4pairIKiS7_EEEEENS_10unique_ptrINS_11__tree_nodeIS8_PvEENS_22__tree_node_destructorINS5_ISO_EEEEEEDpOT_: ## @_ZNSt3__16__treeINS_12__value_typeIiNS_12basic_stringIcNS_11char_traitsIcEENS_9allocatorIcEEEEEENS_19__map_value_compareIiS8_NS_4lessIiEELb1EEENS5_IS8_EEE16__construct_nodeIJRKNS_4pairIKiS7_EEEEENS_10unique_ptrINS_11__tree_nodeIS8_PvEENS_22__tree_node_destructorINS5_ISO_EEEEEEDpOT_
Lfunc_begin42:
	.cfi_startproc
	.cfi_personality 155, ___gxx_personality_v0
	.cfi_lsda 16, Lexception42
## BB#0:
	pushq	%rbp
Ltmp243:
	.cfi_def_cfa_offset 16
Ltmp244:
	.cfi_offset %rbp, -16
	movq	%rsp, %rbp
Ltmp245:
	.cfi_def_cfa_register %rbp
	subq	$1200, %rsp             ## imm = 0x4B0
	movq	%rdi, %rax
	movq	%rsi, -1080(%rbp)
	movq	%rdx, -1088(%rbp)
	movq	-1080(%rbp), %rdx
	movq	%rdx, -1072(%rbp)
	addq	$8, %rdx
	movq	%rdx, -1064(%rbp)
	movq	%rdx, -1056(%rbp)
	movq	%rdx, -1096(%rbp)
	movb	$0, -1097(%rbp)
	movq	-1096(%rbp), %rdx
	movq	%rdx, -800(%rbp)
	movq	$1, -808(%rbp)
	movq	-800(%rbp), %rdx
	movq	%rdx, -776(%rbp)
	movq	$1, -784(%rbp)
	movq	$0, -792(%rbp)
	movq	-784(%rbp), %rdx
	shlq	$6, %rdx
	movq	%rdx, -768(%rbp)
	movq	%rdi, -1144(%rbp)       ## 8-byte Spill
	movq	%rdx, %rdi
	movq	%rax, -1152(%rbp)       ## 8-byte Spill
	callq	__Znwm
	movq	-1096(%rbp), %rdx
	leaq	-1120(%rbp), %rsi
	movq	%rsi, -744(%rbp)
	movq	%rdx, -752(%rbp)
	movb	$0, -753(%rbp)
	movq	-744(%rbp), %rdx
	movq	-752(%rbp), %rdi
	movq	%rdx, -720(%rbp)
	movq	%rdi, -728(%rbp)
	movb	$0, -729(%rbp)
	movq	-720(%rbp), %rdx
	movq	-728(%rbp), %rdi
	movq	%rdi, (%rdx)
	movb	-729(%rbp), %cl
	andb	$1, %cl
	movb	%cl, 8(%rdx)
	movq	-1144(%rbp), %rdx       ## 8-byte Reload
	movq	%rdx, -696(%rbp)
	movq	%rax, -704(%rbp)
	movq	%rsi, -712(%rbp)
	movq	-696(%rbp), %rax
	movq	-704(%rbp), %rdi
	movq	%rax, -656(%rbp)
	movq	%rdi, -664(%rbp)
	movq	%rsi, -672(%rbp)
	movq	-656(%rbp), %rax
	movq	-664(%rbp), %rdi
	movq	%rsi, -648(%rbp)
	movq	-1120(%rbp), %rsi
	movq	-1112(%rbp), %r8
	movq	%r8, -680(%rbp)
	movq	%rsi, -688(%rbp)
	movq	-688(%rbp), %rsi
	movb	-680(%rbp), %cl
	movq	%rsi, -624(%rbp)
	movb	%cl, -616(%rbp)
	movq	%rax, -632(%rbp)
	movq	%rdi, -640(%rbp)
	movq	-632(%rbp), %rax
	movq	-624(%rbp), %rsi
	movb	-616(%rbp), %cl
	movq	%rsi, -576(%rbp)
	movb	%cl, -568(%rbp)
	movq	%rax, -584(%rbp)
	movq	%rdi, -592(%rbp)
	movq	-584(%rbp), %rax
	leaq	-592(%rbp), %rsi
	movq	%rsi, -560(%rbp)
	movq	-592(%rbp), %rsi
	leaq	-576(%rbp), %rdi
	movq	%rdi, -504(%rbp)
	movq	-576(%rbp), %rdi
	movq	-568(%rbp), %r8
	movq	%r8, -600(%rbp)
	movq	%rdi, -608(%rbp)
	movq	-608(%rbp), %rdi
	movb	-600(%rbp), %cl
	movq	%rdi, -536(%rbp)
	movb	%cl, -528(%rbp)
	movq	%rax, -544(%rbp)
	movq	%rsi, -552(%rbp)
	movq	-544(%rbp), %rax
	leaq	-552(%rbp), %rsi
	movq	%rsi, -520(%rbp)
	movq	-552(%rbp), %rsi
	movq	%rsi, (%rax)
	leaq	-536(%rbp), %rsi
	movq	%rsi, -512(%rbp)
	movq	-536(%rbp), %rsi
	movq	-528(%rbp), %rdi
	movq	%rdi, 16(%rax)
	movq	%rsi, 8(%rax)
	movq	-1096(%rbp), %rax
	movq	%rdx, -256(%rbp)
	movq	%rdx, -248(%rbp)
	movq	%rdx, -240(%rbp)
	movq	(%rdx), %rsi
	addq	$32, %rsi
	movq	%rsi, -232(%rbp)
	movq	-1088(%rbp), %rdi
	movq	%rdi, -8(%rbp)
	movq	%rax, -168(%rbp)
	movq	%rsi, -176(%rbp)
	movq	%rdi, -184(%rbp)
	movq	-168(%rbp), %rax
	movq	-176(%rbp), %rsi
	movq	%rdi, -160(%rbp)
	movq	%rax, -136(%rbp)
	movq	%rsi, -144(%rbp)
	movq	%rdi, -152(%rbp)
	movq	-136(%rbp), %rax
	movq	-144(%rbp), %rsi
	movq	%rdi, -120(%rbp)
	movq	%rax, -96(%rbp)
	movq	%rsi, -104(%rbp)
	movq	%rdi, -112(%rbp)
	movq	-104(%rbp), %rax
	movq	%rdi, -88(%rbp)
	movq	%rax, -72(%rbp)
	movq	%rdi, -80(%rbp)
	movq	-72(%rbp), %rax
	movq	%rax, -56(%rbp)
	movq	%rdi, -64(%rbp)
	movq	-56(%rbp), %rax
	movq	%rdi, -48(%rbp)
	movq	%rax, -32(%rbp)
	movq	%rdi, -40(%rbp)
	movq	-32(%rbp), %rax
	movq	%rax, -16(%rbp)
	movq	%rdi, -24(%rbp)
	movq	-16(%rbp), %rax
	movl	(%rdi), %r9d
	movl	%r9d, (%rax)
	movq	%rax, %rsi
	addq	$8, %rsi
	movq	-24(%rbp), %rdi
	addq	$8, %rdi
Ltmp240:
	movq	%rdi, -1160(%rbp)       ## 8-byte Spill
	movq	%rsi, %rdi
	movq	-1160(%rbp), %rsi       ## 8-byte Reload
	movq	%rax, -1168(%rbp)       ## 8-byte Spill
	callq	__ZNSt3__112basic_stringIcNS_11char_traitsIcEENS_9allocatorIcEEEC1ERKS5_
Ltmp241:
	jmp	LBB42_1
LBB42_1:                                ## %_ZNSt3__116allocator_traitsINS_9allocatorINS_11__tree_nodeINS_12__value_typeIiNS_12basic_stringIcNS_11char_traitsIcEENS1_IcEEEEEEPvEEEEE9constructIS9_JRKNS_4pairIKiS8_EEEEEvRSC_PT_DpOT0_.exit
	movq	-24(%rbp), %rax
	movl	(%rax), %ecx
	movq	-1168(%rbp), %rax       ## 8-byte Reload
	movl	%ecx, (%rax)
## BB#2:
	movq	-1144(%rbp), %rax       ## 8-byte Reload
	movq	%rax, -224(%rbp)
	movq	-224(%rbp), %rcx
	movq	%rcx, -216(%rbp)
	movq	-216(%rbp), %rcx
	movq	%rcx, -208(%rbp)
	movq	-208(%rbp), %rcx
	movb	$1, 16(%rcx)
	movb	$1, -1097(%rbp)
	movl	$1, -1136(%rbp)
	testb	$1, -1097(%rbp)
	jne	LBB42_17
	jmp	LBB42_10
LBB42_3:
Ltmp242:
	movl	%edx, %ecx
	movq	%rax, -1128(%rbp)
	movl	%ecx, -1132(%rbp)
	movq	-1144(%rbp), %rax       ## 8-byte Reload
	movq	%rax, -496(%rbp)
	movq	-496(%rbp), %rdx
	movq	%rdx, -488(%rbp)
	movq	-488(%rbp), %rdx
	movq	%rdx, -464(%rbp)
	movq	$0, -472(%rbp)
	movq	-464(%rbp), %rdx
	movq	%rdx, -456(%rbp)
	movq	-456(%rbp), %rsi
	movq	%rsi, -448(%rbp)
	movq	-448(%rbp), %rsi
	movq	(%rsi), %rsi
	movq	%rsi, -480(%rbp)
	movq	-472(%rbp), %rsi
	movq	%rdx, -288(%rbp)
	movq	-288(%rbp), %rdi
	movq	%rdi, -280(%rbp)
	movq	-280(%rbp), %rdi
	movq	%rsi, (%rdi)
	cmpq	$0, -480(%rbp)
	movq	%rdx, -1176(%rbp)       ## 8-byte Spill
	je	LBB42_9
## BB#4:
	movq	-1176(%rbp), %rax       ## 8-byte Reload
	movq	%rax, -272(%rbp)
	movq	-272(%rbp), %rcx
	movq	%rcx, -264(%rbp)
	movq	-264(%rbp), %rcx
	addq	$8, %rcx
	movq	-480(%rbp), %rdx
	movq	%rcx, -432(%rbp)
	movq	%rdx, -440(%rbp)
	movq	-432(%rbp), %rcx
	testb	$1, 8(%rcx)
	movq	%rcx, -1184(%rbp)       ## 8-byte Spill
	je	LBB42_6
## BB#5:
	movq	-1184(%rbp), %rax       ## 8-byte Reload
	movq	(%rax), %rcx
	movq	-440(%rbp), %rdx
	addq	$32, %rdx
	movq	%rdx, -424(%rbp)
	movq	-424(%rbp), %rdx
	movq	%rcx, -392(%rbp)
	movq	%rdx, -400(%rbp)
	movq	-392(%rbp), %rcx
	movq	-400(%rbp), %rdx
	movq	%rcx, -376(%rbp)
	movq	%rdx, -384(%rbp)
	movq	-384(%rbp), %rcx
	movq	%rcx, -360(%rbp)
	movq	-360(%rbp), %rcx
	movq	%rcx, -352(%rbp)
	movq	-352(%rbp), %rcx
	movq	%rcx, %rdi
	callq	__ZNSt3__14pairIKiNS_12basic_stringIcNS_11char_traitsIcEENS_9allocatorIcEEEEED1Ev
LBB42_6:
	cmpq	$0, -440(%rbp)
	je	LBB42_8
## BB#7:
	movq	-1184(%rbp), %rax       ## 8-byte Reload
	movq	(%rax), %rcx
	movq	-440(%rbp), %rdx
	movq	%rcx, -328(%rbp)
	movq	%rdx, -336(%rbp)
	movq	$1, -344(%rbp)
	movq	-328(%rbp), %rcx
	movq	-336(%rbp), %rdx
	movq	-344(%rbp), %rsi
	movq	%rcx, -304(%rbp)
	movq	%rdx, -312(%rbp)
	movq	%rsi, -320(%rbp)
	movq	-312(%rbp), %rcx
	movq	%rcx, -296(%rbp)
	movq	-296(%rbp), %rdi
	callq	__ZdlPv
LBB42_8:                                ## %_ZNSt3__122__tree_node_destructorINS_9allocatorINS_11__tree_nodeINS_12__value_typeIiNS_12basic_stringIcNS_11char_traitsIcEENS1_IcEEEEEEPvEEEEEclEPSB_.exit.i.i.i2
	jmp	LBB42_9
LBB42_9:                                ## %_ZNSt3__110unique_ptrINS_11__tree_nodeINS_12__value_typeIiNS_12basic_stringIcNS_11char_traitsIcEENS_9allocatorIcEEEEEEPvEENS_22__tree_node_destructorINS6_ISB_EEEEED1Ev.exit3
	jmp	LBB42_18
LBB42_10:
	movq	-1144(%rbp), %rax       ## 8-byte Reload
	movq	%rax, -1048(%rbp)
	movq	-1048(%rbp), %rcx
	movq	%rcx, -1040(%rbp)
	movq	-1040(%rbp), %rcx
	movq	%rcx, -1016(%rbp)
	movq	$0, -1024(%rbp)
	movq	-1016(%rbp), %rcx
	movq	%rcx, -1008(%rbp)
	movq	-1008(%rbp), %rdx
	movq	%rdx, -1000(%rbp)
	movq	-1000(%rbp), %rdx
	movq	(%rdx), %rdx
	movq	%rdx, -1032(%rbp)
	movq	-1024(%rbp), %rdx
	movq	%rcx, -840(%rbp)
	movq	-840(%rbp), %rsi
	movq	%rsi, -832(%rbp)
	movq	-832(%rbp), %rsi
	movq	%rdx, (%rsi)
	cmpq	$0, -1032(%rbp)
	movq	%rcx, -1192(%rbp)       ## 8-byte Spill
	je	LBB42_16
## BB#11:
	movq	-1192(%rbp), %rax       ## 8-byte Reload
	movq	%rax, -824(%rbp)
	movq	-824(%rbp), %rcx
	movq	%rcx, -816(%rbp)
	movq	-816(%rbp), %rcx
	addq	$8, %rcx
	movq	-1032(%rbp), %rdx
	movq	%rcx, -984(%rbp)
	movq	%rdx, -992(%rbp)
	movq	-984(%rbp), %rcx
	testb	$1, 8(%rcx)
	movq	%rcx, -1200(%rbp)       ## 8-byte Spill
	je	LBB42_13
## BB#12:
	movq	-1200(%rbp), %rax       ## 8-byte Reload
	movq	(%rax), %rcx
	movq	-992(%rbp), %rdx
	addq	$32, %rdx
	movq	%rdx, -976(%rbp)
	movq	-976(%rbp), %rdx
	movq	%rcx, -944(%rbp)
	movq	%rdx, -952(%rbp)
	movq	-944(%rbp), %rcx
	movq	-952(%rbp), %rdx
	movq	%rcx, -928(%rbp)
	movq	%rdx, -936(%rbp)
	movq	-936(%rbp), %rcx
	movq	%rcx, -912(%rbp)
	movq	-912(%rbp), %rcx
	movq	%rcx, -904(%rbp)
	movq	-904(%rbp), %rcx
	movq	%rcx, %rdi
	callq	__ZNSt3__14pairIKiNS_12basic_stringIcNS_11char_traitsIcEENS_9allocatorIcEEEEED1Ev
LBB42_13:
	cmpq	$0, -992(%rbp)
	je	LBB42_15
## BB#14:
	movq	-1200(%rbp), %rax       ## 8-byte Reload
	movq	(%rax), %rcx
	movq	-992(%rbp), %rdx
	movq	%rcx, -880(%rbp)
	movq	%rdx, -888(%rbp)
	movq	$1, -896(%rbp)
	movq	-880(%rbp), %rcx
	movq	-888(%rbp), %rdx
	movq	-896(%rbp), %rsi
	movq	%rcx, -856(%rbp)
	movq	%rdx, -864(%rbp)
	movq	%rsi, -872(%rbp)
	movq	-864(%rbp), %rcx
	movq	%rcx, -848(%rbp)
	movq	-848(%rbp), %rdi
	callq	__ZdlPv
LBB42_15:                               ## %_ZNSt3__122__tree_node_destructorINS_9allocatorINS_11__tree_nodeINS_12__value_typeIiNS_12basic_stringIcNS_11char_traitsIcEENS1_IcEEEEEEPvEEEEEclEPSB_.exit.i.i.i
	jmp	LBB42_16
LBB42_16:                               ## %_ZNSt3__110unique_ptrINS_11__tree_nodeINS_12__value_typeIiNS_12basic_stringIcNS_11char_traitsIcEENS_9allocatorIcEEEEEEPvEENS_22__tree_node_destructorINS6_ISB_EEEEED1Ev.exit
	jmp	LBB42_17
LBB42_17:
	movq	-1152(%rbp), %rax       ## 8-byte Reload
	addq	$1200, %rsp             ## imm = 0x4B0
	popq	%rbp
	retq
LBB42_18:
	movq	-1128(%rbp), %rdi
	callq	__Unwind_Resume
Lfunc_end42:
	.cfi_endproc
	.section	__TEXT,__gcc_except_tab
	.align	2
GCC_except_table42:
Lexception42:
	.byte	255                     ## @LPStart Encoding = omit
	.byte	155                     ## @TType Encoding = indirect pcrel sdata4
	.byte	41                      ## @TType base offset
	.byte	3                       ## Call site Encoding = udata4
	.byte	39                      ## Call site table length
Lset103 = Lfunc_begin42-Lfunc_begin42   ## >> Call Site 1 <<
	.long	Lset103
Lset104 = Ltmp240-Lfunc_begin42         ##   Call between Lfunc_begin42 and Ltmp240
	.long	Lset104
	.long	0                       ##     has no landing pad
	.byte	0                       ##   On action: cleanup
Lset105 = Ltmp240-Lfunc_begin42         ## >> Call Site 2 <<
	.long	Lset105
Lset106 = Ltmp241-Ltmp240               ##   Call between Ltmp240 and Ltmp241
	.long	Lset106
Lset107 = Ltmp242-Lfunc_begin42         ##     jumps to Ltmp242
	.long	Lset107
	.byte	0                       ##   On action: cleanup
Lset108 = Ltmp241-Lfunc_begin42         ## >> Call Site 3 <<
	.long	Lset108
Lset109 = Lfunc_end42-Ltmp241           ##   Call between Ltmp241 and Lfunc_end42
	.long	Lset109
	.long	0                       ##     has no landing pad
	.byte	0                       ##   On action: cleanup
	.align	2

	.section	__TEXT,__textcoal_nt,coalesced,pure_instructions
	.globl	__ZNSt3__16__treeINS_12__value_typeIiNS_12basic_stringIcNS_11char_traitsIcEENS_9allocatorIcEEEEEENS_19__map_value_compareIiS8_NS_4lessIiEELb1EEENS5_IS8_EEE11__find_leafENS_21__tree_const_iteratorIS8_PNS_11__tree_nodeIS8_PvEElEERPNS_16__tree_node_baseISH_EERKS8_
	.weak_def_can_be_hidden	__ZNSt3__16__treeINS_12__value_typeIiNS_12basic_stringIcNS_11char_traitsIcEENS_9allocatorIcEEEEEENS_19__map_value_compareIiS8_NS_4lessIiEELb1EEENS5_IS8_EEE11__find_leafENS_21__tree_const_iteratorIS8_PNS_11__tree_nodeIS8_PvEElEERPNS_16__tree_node_baseISH_EERKS8_
	.align	4, 0x90
__ZNSt3__16__treeINS_12__value_typeIiNS_12basic_stringIcNS_11char_traitsIcEENS_9allocatorIcEEEEEENS_19__map_value_compareIiS8_NS_4lessIiEELb1EEENS5_IS8_EEE11__find_leafENS_21__tree_const_iteratorIS8_PNS_11__tree_nodeIS8_PvEElEERPNS_16__tree_node_baseISH_EERKS8_: ## @_ZNSt3__16__treeINS_12__value_typeIiNS_12basic_stringIcNS_11char_traitsIcEENS_9allocatorIcEEEEEENS_19__map_value_compareIiS8_NS_4lessIiEELb1EEENS5_IS8_EEE11__find_leafENS_21__tree_const_iteratorIS8_PNS_11__tree_nodeIS8_PvEElEERPNS_16__tree_node_baseISH_EERKS8_
	.cfi_startproc
## BB#0:
	pushq	%rbp
Ltmp246:
	.cfi_def_cfa_offset 16
Ltmp247:
	.cfi_offset %rbp, -16
	movq	%rsp, %rbp
Ltmp248:
	.cfi_def_cfa_register %rbp
	subq	$528, %rsp              ## imm = 0x210
	leaq	-456(%rbp), %rax
	leaq	-424(%rbp), %r8
	leaq	-400(%rbp), %r9
	movq	%rsi, -424(%rbp)
	movq	%rdi, -432(%rbp)
	movq	%rdx, -440(%rbp)
	movq	%rcx, -448(%rbp)
	movq	-432(%rbp), %rcx
	movq	%rcx, -408(%rbp)
	movq	-408(%rbp), %rdx
	movq	%rdx, -392(%rbp)
	movq	-392(%rbp), %rdx
	addq	$8, %rdx
	movq	%rdx, -384(%rbp)
	movq	-384(%rbp), %rdx
	movq	%rdx, -376(%rbp)
	movq	-376(%rbp), %rdx
	movq	%rdx, -368(%rbp)
	movq	-368(%rbp), %rdx
	movq	%rdx, -360(%rbp)
	movq	-360(%rbp), %rdx
	movq	%r9, -344(%rbp)
	movq	%rdx, -352(%rbp)
	movq	-344(%rbp), %rdx
	movq	-352(%rbp), %rsi
	movq	%rdx, -328(%rbp)
	movq	%rsi, -336(%rbp)
	movq	-328(%rbp), %rdx
	movq	-336(%rbp), %rsi
	movq	%rsi, (%rdx)
	movq	-400(%rbp), %rdx
	movq	%rdx, -464(%rbp)
	movq	-464(%rbp), %rdx
	movq	%rdx, -312(%rbp)
	movq	%rax, -320(%rbp)
	movq	-320(%rbp), %rdx
	movq	-312(%rbp), %rsi
	movq	%rsi, -296(%rbp)
	movq	%rdx, -304(%rbp)
	movq	-304(%rbp), %rdx
	movq	-296(%rbp), %rsi
	movq	%rsi, (%rdx)
	movq	%r8, -280(%rbp)
	movq	%rax, -288(%rbp)
	movq	-280(%rbp), %rax
	movq	(%rax), %rax
	movq	-288(%rbp), %rdx
	cmpq	(%rdx), %rax
	movq	%rcx, -496(%rbp)        ## 8-byte Spill
	je	LBB43_2
## BB#1:
	leaq	-424(%rbp), %rax
	movq	-496(%rbp), %rcx        ## 8-byte Reload
	movq	%rcx, -208(%rbp)
	movq	-208(%rbp), %rdx
	addq	$16, %rdx
	movq	%rdx, -200(%rbp)
	movq	-200(%rbp), %rdx
	movq	%rdx, -192(%rbp)
	movq	-192(%rbp), %rdx
	movq	%rax, -8(%rbp)
	movq	-8(%rbp), %rax
	movq	(%rax), %rax
	addq	$32, %rax
	movq	-448(%rbp), %rsi
	movq	%rdx, -40(%rbp)
	movq	%rax, -48(%rbp)
	movq	%rsi, -56(%rbp)
	movq	-40(%rbp), %rax
	movq	-48(%rbp), %rdx
	movq	-56(%rbp), %rsi
	movq	%rax, -16(%rbp)
	movq	%rdx, -24(%rbp)
	movq	%rsi, -32(%rbp)
	movq	-24(%rbp), %rax
	movl	(%rax), %edi
	movq	-32(%rbp), %rax
	cmpl	(%rax), %edi
	jl	LBB43_8
LBB43_2:
	leaq	-480(%rbp), %rax
	leaq	-472(%rbp), %rcx
	leaq	-104(%rbp), %rdx
	movq	-424(%rbp), %rsi
	movq	%rsi, -472(%rbp)
	movq	-496(%rbp), %rsi        ## 8-byte Reload
	movq	%rsi, -112(%rbp)
	movq	-112(%rbp), %rdi
	movq	%rdi, -96(%rbp)
	movq	-96(%rbp), %rdi
	movq	(%rdi), %rdi
	movq	%rdx, -80(%rbp)
	movq	%rdi, -88(%rbp)
	movq	-80(%rbp), %rdx
	movq	-88(%rbp), %rdi
	movq	%rdx, -64(%rbp)
	movq	%rdi, -72(%rbp)
	movq	-64(%rbp), %rdx
	movq	-72(%rbp), %rdi
	movq	%rdi, (%rdx)
	movq	-104(%rbp), %rdx
	movq	%rdx, -488(%rbp)
	movq	-488(%rbp), %rdx
	movq	%rdx, -136(%rbp)
	movq	%rax, -144(%rbp)
	movq	-144(%rbp), %rdx
	movq	-136(%rbp), %rdi
	movq	%rdi, -120(%rbp)
	movq	%rdx, -128(%rbp)
	movq	-128(%rbp), %rdx
	movq	-120(%rbp), %rdi
	movq	%rdi, (%rdx)
	movq	%rcx, -152(%rbp)
	movq	%rax, -160(%rbp)
	movq	-152(%rbp), %rax
	movq	(%rax), %rax
	movq	-160(%rbp), %rcx
	cmpq	(%rcx), %rax
	je	LBB43_4
## BB#3:
	leaq	-472(%rbp), %rax
	movq	-496(%rbp), %rcx        ## 8-byte Reload
	movq	%rcx, -184(%rbp)
	movq	-184(%rbp), %rdx
	addq	$16, %rdx
	movq	%rdx, -176(%rbp)
	movq	-176(%rbp), %rdx
	movq	%rdx, -168(%rbp)
	movq	-168(%rbp), %rdx
	movq	-448(%rbp), %rsi
	movq	%rax, -216(%rbp)
	movq	-216(%rbp), %rax
	movq	(%rax), %rdi
	movq	%rsi, -504(%rbp)        ## 8-byte Spill
	movq	%rdx, -512(%rbp)        ## 8-byte Spill
	movq	%rax, -520(%rbp)        ## 8-byte Spill
	callq	__ZNSt3__111__tree_prevIPNS_16__tree_node_baseIPvEEEET_S5_
	movq	-520(%rbp), %rcx        ## 8-byte Reload
	movq	%rax, (%rcx)
	movq	%rcx, -224(%rbp)
	movq	-224(%rbp), %rax
	movq	(%rax), %rax
	addq	$32, %rax
	movq	-512(%rbp), %rdx        ## 8-byte Reload
	movq	%rdx, -256(%rbp)
	movq	-504(%rbp), %rsi        ## 8-byte Reload
	movq	%rsi, -264(%rbp)
	movq	%rax, -272(%rbp)
	movq	-256(%rbp), %rax
	movq	-264(%rbp), %rsi
	movq	-272(%rbp), %rdi
	movq	%rax, -232(%rbp)
	movq	%rsi, -240(%rbp)
	movq	%rdi, -248(%rbp)
	movq	-240(%rbp), %rax
	movl	(%rax), %r8d
	movq	-248(%rbp), %rax
	cmpl	(%rax), %r8d
	jl	LBB43_7
LBB43_4:
	movq	-424(%rbp), %rax
	cmpq	$0, (%rax)
	jne	LBB43_6
## BB#5:
	movq	-424(%rbp), %rax
	movq	-440(%rbp), %rcx
	movq	%rax, (%rcx)
	movq	-440(%rbp), %rax
	movq	(%rax), %rax
	movq	%rax, -416(%rbp)
	jmp	LBB43_9
LBB43_6:
	movq	-472(%rbp), %rax
	movq	-440(%rbp), %rcx
	movq	%rax, (%rcx)
	movq	-440(%rbp), %rax
	movq	(%rax), %rax
	addq	$8, %rax
	movq	%rax, -416(%rbp)
	jmp	LBB43_9
LBB43_7:
	movq	-440(%rbp), %rsi
	movq	-448(%rbp), %rdx
	movq	-496(%rbp), %rdi        ## 8-byte Reload
	callq	__ZNSt3__16__treeINS_12__value_typeIiNS_12basic_stringIcNS_11char_traitsIcEENS_9allocatorIcEEEEEENS_19__map_value_compareIiS8_NS_4lessIiEELb1EEENS5_IS8_EEE16__find_leaf_highERPNS_16__tree_node_baseIPvEERKS8_
	movq	%rax, -416(%rbp)
	jmp	LBB43_9
LBB43_8:
	movq	-440(%rbp), %rsi
	movq	-448(%rbp), %rdx
	movq	-496(%rbp), %rdi        ## 8-byte Reload
	callq	__ZNSt3__16__treeINS_12__value_typeIiNS_12basic_stringIcNS_11char_traitsIcEENS_9allocatorIcEEEEEENS_19__map_value_compareIiS8_NS_4lessIiEELb1EEENS5_IS8_EEE15__find_leaf_lowERPNS_16__tree_node_baseIPvEERKS8_
	movq	%rax, -416(%rbp)
LBB43_9:
	movq	-416(%rbp), %rax
	addq	$528, %rsp              ## imm = 0x210
	popq	%rbp
	retq
	.cfi_endproc

	.globl	__ZNSt3__16__treeINS_12__value_typeIiNS_12basic_stringIcNS_11char_traitsIcEENS_9allocatorIcEEEEEENS_19__map_value_compareIiS8_NS_4lessIiEELb1EEENS5_IS8_EEE16__find_leaf_highERPNS_16__tree_node_baseIPvEERKS8_
	.weak_def_can_be_hidden	__ZNSt3__16__treeINS_12__value_typeIiNS_12basic_stringIcNS_11char_traitsIcEENS_9allocatorIcEEEEEENS_19__map_value_compareIiS8_NS_4lessIiEELb1EEENS5_IS8_EEE16__find_leaf_highERPNS_16__tree_node_baseIPvEERKS8_
	.align	4, 0x90
__ZNSt3__16__treeINS_12__value_typeIiNS_12basic_stringIcNS_11char_traitsIcEENS_9allocatorIcEEEEEENS_19__map_value_compareIiS8_NS_4lessIiEELb1EEENS5_IS8_EEE16__find_leaf_highERPNS_16__tree_node_baseIPvEERKS8_: ## @_ZNSt3__16__treeINS_12__value_typeIiNS_12basic_stringIcNS_11char_traitsIcEENS_9allocatorIcEEEEEENS_19__map_value_compareIiS8_NS_4lessIiEELb1EEENS5_IS8_EEE16__find_leaf_highERPNS_16__tree_node_baseIPvEERKS8_
	.cfi_startproc
## BB#0:
	pushq	%rbp
Ltmp249:
	.cfi_def_cfa_offset 16
Ltmp250:
	.cfi_offset %rbp, -16
	movq	%rsp, %rbp
Ltmp251:
	.cfi_def_cfa_register %rbp
	subq	$80, %rsp
	movq	%rdi, -176(%rbp)
	movq	%rsi, -184(%rbp)
	movq	%rdx, -192(%rbp)
	movq	-176(%rbp), %rdx
	movq	%rdx, -160(%rbp)
	movq	-160(%rbp), %rsi
	movq	%rsi, -152(%rbp)
	movq	-152(%rbp), %rsi
	addq	$8, %rsi
	movq	%rsi, -144(%rbp)
	movq	-144(%rbp), %rsi
	movq	%rsi, -136(%rbp)
	movq	-136(%rbp), %rsi
	movq	%rsi, -128(%rbp)
	movq	-128(%rbp), %rsi
	movq	%rsi, -120(%rbp)
	movq	-120(%rbp), %rsi
	movq	(%rsi), %rsi
	movq	%rsi, -200(%rbp)
	cmpq	$0, -200(%rbp)
	movq	%rdx, -208(%rbp)        ## 8-byte Spill
	je	LBB44_12
## BB#1:
	jmp	LBB44_2
LBB44_2:                                ## =>This Inner Loop Header: Depth=1
	movq	-208(%rbp), %rax        ## 8-byte Reload
	movq	%rax, -24(%rbp)
	movq	-24(%rbp), %rcx
	addq	$16, %rcx
	movq	%rcx, -16(%rbp)
	movq	-16(%rbp), %rcx
	movq	%rcx, -8(%rbp)
	movq	-8(%rbp), %rcx
	movq	-192(%rbp), %rdx
	movq	-200(%rbp), %rsi
	addq	$32, %rsi
	movq	%rcx, -56(%rbp)
	movq	%rdx, -64(%rbp)
	movq	%rsi, -72(%rbp)
	movq	-56(%rbp), %rcx
	movq	-64(%rbp), %rdx
	movq	-72(%rbp), %rsi
	movq	%rcx, -32(%rbp)
	movq	%rdx, -40(%rbp)
	movq	%rsi, -48(%rbp)
	movq	-40(%rbp), %rcx
	movl	(%rcx), %edi
	movq	-48(%rbp), %rcx
	cmpl	(%rcx), %edi
	jge	LBB44_7
## BB#3:                                ##   in Loop: Header=BB44_2 Depth=1
	movq	-200(%rbp), %rax
	cmpq	$0, (%rax)
	je	LBB44_5
## BB#4:                                ##   in Loop: Header=BB44_2 Depth=1
	movq	-200(%rbp), %rax
	movq	(%rax), %rax
	movq	%rax, -200(%rbp)
	jmp	LBB44_6
LBB44_5:
	movq	-200(%rbp), %rax
	movq	-184(%rbp), %rcx
	movq	%rax, (%rcx)
	movq	-184(%rbp), %rax
	movq	(%rax), %rax
	movq	%rax, -168(%rbp)
	jmp	LBB44_13
LBB44_6:                                ##   in Loop: Header=BB44_2 Depth=1
	jmp	LBB44_11
LBB44_7:                                ##   in Loop: Header=BB44_2 Depth=1
	movq	-200(%rbp), %rax
	cmpq	$0, 8(%rax)
	je	LBB44_9
## BB#8:                                ##   in Loop: Header=BB44_2 Depth=1
	movq	-200(%rbp), %rax
	movq	8(%rax), %rax
	movq	%rax, -200(%rbp)
	jmp	LBB44_10
LBB44_9:
	movq	-200(%rbp), %rax
	movq	-184(%rbp), %rcx
	movq	%rax, (%rcx)
	movq	-184(%rbp), %rax
	movq	(%rax), %rax
	addq	$8, %rax
	movq	%rax, -168(%rbp)
	jmp	LBB44_13
LBB44_10:                               ##   in Loop: Header=BB44_2 Depth=1
	jmp	LBB44_11
LBB44_11:                               ##   in Loop: Header=BB44_2 Depth=1
	jmp	LBB44_2
LBB44_12:
	movq	-208(%rbp), %rax        ## 8-byte Reload
	movq	%rax, -112(%rbp)
	movq	-112(%rbp), %rcx
	addq	$8, %rcx
	movq	%rcx, -104(%rbp)
	movq	-104(%rbp), %rcx
	movq	%rcx, -96(%rbp)
	movq	-96(%rbp), %rcx
	movq	%rcx, -88(%rbp)
	movq	-88(%rbp), %rcx
	movq	%rcx, -80(%rbp)
	movq	-80(%rbp), %rcx
	movq	-184(%rbp), %rdx
	movq	%rcx, (%rdx)
	movq	-184(%rbp), %rcx
	movq	(%rcx), %rcx
	movq	%rcx, -168(%rbp)
LBB44_13:
	movq	-168(%rbp), %rax
	addq	$80, %rsp
	popq	%rbp
	retq
	.cfi_endproc

	.globl	__ZNSt3__16__treeINS_12__value_typeIiNS_12basic_stringIcNS_11char_traitsIcEENS_9allocatorIcEEEEEENS_19__map_value_compareIiS8_NS_4lessIiEELb1EEENS5_IS8_EEE15__find_leaf_lowERPNS_16__tree_node_baseIPvEERKS8_
	.weak_def_can_be_hidden	__ZNSt3__16__treeINS_12__value_typeIiNS_12basic_stringIcNS_11char_traitsIcEENS_9allocatorIcEEEEEENS_19__map_value_compareIiS8_NS_4lessIiEELb1EEENS5_IS8_EEE15__find_leaf_lowERPNS_16__tree_node_baseIPvEERKS8_
	.align	4, 0x90
__ZNSt3__16__treeINS_12__value_typeIiNS_12basic_stringIcNS_11char_traitsIcEENS_9allocatorIcEEEEEENS_19__map_value_compareIiS8_NS_4lessIiEELb1EEENS5_IS8_EEE15__find_leaf_lowERPNS_16__tree_node_baseIPvEERKS8_: ## @_ZNSt3__16__treeINS_12__value_typeIiNS_12basic_stringIcNS_11char_traitsIcEENS_9allocatorIcEEEEEENS_19__map_value_compareIiS8_NS_4lessIiEELb1EEENS5_IS8_EEE15__find_leaf_lowERPNS_16__tree_node_baseIPvEERKS8_
	.cfi_startproc
## BB#0:
	pushq	%rbp
Ltmp252:
	.cfi_def_cfa_offset 16
Ltmp253:
	.cfi_offset %rbp, -16
	movq	%rsp, %rbp
Ltmp254:
	.cfi_def_cfa_register %rbp
	subq	$80, %rsp
	movq	%rdi, -176(%rbp)
	movq	%rsi, -184(%rbp)
	movq	%rdx, -192(%rbp)
	movq	-176(%rbp), %rdx
	movq	%rdx, -160(%rbp)
	movq	-160(%rbp), %rsi
	movq	%rsi, -152(%rbp)
	movq	-152(%rbp), %rsi
	addq	$8, %rsi
	movq	%rsi, -144(%rbp)
	movq	-144(%rbp), %rsi
	movq	%rsi, -136(%rbp)
	movq	-136(%rbp), %rsi
	movq	%rsi, -128(%rbp)
	movq	-128(%rbp), %rsi
	movq	%rsi, -120(%rbp)
	movq	-120(%rbp), %rsi
	movq	(%rsi), %rsi
	movq	%rsi, -200(%rbp)
	cmpq	$0, -200(%rbp)
	movq	%rdx, -208(%rbp)        ## 8-byte Spill
	je	LBB45_12
## BB#1:
	jmp	LBB45_2
LBB45_2:                                ## =>This Inner Loop Header: Depth=1
	movq	-208(%rbp), %rax        ## 8-byte Reload
	movq	%rax, -24(%rbp)
	movq	-24(%rbp), %rcx
	addq	$16, %rcx
	movq	%rcx, -16(%rbp)
	movq	-16(%rbp), %rcx
	movq	%rcx, -8(%rbp)
	movq	-8(%rbp), %rcx
	movq	-200(%rbp), %rdx
	addq	$32, %rdx
	movq	-192(%rbp), %rsi
	movq	%rcx, -56(%rbp)
	movq	%rdx, -64(%rbp)
	movq	%rsi, -72(%rbp)
	movq	-56(%rbp), %rcx
	movq	-64(%rbp), %rdx
	movq	-72(%rbp), %rsi
	movq	%rcx, -32(%rbp)
	movq	%rdx, -40(%rbp)
	movq	%rsi, -48(%rbp)
	movq	-40(%rbp), %rcx
	movl	(%rcx), %edi
	movq	-48(%rbp), %rcx
	cmpl	(%rcx), %edi
	jge	LBB45_7
## BB#3:                                ##   in Loop: Header=BB45_2 Depth=1
	movq	-200(%rbp), %rax
	cmpq	$0, 8(%rax)
	je	LBB45_5
## BB#4:                                ##   in Loop: Header=BB45_2 Depth=1
	movq	-200(%rbp), %rax
	movq	8(%rax), %rax
	movq	%rax, -200(%rbp)
	jmp	LBB45_6
LBB45_5:
	movq	-200(%rbp), %rax
	movq	-184(%rbp), %rcx
	movq	%rax, (%rcx)
	movq	-184(%rbp), %rax
	movq	(%rax), %rax
	addq	$8, %rax
	movq	%rax, -168(%rbp)
	jmp	LBB45_13
LBB45_6:                                ##   in Loop: Header=BB45_2 Depth=1
	jmp	LBB45_11
LBB45_7:                                ##   in Loop: Header=BB45_2 Depth=1
	movq	-200(%rbp), %rax
	cmpq	$0, (%rax)
	je	LBB45_9
## BB#8:                                ##   in Loop: Header=BB45_2 Depth=1
	movq	-200(%rbp), %rax
	movq	(%rax), %rax
	movq	%rax, -200(%rbp)
	jmp	LBB45_10
LBB45_9:
	movq	-200(%rbp), %rax
	movq	-184(%rbp), %rcx
	movq	%rax, (%rcx)
	movq	-184(%rbp), %rax
	movq	(%rax), %rax
	movq	%rax, -168(%rbp)
	jmp	LBB45_13
LBB45_10:                               ##   in Loop: Header=BB45_2 Depth=1
	jmp	LBB45_11
LBB45_11:                               ##   in Loop: Header=BB45_2 Depth=1
	jmp	LBB45_2
LBB45_12:
	movq	-208(%rbp), %rax        ## 8-byte Reload
	movq	%rax, -112(%rbp)
	movq	-112(%rbp), %rcx
	addq	$8, %rcx
	movq	%rcx, -104(%rbp)
	movq	-104(%rbp), %rcx
	movq	%rcx, -96(%rbp)
	movq	-96(%rbp), %rcx
	movq	%rcx, -88(%rbp)
	movq	-88(%rbp), %rcx
	movq	%rcx, -80(%rbp)
	movq	-80(%rbp), %rcx
	movq	-184(%rbp), %rdx
	movq	%rcx, (%rdx)
	movq	-184(%rbp), %rcx
	movq	(%rcx), %rcx
	movq	%rcx, -168(%rbp)
LBB45_13:
	movq	-168(%rbp), %rax
	addq	$80, %rsp
	popq	%rbp
	retq
	.cfi_endproc

	.globl	__ZNSt3__111__tree_prevIPNS_16__tree_node_baseIPvEEEET_S5_
	.weak_def_can_be_hidden	__ZNSt3__111__tree_prevIPNS_16__tree_node_baseIPvEEEET_S5_
	.align	4, 0x90
__ZNSt3__111__tree_prevIPNS_16__tree_node_baseIPvEEEET_S5_: ## @_ZNSt3__111__tree_prevIPNS_16__tree_node_baseIPvEEEET_S5_
	.cfi_startproc
## BB#0:
	pushq	%rbp
Ltmp255:
	.cfi_def_cfa_offset 16
Ltmp256:
	.cfi_offset %rbp, -16
	movq	%rsp, %rbp
Ltmp257:
	.cfi_def_cfa_register %rbp
	movq	%rdi, -32(%rbp)
	movq	-32(%rbp), %rdi
	cmpq	$0, (%rdi)
	je	LBB46_5
## BB#1:
	movq	-32(%rbp), %rax
	movq	(%rax), %rax
	movq	%rax, -16(%rbp)
LBB46_2:                                ## =>This Inner Loop Header: Depth=1
	movq	-16(%rbp), %rax
	cmpq	$0, 8(%rax)
	je	LBB46_4
## BB#3:                                ##   in Loop: Header=BB46_2 Depth=1
	movq	-16(%rbp), %rax
	movq	8(%rax), %rax
	movq	%rax, -16(%rbp)
	jmp	LBB46_2
LBB46_4:                                ## %_ZNSt3__110__tree_maxIPNS_16__tree_node_baseIPvEEEET_S5_.exit
	movq	-16(%rbp), %rax
	movq	%rax, -24(%rbp)
	jmp	LBB46_9
LBB46_5:
	jmp	LBB46_6
LBB46_6:                                ## =>This Inner Loop Header: Depth=1
	movq	-32(%rbp), %rax
	movq	%rax, -8(%rbp)
	movq	-8(%rbp), %rax
	movq	-8(%rbp), %rcx
	movq	16(%rcx), %rcx
	cmpq	(%rcx), %rax
	jne	LBB46_8
## BB#7:                                ##   in Loop: Header=BB46_6 Depth=1
	movq	-32(%rbp), %rax
	movq	16(%rax), %rax
	movq	%rax, -32(%rbp)
	jmp	LBB46_6
LBB46_8:
	movq	-32(%rbp), %rax
	movq	16(%rax), %rax
	movq	%rax, -24(%rbp)
LBB46_9:
	movq	-24(%rbp), %rax
	popq	%rbp
	retq
	.cfi_endproc

	.globl	__ZNSt3__16__treeINS_12__value_typeIiNS_12basic_stringIcNS_11char_traitsIcEENS_9allocatorIcEEEEEENS_19__map_value_compareIiS8_NS_4lessIiEELb1EEENS5_IS8_EEE14__insert_multiINS_4pairIiPKcEEEENS_15__tree_iteratorIS8_PNS_11__tree_nodeIS8_PvEElEEOT_
	.weak_def_can_be_hidden	__ZNSt3__16__treeINS_12__value_typeIiNS_12basic_stringIcNS_11char_traitsIcEENS_9allocatorIcEEEEEENS_19__map_value_compareIiS8_NS_4lessIiEELb1EEENS5_IS8_EEE14__insert_multiINS_4pairIiPKcEEEENS_15__tree_iteratorIS8_PNS_11__tree_nodeIS8_PvEElEEOT_
	.align	4, 0x90
__ZNSt3__16__treeINS_12__value_typeIiNS_12basic_stringIcNS_11char_traitsIcEENS_9allocatorIcEEEEEENS_19__map_value_compareIiS8_NS_4lessIiEELb1EEENS5_IS8_EEE14__insert_multiINS_4pairIiPKcEEEENS_15__tree_iteratorIS8_PNS_11__tree_nodeIS8_PvEElEEOT_: ## @_ZNSt3__16__treeINS_12__value_typeIiNS_12basic_stringIcNS_11char_traitsIcEENS_9allocatorIcEEEEEENS_19__map_value_compareIiS8_NS_4lessIiEELb1EEENS5_IS8_EEE14__insert_multiINS_4pairIiPKcEEEENS_15__tree_iteratorIS8_PNS_11__tree_nodeIS8_PvEElEEOT_
Lfunc_begin47:
	.cfi_startproc
	.cfi_personality 155, ___gxx_personality_v0
	.cfi_lsda 16, Lexception47
## BB#0:
	pushq	%rbp
Ltmp263:
	.cfi_def_cfa_offset 16
Ltmp264:
	.cfi_offset %rbp, -16
	movq	%rsp, %rbp
Ltmp265:
	.cfi_def_cfa_register %rbp
	subq	$768, %rsp              ## imm = 0x300
	movq	%rdi, -632(%rbp)
	movq	%rsi, -640(%rbp)
	movq	-632(%rbp), %rdi
	movq	%rsi, -616(%rbp)
	leaq	-664(%rbp), %rax
	movq	%rdi, -704(%rbp)        ## 8-byte Spill
	movq	%rax, %rdi
	movq	-704(%rbp), %rcx        ## 8-byte Reload
	movq	%rsi, -712(%rbp)        ## 8-byte Spill
	movq	%rcx, %rsi
	movq	-712(%rbp), %rdx        ## 8-byte Reload
	movq	%rax, -720(%rbp)        ## 8-byte Spill
	callq	__ZNSt3__16__treeINS_12__value_typeIiNS_12basic_stringIcNS_11char_traitsIcEENS_9allocatorIcEEEEEENS_19__map_value_compareIiS8_NS_4lessIiEELb1EEENS5_IS8_EEE16__construct_nodeIJNS_4pairIiPKcEEEEENS_10unique_ptrINS_11__tree_nodeIS8_PvEENS_22__tree_node_destructorINS5_ISN_EEEEEEDpOT_
	movq	-720(%rbp), %rax        ## 8-byte Reload
	movq	%rax, -368(%rbp)
	movq	%rax, -360(%rbp)
	movq	%rax, -352(%rbp)
	movq	-664(%rbp), %rcx
	addq	$32, %rcx
Ltmp258:
	leaq	-672(%rbp), %rsi
	movq	-704(%rbp), %rdi        ## 8-byte Reload
	movq	%rcx, %rdx
	callq	__ZNSt3__16__treeINS_12__value_typeIiNS_12basic_stringIcNS_11char_traitsIcEENS_9allocatorIcEEEEEENS_19__map_value_compareIiS8_NS_4lessIiEELb1EEENS5_IS8_EEE16__find_leaf_highERPNS_16__tree_node_baseIPvEERKS8_
Ltmp259:
	movq	%rax, -728(%rbp)        ## 8-byte Spill
	jmp	LBB47_1
LBB47_1:
	movq	-728(%rbp), %rax        ## 8-byte Reload
	movq	%rax, -680(%rbp)
	movq	-672(%rbp), %rsi
	leaq	-664(%rbp), %rcx
	movq	%rcx, -344(%rbp)
	movq	%rcx, -336(%rbp)
	movq	%rcx, -328(%rbp)
	movq	-664(%rbp), %rcx
Ltmp260:
	movq	-704(%rbp), %rdi        ## 8-byte Reload
	movq	%rax, %rdx
	callq	__ZNSt3__16__treeINS_12__value_typeIiNS_12basic_stringIcNS_11char_traitsIcEENS_9allocatorIcEEEEEENS_19__map_value_compareIiS8_NS_4lessIiEELb1EEENS5_IS8_EEE16__insert_node_atEPNS_16__tree_node_baseIPvEERSI_SI_
Ltmp261:
	jmp	LBB47_2
LBB47_2:
	leaq	-664(%rbp), %rax
	leaq	-624(%rbp), %rcx
	movq	%rax, -72(%rbp)
	movq	-72(%rbp), %rdx
	movq	%rdx, -64(%rbp)
	movq	-64(%rbp), %rsi
	movq	%rsi, -56(%rbp)
	movq	-56(%rbp), %rsi
	movq	(%rsi), %rsi
	movq	%rsi, -80(%rbp)
	movq	%rdx, -48(%rbp)
	movq	-48(%rbp), %rdx
	movq	%rdx, -40(%rbp)
	movq	-40(%rbp), %rdx
	movq	$0, (%rdx)
	movq	-80(%rbp), %rdx
	movq	%rcx, -24(%rbp)
	movq	%rdx, -32(%rbp)
	movq	-24(%rbp), %rcx
	movq	-32(%rbp), %rdx
	movq	%rcx, -8(%rbp)
	movq	%rdx, -16(%rbp)
	movq	-8(%rbp), %rcx
	movq	-16(%rbp), %rdx
	movq	%rdx, (%rcx)
	movl	$1, -696(%rbp)
	movq	%rax, -320(%rbp)
	movq	-320(%rbp), %rax
	movq	%rax, -312(%rbp)
	movq	-312(%rbp), %rax
	movq	%rax, -288(%rbp)
	movq	$0, -296(%rbp)
	movq	-288(%rbp), %rax
	movq	%rax, -280(%rbp)
	movq	-280(%rbp), %rcx
	movq	%rcx, -272(%rbp)
	movq	-272(%rbp), %rcx
	movq	(%rcx), %rcx
	movq	%rcx, -304(%rbp)
	movq	-296(%rbp), %rcx
	movq	%rax, -112(%rbp)
	movq	-112(%rbp), %rdx
	movq	%rdx, -104(%rbp)
	movq	-104(%rbp), %rdx
	movq	%rcx, (%rdx)
	cmpq	$0, -304(%rbp)
	movq	%rax, -736(%rbp)        ## 8-byte Spill
	je	LBB47_8
## BB#3:
	movq	-736(%rbp), %rax        ## 8-byte Reload
	movq	%rax, -96(%rbp)
	movq	-96(%rbp), %rcx
	movq	%rcx, -88(%rbp)
	movq	-88(%rbp), %rcx
	addq	$8, %rcx
	movq	-304(%rbp), %rdx
	movq	%rcx, -256(%rbp)
	movq	%rdx, -264(%rbp)
	movq	-256(%rbp), %rcx
	testb	$1, 8(%rcx)
	movq	%rcx, -744(%rbp)        ## 8-byte Spill
	je	LBB47_5
## BB#4:
	movq	-744(%rbp), %rax        ## 8-byte Reload
	movq	(%rax), %rcx
	movq	-264(%rbp), %rdx
	addq	$32, %rdx
	movq	%rdx, -248(%rbp)
	movq	-248(%rbp), %rdx
	movq	%rcx, -216(%rbp)
	movq	%rdx, -224(%rbp)
	movq	-216(%rbp), %rcx
	movq	-224(%rbp), %rdx
	movq	%rcx, -200(%rbp)
	movq	%rdx, -208(%rbp)
	movq	-208(%rbp), %rcx
	movq	%rcx, -184(%rbp)
	movq	-184(%rbp), %rcx
	movq	%rcx, -176(%rbp)
	movq	-176(%rbp), %rcx
	movq	%rcx, %rdi
	callq	__ZNSt3__14pairIKiNS_12basic_stringIcNS_11char_traitsIcEENS_9allocatorIcEEEEED1Ev
LBB47_5:
	cmpq	$0, -264(%rbp)
	je	LBB47_7
## BB#6:
	movq	-744(%rbp), %rax        ## 8-byte Reload
	movq	(%rax), %rcx
	movq	-264(%rbp), %rdx
	movq	%rcx, -152(%rbp)
	movq	%rdx, -160(%rbp)
	movq	$1, -168(%rbp)
	movq	-152(%rbp), %rcx
	movq	-160(%rbp), %rdx
	movq	-168(%rbp), %rsi
	movq	%rcx, -128(%rbp)
	movq	%rdx, -136(%rbp)
	movq	%rsi, -144(%rbp)
	movq	-136(%rbp), %rcx
	movq	%rcx, -120(%rbp)
	movq	-120(%rbp), %rdi
	callq	__ZdlPv
LBB47_7:                                ## %_ZNSt3__122__tree_node_destructorINS_9allocatorINS_11__tree_nodeINS_12__value_typeIiNS_12basic_stringIcNS_11char_traitsIcEENS1_IcEEEEEEPvEEEEEclEPSB_.exit.i.i.i2
	jmp	LBB47_8
LBB47_8:                                ## %_ZNSt3__110unique_ptrINS_11__tree_nodeINS_12__value_typeIiNS_12basic_stringIcNS_11char_traitsIcEENS_9allocatorIcEEEEEEPvEENS_22__tree_node_destructorINS6_ISB_EEEEED1Ev.exit3
	movq	-624(%rbp), %rax
	addq	$768, %rsp              ## imm = 0x300
	popq	%rbp
	retq
LBB47_9:
Ltmp262:
	leaq	-664(%rbp), %rcx
	movl	%edx, %esi
	movq	%rax, -688(%rbp)
	movl	%esi, -692(%rbp)
	movq	%rcx, -608(%rbp)
	movq	-608(%rbp), %rax
	movq	%rax, -600(%rbp)
	movq	-600(%rbp), %rax
	movq	%rax, -576(%rbp)
	movq	$0, -584(%rbp)
	movq	-576(%rbp), %rax
	movq	%rax, -568(%rbp)
	movq	-568(%rbp), %rcx
	movq	%rcx, -560(%rbp)
	movq	-560(%rbp), %rcx
	movq	(%rcx), %rcx
	movq	%rcx, -592(%rbp)
	movq	-584(%rbp), %rcx
	movq	%rax, -400(%rbp)
	movq	-400(%rbp), %rdx
	movq	%rdx, -392(%rbp)
	movq	-392(%rbp), %rdx
	movq	%rcx, (%rdx)
	cmpq	$0, -592(%rbp)
	movq	%rax, -752(%rbp)        ## 8-byte Spill
	je	LBB47_15
## BB#10:
	movq	-752(%rbp), %rax        ## 8-byte Reload
	movq	%rax, -384(%rbp)
	movq	-384(%rbp), %rcx
	movq	%rcx, -376(%rbp)
	movq	-376(%rbp), %rcx
	addq	$8, %rcx
	movq	-592(%rbp), %rdx
	movq	%rcx, -544(%rbp)
	movq	%rdx, -552(%rbp)
	movq	-544(%rbp), %rcx
	testb	$1, 8(%rcx)
	movq	%rcx, -760(%rbp)        ## 8-byte Spill
	je	LBB47_12
## BB#11:
	movq	-760(%rbp), %rax        ## 8-byte Reload
	movq	(%rax), %rcx
	movq	-552(%rbp), %rdx
	addq	$32, %rdx
	movq	%rdx, -536(%rbp)
	movq	-536(%rbp), %rdx
	movq	%rcx, -504(%rbp)
	movq	%rdx, -512(%rbp)
	movq	-504(%rbp), %rcx
	movq	-512(%rbp), %rdx
	movq	%rcx, -488(%rbp)
	movq	%rdx, -496(%rbp)
	movq	-496(%rbp), %rcx
	movq	%rcx, -472(%rbp)
	movq	-472(%rbp), %rcx
	movq	%rcx, -464(%rbp)
	movq	-464(%rbp), %rcx
	movq	%rcx, %rdi
	callq	__ZNSt3__14pairIKiNS_12basic_stringIcNS_11char_traitsIcEENS_9allocatorIcEEEEED1Ev
LBB47_12:
	cmpq	$0, -552(%rbp)
	je	LBB47_14
## BB#13:
	movq	-760(%rbp), %rax        ## 8-byte Reload
	movq	(%rax), %rcx
	movq	-552(%rbp), %rdx
	movq	%rcx, -440(%rbp)
	movq	%rdx, -448(%rbp)
	movq	$1, -456(%rbp)
	movq	-440(%rbp), %rcx
	movq	-448(%rbp), %rdx
	movq	-456(%rbp), %rsi
	movq	%rcx, -416(%rbp)
	movq	%rdx, -424(%rbp)
	movq	%rsi, -432(%rbp)
	movq	-424(%rbp), %rcx
	movq	%rcx, -408(%rbp)
	movq	-408(%rbp), %rdi
	callq	__ZdlPv
LBB47_14:                               ## %_ZNSt3__122__tree_node_destructorINS_9allocatorINS_11__tree_nodeINS_12__value_typeIiNS_12basic_stringIcNS_11char_traitsIcEENS1_IcEEEEEEPvEEEEEclEPSB_.exit.i.i.i
	jmp	LBB47_15
LBB47_15:                               ## %_ZNSt3__110unique_ptrINS_11__tree_nodeINS_12__value_typeIiNS_12basic_stringIcNS_11char_traitsIcEENS_9allocatorIcEEEEEEPvEENS_22__tree_node_destructorINS6_ISB_EEEEED1Ev.exit
	jmp	LBB47_16
LBB47_16:
	movq	-688(%rbp), %rdi
	callq	__Unwind_Resume
Lfunc_end47:
	.cfi_endproc
	.section	__TEXT,__gcc_except_tab
	.align	2
GCC_except_table47:
Lexception47:
	.byte	255                     ## @LPStart Encoding = omit
	.byte	155                     ## @TType Encoding = indirect pcrel sdata4
	.byte	41                      ## @TType base offset
	.byte	3                       ## Call site Encoding = udata4
	.byte	39                      ## Call site table length
Lset110 = Lfunc_begin47-Lfunc_begin47   ## >> Call Site 1 <<
	.long	Lset110
Lset111 = Ltmp258-Lfunc_begin47         ##   Call between Lfunc_begin47 and Ltmp258
	.long	Lset111
	.long	0                       ##     has no landing pad
	.byte	0                       ##   On action: cleanup
Lset112 = Ltmp258-Lfunc_begin47         ## >> Call Site 2 <<
	.long	Lset112
Lset113 = Ltmp261-Ltmp258               ##   Call between Ltmp258 and Ltmp261
	.long	Lset113
Lset114 = Ltmp262-Lfunc_begin47         ##     jumps to Ltmp262
	.long	Lset114
	.byte	0                       ##   On action: cleanup
Lset115 = Ltmp261-Lfunc_begin47         ## >> Call Site 3 <<
	.long	Lset115
Lset116 = Lfunc_end47-Ltmp261           ##   Call between Ltmp261 and Lfunc_end47
	.long	Lset116
	.long	0                       ##     has no landing pad
	.byte	0                       ##   On action: cleanup
	.align	2

	.section	__TEXT,__textcoal_nt,coalesced,pure_instructions
	.globl	__ZNKSt3__16__treeINS_12__value_typeIiNS_12basic_stringIcNS_11char_traitsIcEENS_9allocatorIcEEEEEENS_19__map_value_compareIiS8_NS_4lessIiEELb1EEENS5_IS8_EEE13__count_multiIiEEmRKT_
	.weak_def_can_be_hidden	__ZNKSt3__16__treeINS_12__value_typeIiNS_12basic_stringIcNS_11char_traitsIcEENS_9allocatorIcEEEEEENS_19__map_value_compareIiS8_NS_4lessIiEELb1EEENS5_IS8_EEE13__count_multiIiEEmRKT_
	.align	4, 0x90
__ZNKSt3__16__treeINS_12__value_typeIiNS_12basic_stringIcNS_11char_traitsIcEENS_9allocatorIcEEEEEENS_19__map_value_compareIiS8_NS_4lessIiEELb1EEENS5_IS8_EEE13__count_multiIiEEmRKT_: ## @_ZNKSt3__16__treeINS_12__value_typeIiNS_12basic_stringIcNS_11char_traitsIcEENS_9allocatorIcEEEEEENS_19__map_value_compareIiS8_NS_4lessIiEELb1EEENS5_IS8_EEE13__count_multiIiEEmRKT_
	.cfi_startproc
## BB#0:
	pushq	%rbp
Ltmp266:
	.cfi_def_cfa_offset 16
Ltmp267:
	.cfi_offset %rbp, -16
	movq	%rsp, %rbp
Ltmp268:
	.cfi_def_cfa_register %rbp
	subq	$432, %rsp              ## imm = 0x1B0
	movq	%rdi, -368(%rbp)
	movq	%rsi, -376(%rbp)
	movq	-368(%rbp), %rsi
	movq	%rsi, -352(%rbp)
	movq	-352(%rbp), %rdi
	addq	$8, %rdi
	movq	%rdi, -344(%rbp)
	movq	-344(%rbp), %rdi
	movq	%rdi, -336(%rbp)
	movq	-336(%rbp), %rdi
	movq	%rdi, -328(%rbp)
	movq	-328(%rbp), %rdi
	movq	%rdi, -320(%rbp)
	movq	-320(%rbp), %rdi
	movq	%rdi, -384(%rbp)
	movq	%rsi, -192(%rbp)
	movq	-192(%rbp), %rdi
	movq	%rdi, -184(%rbp)
	movq	-184(%rbp), %rdi
	addq	$8, %rdi
	movq	%rdi, -176(%rbp)
	movq	-176(%rbp), %rdi
	movq	%rdi, -168(%rbp)
	movq	-168(%rbp), %rdi
	movq	%rdi, -160(%rbp)
	movq	-160(%rbp), %rdi
	movq	%rdi, -152(%rbp)
	movq	-152(%rbp), %rdi
	movq	(%rdi), %rdi
	movq	%rdi, -392(%rbp)
	movq	%rsi, -416(%rbp)        ## 8-byte Spill
LBB48_1:                                ## =>This Inner Loop Header: Depth=1
	cmpq	$0, -392(%rbp)
	je	LBB48_12
## BB#2:                                ##   in Loop: Header=BB48_1 Depth=1
	movq	-416(%rbp), %rax        ## 8-byte Reload
	movq	%rax, -144(%rbp)
	movq	-144(%rbp), %rcx
	addq	$16, %rcx
	movq	%rcx, -136(%rbp)
	movq	-136(%rbp), %rcx
	movq	%rcx, -128(%rbp)
	movq	-128(%rbp), %rcx
	movq	-376(%rbp), %rdx
	movq	-392(%rbp), %rsi
	addq	$32, %rsi
	movq	%rcx, -104(%rbp)
	movq	%rdx, -112(%rbp)
	movq	%rsi, -120(%rbp)
	movq	-104(%rbp), %rcx
	movq	-112(%rbp), %rdx
	movq	-120(%rbp), %rsi
	movq	%rcx, -80(%rbp)
	movq	%rdx, -88(%rbp)
	movq	%rsi, -96(%rbp)
	movq	-88(%rbp), %rcx
	movl	(%rcx), %edi
	movq	-96(%rbp), %rcx
	cmpl	(%rcx), %edi
	jge	LBB48_4
## BB#3:                                ##   in Loop: Header=BB48_1 Depth=1
	movq	-392(%rbp), %rax
	movq	%rax, -384(%rbp)
	movq	-392(%rbp), %rax
	movq	(%rax), %rax
	movq	%rax, -392(%rbp)
	jmp	LBB48_11
LBB48_4:                                ##   in Loop: Header=BB48_1 Depth=1
	movq	-416(%rbp), %rax        ## 8-byte Reload
	movq	%rax, -24(%rbp)
	movq	-24(%rbp), %rcx
	addq	$16, %rcx
	movq	%rcx, -16(%rbp)
	movq	-16(%rbp), %rcx
	movq	%rcx, -8(%rbp)
	movq	-8(%rbp), %rcx
	movq	-392(%rbp), %rdx
	addq	$32, %rdx
	movq	-376(%rbp), %rsi
	movq	%rcx, -56(%rbp)
	movq	%rdx, -64(%rbp)
	movq	%rsi, -72(%rbp)
	movq	-56(%rbp), %rcx
	movq	-64(%rbp), %rdx
	movq	-72(%rbp), %rsi
	movq	%rcx, -32(%rbp)
	movq	%rdx, -40(%rbp)
	movq	%rsi, -48(%rbp)
	movq	-40(%rbp), %rcx
	movl	(%rcx), %edi
	movq	-48(%rbp), %rcx
	cmpl	(%rcx), %edi
	jge	LBB48_6
## BB#5:                                ##   in Loop: Header=BB48_1 Depth=1
	movq	-392(%rbp), %rax
	movq	8(%rax), %rax
	movq	%rax, -392(%rbp)
	jmp	LBB48_10
LBB48_6:
	movq	-376(%rbp), %rsi
	movq	-392(%rbp), %rax
	movq	(%rax), %rax
	movq	-392(%rbp), %rcx
	movq	-416(%rbp), %rdi        ## 8-byte Reload
	movq	%rax, %rdx
	callq	__ZNKSt3__16__treeINS_12__value_typeIiNS_12basic_stringIcNS_11char_traitsIcEENS_9allocatorIcEEEEEENS_19__map_value_compareIiS8_NS_4lessIiEELb1EEENS5_IS8_EEE13__lower_boundIiEENS_21__tree_const_iteratorIS8_PNS_11__tree_nodeIS8_PvEElEERKT_SK_SK_
	movq	%rax, -400(%rbp)
	movq	-376(%rbp), %rsi
	movq	-392(%rbp), %rax
	movq	8(%rax), %rax
	movq	-384(%rbp), %rcx
	movq	-416(%rbp), %rdi        ## 8-byte Reload
	movq	%rax, %rdx
	callq	__ZNKSt3__16__treeINS_12__value_typeIiNS_12basic_stringIcNS_11char_traitsIcEENS_9allocatorIcEEEEEENS_19__map_value_compareIiS8_NS_4lessIiEELb1EEENS5_IS8_EEE13__upper_boundIiEENS_21__tree_const_iteratorIS8_PNS_11__tree_nodeIS8_PvEElEERKT_SK_SK_
	movq	%rax, -408(%rbp)
	movq	-400(%rbp), %rax
	movq	-408(%rbp), %rcx
	movq	%rax, -272(%rbp)
	movq	%rcx, -280(%rbp)
	movq	-272(%rbp), %rax
	movq	%rax, -288(%rbp)
	movq	-280(%rbp), %rax
	movq	%rax, -296(%rbp)
	movq	-288(%rbp), %rax
	movq	-296(%rbp), %rcx
	movq	%rax, -240(%rbp)
	movq	%rcx, -248(%rbp)
	movq	$0, -264(%rbp)
LBB48_7:                                ## =>This Inner Loop Header: Depth=1
	leaq	-248(%rbp), %rax
	leaq	-240(%rbp), %rcx
	movq	%rcx, -224(%rbp)
	movq	%rax, -232(%rbp)
	movq	-224(%rbp), %rax
	movq	-232(%rbp), %rcx
	movq	%rax, -208(%rbp)
	movq	%rcx, -216(%rbp)
	movq	-208(%rbp), %rax
	movq	(%rax), %rax
	movq	-216(%rbp), %rcx
	cmpq	(%rcx), %rax
	sete	%dl
	xorb	$1, %dl
	testb	$1, %dl
	jne	LBB48_8
	jmp	LBB48_9
LBB48_8:                                ##   in Loop: Header=BB48_7 Depth=1
	leaq	-240(%rbp), %rax
	movq	-264(%rbp), %rcx
	addq	$1, %rcx
	movq	%rcx, -264(%rbp)
	movq	%rax, -200(%rbp)
	movq	-200(%rbp), %rax
	movq	(%rax), %rcx
	movq	%rcx, %rdi
	movq	%rax, -424(%rbp)        ## 8-byte Spill
	callq	__ZNSt3__111__tree_nextIPNS_16__tree_node_baseIPvEEEET_S5_
	movq	-424(%rbp), %rcx        ## 8-byte Reload
	movq	%rax, (%rcx)
	jmp	LBB48_7
LBB48_9:                                ## %_ZNSt3__18distanceINS_21__tree_const_iteratorINS_12__value_typeIiNS_12basic_stringIcNS_11char_traitsIcEENS_9allocatorIcEEEEEEPNS_11__tree_nodeIS9_PvEElEEEENS_15iterator_traitsIT_E15difference_typeESG_SG_.exit
	movq	-264(%rbp), %rax
	movq	%rax, -360(%rbp)
	jmp	LBB48_13
LBB48_10:                               ##   in Loop: Header=BB48_1 Depth=1
	jmp	LBB48_11
LBB48_11:                               ##   in Loop: Header=BB48_1 Depth=1
	jmp	LBB48_1
LBB48_12:
	movq	$0, -360(%rbp)
LBB48_13:
	movq	-360(%rbp), %rax
	addq	$432, %rsp              ## imm = 0x1B0
	popq	%rbp
	retq
	.cfi_endproc

	.globl	__ZNKSt3__16__treeINS_12__value_typeIiNS_12basic_stringIcNS_11char_traitsIcEENS_9allocatorIcEEEEEENS_19__map_value_compareIiS8_NS_4lessIiEELb1EEENS5_IS8_EEE13__lower_boundIiEENS_21__tree_const_iteratorIS8_PNS_11__tree_nodeIS8_PvEElEERKT_SK_SK_
	.weak_def_can_be_hidden	__ZNKSt3__16__treeINS_12__value_typeIiNS_12basic_stringIcNS_11char_traitsIcEENS_9allocatorIcEEEEEENS_19__map_value_compareIiS8_NS_4lessIiEELb1EEENS5_IS8_EEE13__lower_boundIiEENS_21__tree_const_iteratorIS8_PNS_11__tree_nodeIS8_PvEElEERKT_SK_SK_
	.align	4, 0x90
__ZNKSt3__16__treeINS_12__value_typeIiNS_12basic_stringIcNS_11char_traitsIcEENS_9allocatorIcEEEEEENS_19__map_value_compareIiS8_NS_4lessIiEELb1EEENS5_IS8_EEE13__lower_boundIiEENS_21__tree_const_iteratorIS8_PNS_11__tree_nodeIS8_PvEElEERKT_SK_SK_: ## @_ZNKSt3__16__treeINS_12__value_typeIiNS_12basic_stringIcNS_11char_traitsIcEENS_9allocatorIcEEEEEENS_19__map_value_compareIiS8_NS_4lessIiEELb1EEENS5_IS8_EEE13__lower_boundIiEENS_21__tree_const_iteratorIS8_PNS_11__tree_nodeIS8_PvEElEERKT_SK_SK_
	.cfi_startproc
## BB#0:
	pushq	%rbp
Ltmp269:
	.cfi_def_cfa_offset 16
Ltmp270:
	.cfi_offset %rbp, -16
	movq	%rsp, %rbp
Ltmp271:
	.cfi_def_cfa_register %rbp
	subq	$24, %rsp
	movq	%rdi, -120(%rbp)
	movq	%rsi, -128(%rbp)
	movq	%rdx, -136(%rbp)
	movq	%rcx, -144(%rbp)
	movq	-120(%rbp), %rcx
	movq	%rcx, -152(%rbp)        ## 8-byte Spill
LBB49_1:                                ## =>This Inner Loop Header: Depth=1
	cmpq	$0, -136(%rbp)
	je	LBB49_6
## BB#2:                                ##   in Loop: Header=BB49_1 Depth=1
	movq	-152(%rbp), %rax        ## 8-byte Reload
	movq	%rax, -104(%rbp)
	movq	-104(%rbp), %rcx
	addq	$16, %rcx
	movq	%rcx, -96(%rbp)
	movq	-96(%rbp), %rcx
	movq	%rcx, -88(%rbp)
	movq	-88(%rbp), %rcx
	movq	-136(%rbp), %rdx
	addq	$32, %rdx
	movq	-128(%rbp), %rsi
	movq	%rcx, -32(%rbp)
	movq	%rdx, -40(%rbp)
	movq	%rsi, -48(%rbp)
	movq	-32(%rbp), %rcx
	movq	-40(%rbp), %rdx
	movq	-48(%rbp), %rsi
	movq	%rcx, -8(%rbp)
	movq	%rdx, -16(%rbp)
	movq	%rsi, -24(%rbp)
	movq	-16(%rbp), %rcx
	movl	(%rcx), %edi
	movq	-24(%rbp), %rcx
	cmpl	(%rcx), %edi
	jl	LBB49_4
## BB#3:                                ##   in Loop: Header=BB49_1 Depth=1
	movq	-136(%rbp), %rax
	movq	%rax, -144(%rbp)
	movq	-136(%rbp), %rax
	movq	(%rax), %rax
	movq	%rax, -136(%rbp)
	jmp	LBB49_5
LBB49_4:                                ##   in Loop: Header=BB49_1 Depth=1
	movq	-136(%rbp), %rax
	movq	8(%rax), %rax
	movq	%rax, -136(%rbp)
LBB49_5:                                ##   in Loop: Header=BB49_1 Depth=1
	jmp	LBB49_1
LBB49_6:
	leaq	-112(%rbp), %rax
	movq	-144(%rbp), %rcx
	movq	%rax, -72(%rbp)
	movq	%rcx, -80(%rbp)
	movq	-72(%rbp), %rax
	movq	-80(%rbp), %rcx
	movq	%rax, -56(%rbp)
	movq	%rcx, -64(%rbp)
	movq	-56(%rbp), %rax
	movq	-64(%rbp), %rcx
	movq	%rcx, (%rax)
	movq	-112(%rbp), %rax
	addq	$24, %rsp
	popq	%rbp
	retq
	.cfi_endproc

	.globl	__ZNKSt3__16__treeINS_12__value_typeIiNS_12basic_stringIcNS_11char_traitsIcEENS_9allocatorIcEEEEEENS_19__map_value_compareIiS8_NS_4lessIiEELb1EEENS5_IS8_EEE13__upper_boundIiEENS_21__tree_const_iteratorIS8_PNS_11__tree_nodeIS8_PvEElEERKT_SK_SK_
	.weak_def_can_be_hidden	__ZNKSt3__16__treeINS_12__value_typeIiNS_12basic_stringIcNS_11char_traitsIcEENS_9allocatorIcEEEEEENS_19__map_value_compareIiS8_NS_4lessIiEELb1EEENS5_IS8_EEE13__upper_boundIiEENS_21__tree_const_iteratorIS8_PNS_11__tree_nodeIS8_PvEElEERKT_SK_SK_
	.align	4, 0x90
__ZNKSt3__16__treeINS_12__value_typeIiNS_12basic_stringIcNS_11char_traitsIcEENS_9allocatorIcEEEEEENS_19__map_value_compareIiS8_NS_4lessIiEELb1EEENS5_IS8_EEE13__upper_boundIiEENS_21__tree_const_iteratorIS8_PNS_11__tree_nodeIS8_PvEElEERKT_SK_SK_: ## @_ZNKSt3__16__treeINS_12__value_typeIiNS_12basic_stringIcNS_11char_traitsIcEENS_9allocatorIcEEEEEENS_19__map_value_compareIiS8_NS_4lessIiEELb1EEENS5_IS8_EEE13__upper_boundIiEENS_21__tree_const_iteratorIS8_PNS_11__tree_nodeIS8_PvEElEERKT_SK_SK_
	.cfi_startproc
## BB#0:
	pushq	%rbp
Ltmp272:
	.cfi_def_cfa_offset 16
Ltmp273:
	.cfi_offset %rbp, -16
	movq	%rsp, %rbp
Ltmp274:
	.cfi_def_cfa_register %rbp
	subq	$24, %rsp
	movq	%rdi, -120(%rbp)
	movq	%rsi, -128(%rbp)
	movq	%rdx, -136(%rbp)
	movq	%rcx, -144(%rbp)
	movq	-120(%rbp), %rcx
	movq	%rcx, -152(%rbp)        ## 8-byte Spill
LBB50_1:                                ## =>This Inner Loop Header: Depth=1
	cmpq	$0, -136(%rbp)
	je	LBB50_6
## BB#2:                                ##   in Loop: Header=BB50_1 Depth=1
	movq	-152(%rbp), %rax        ## 8-byte Reload
	movq	%rax, -104(%rbp)
	movq	-104(%rbp), %rcx
	addq	$16, %rcx
	movq	%rcx, -96(%rbp)
	movq	-96(%rbp), %rcx
	movq	%rcx, -88(%rbp)
	movq	-88(%rbp), %rcx
	movq	-128(%rbp), %rdx
	movq	-136(%rbp), %rsi
	addq	$32, %rsi
	movq	%rcx, -32(%rbp)
	movq	%rdx, -40(%rbp)
	movq	%rsi, -48(%rbp)
	movq	-32(%rbp), %rcx
	movq	-40(%rbp), %rdx
	movq	-48(%rbp), %rsi
	movq	%rcx, -8(%rbp)
	movq	%rdx, -16(%rbp)
	movq	%rsi, -24(%rbp)
	movq	-16(%rbp), %rcx
	movl	(%rcx), %edi
	movq	-24(%rbp), %rcx
	cmpl	(%rcx), %edi
	jge	LBB50_4
## BB#3:                                ##   in Loop: Header=BB50_1 Depth=1
	movq	-136(%rbp), %rax
	movq	%rax, -144(%rbp)
	movq	-136(%rbp), %rax
	movq	(%rax), %rax
	movq	%rax, -136(%rbp)
	jmp	LBB50_5
LBB50_4:                                ##   in Loop: Header=BB50_1 Depth=1
	movq	-136(%rbp), %rax
	movq	8(%rax), %rax
	movq	%rax, -136(%rbp)
LBB50_5:                                ##   in Loop: Header=BB50_1 Depth=1
	jmp	LBB50_1
LBB50_6:
	leaq	-112(%rbp), %rax
	movq	-144(%rbp), %rcx
	movq	%rax, -72(%rbp)
	movq	%rcx, -80(%rbp)
	movq	-72(%rbp), %rax
	movq	-80(%rbp), %rcx
	movq	%rax, -56(%rbp)
	movq	%rcx, -64(%rbp)
	movq	-56(%rbp), %rax
	movq	-64(%rbp), %rcx
	movq	%rcx, (%rax)
	movq	-112(%rbp), %rax
	addq	$24, %rsp
	popq	%rbp
	retq
	.cfi_endproc

	.section	__TEXT,__cstring,cstring_literals
L_.str:                                 ## @.str
	.asciz	"Three"

L_.str1:                                ## @.str1
	.asciz	"Minus one"

L_.str2:                                ## @.str2
	.asciz	"One Thousand"

L_.str3:                                ## @.str3
	.asciz	"One Million"

L_.str4:                                ## @.str4
	.asciz	"The map contains "

L_.str5:                                ## @.str5
	.asciz	" key-value pairs. They are: "

L_.str6:                                ## @.str6
	.asciz	"Thousand"

L_.str7:                                ## @.str7
	.asciz	"The multimap contains "

L_.str8:                                ## @.str8
	.asciz	"The elements in the multimap are: "

L_.str9:                                ## @.str9
	.asciz	"The number of pairs in the multimap with 1000 as their key: "

L_.str10:                               ## @.str10
	.asciz	" -> "


.subsections_via_symbols
