	.section	__TEXT,__text,regular,pure_instructions
	.macosx_version_min 10, 10
	.globl	_main
	.align	4, 0x90
_main:                                  ## @main
Lfunc_begin0:
	.cfi_startproc
	.cfi_personality 155, ___gxx_personality_v0
	.cfi_lsda 16, Lexception0
## BB#0:
	pushq	%rbp
Ltmp67:
	.cfi_def_cfa_offset 16
Ltmp68:
	.cfi_offset %rbp, -16
	movq	%rsp, %rbp
Ltmp69:
	.cfi_def_cfa_register %rbp
	pushq	%r14
	pushq	%rbx
	subq	$4704, %rsp             ## imm = 0x1260
Ltmp70:
	.cfi_offset %rbx, -32
Ltmp71:
	.cfi_offset %r14, -24
	movl	$0, -3628(%rbp)
	leaq	-3672(%rbp), %rax
	movq	%rax, -3624(%rbp)
	movq	%rax, -3616(%rbp)
	movq	%rax, -3608(%rbp)
	movq	%rax, -3584(%rbp)
	movq	%rax, -3576(%rbp)
	movq	%rax, -3568(%rbp)
	movq	%rax, -3552(%rbp)
	movq	$0, -3560(%rbp)
	movq	-3552(%rbp), %rax
	movq	%rax, -3536(%rbp)
	movq	$0, -3544(%rbp)
	movq	-3536(%rbp), %rax
	leaq	-3544(%rbp), %rcx
	movq	%rcx, -3528(%rbp)
	movq	-3544(%rbp), %rcx
	movq	%rax, -3512(%rbp)
	movq	%rcx, -3520(%rbp)
	movq	-3512(%rbp), %rax
	leaq	-3520(%rbp), %rcx
	movq	%rcx, -3504(%rbp)
	movq	-3520(%rbp), %rcx
	movq	%rcx, (%rax)
	addq	$8, %rax
	movq	%rax, -3496(%rbp)
	movq	%rax, -3488(%rbp)
	movq	%rax, -3472(%rbp)
	movq	$0, -3480(%rbp)
	movq	-3472(%rbp), %rax
	movq	%rax, -3456(%rbp)
	movq	$0, -3464(%rbp)
	movq	-3456(%rbp), %rax
	leaq	-3464(%rbp), %rcx
	movq	%rcx, -3448(%rbp)
	movq	-3464(%rbp), %rcx
	movq	%rax, -3432(%rbp)
	movq	%rcx, -3440(%rbp)
	movq	-3432(%rbp), %rax
	movq	%rax, -3424(%rbp)
	leaq	-3440(%rbp), %rcx
	movq	%rcx, -3416(%rbp)
	movq	-3440(%rbp), %rcx
	movq	%rcx, (%rax)
	leaq	-3656(%rbp), %rax
	movq	%rax, -3408(%rbp)
	movq	%rax, -3400(%rbp)
	movq	%rax, -3392(%rbp)
	movq	%rax, -3384(%rbp)
	movq	%rax, -3376(%rbp)
	movq	%rax, -3368(%rbp)
	movq	$0, -3656(%rbp)
	leaq	-3648(%rbp), %rax
	movq	%rax, -3152(%rbp)
	movq	$0, -3160(%rbp)
	movq	-3152(%rbp), %rax
	movq	%rax, -3136(%rbp)
	movq	$0, -3144(%rbp)
	movq	-3136(%rbp), %rax
	leaq	-3144(%rbp), %rcx
	movq	%rcx, -3128(%rbp)
	movq	-3144(%rbp), %rcx
	movq	%rax, -3112(%rbp)
	movq	%rcx, -3120(%rbp)
	movq	-3112(%rbp), %rax
	movq	%rax, -3104(%rbp)
	leaq	-3120(%rbp), %rcx
	movq	%rcx, -3096(%rbp)
	movq	-3120(%rbp), %rcx
	movq	%rcx, (%rax)
	leaq	-3640(%rbp), %rax
	movq	%rax, -3080(%rbp)
	movl	$1065353216, -3084(%rbp) ## imm = 0x3F800000
	movq	-3080(%rbp), %rax
	movq	%rax, -3064(%rbp)
	movl	$1065353216, -3068(%rbp) ## imm = 0x3F800000
	movq	-3064(%rbp), %rax
	leaq	-3068(%rbp), %rcx
	movq	%rcx, -3056(%rbp)
	movss	-3068(%rbp), %xmm0      ## xmm0 = mem[0],zero,zero,zero
	movq	%rax, -3040(%rbp)
	movss	%xmm0, -3044(%rbp)
	movq	-3040(%rbp), %rax
	movq	%rax, -3032(%rbp)
	leaq	-3044(%rbp), %rcx
	movq	%rcx, -3024(%rbp)
	movss	-3044(%rbp), %xmm0      ## xmm0 = mem[0],zero,zero,zero
	movss	%xmm0, (%rax)
	movl	$1, -3692(%rbp)
	leaq	-3692(%rbp), %rax
	movq	%rax, -3008(%rbp)
	leaq	L_.str(%rip), %rax
	movq	%rax, -3016(%rbp)
	movq	-3008(%rbp), %rax
	movq	%rax, -2984(%rbp)
	movq	-3016(%rbp), %rcx
	movq	%rcx, -2912(%rbp)
	leaq	-3000(%rbp), %rdx
	movq	%rdx, -2960(%rbp)
	movq	%rax, -2968(%rbp)
	movq	%rcx, -2976(%rbp)
	movq	-2960(%rbp), %rax
	movq	-2968(%rbp), %rdx
	movq	%rax, -2936(%rbp)
	movq	%rdx, -2944(%rbp)
	movq	%rcx, -2952(%rbp)
	movq	-2936(%rbp), %rax
	movq	-2944(%rbp), %rcx
	movq	%rcx, -2928(%rbp)
	movl	(%rcx), %esi
	movl	%esi, (%rax)
	movq	-2952(%rbp), %rcx
	movq	%rcx, -2920(%rbp)
	movq	%rcx, 8(%rax)
	movq	-2992(%rbp), %rax
	movl	-3000(%rbp), %esi
	movq	%rax, -4168(%rbp)       ## 8-byte Spill
	movl	%esi, -4172(%rbp)       ## 4-byte Spill
## BB#1:
	movl	-4172(%rbp), %eax       ## 4-byte Reload
	movl	%eax, -3688(%rbp)
	movq	-4168(%rbp), %rcx       ## 8-byte Reload
	movq	%rcx, -3680(%rbp)
	leaq	-3672(%rbp), %rdx
	movq	%rdx, -2880(%rbp)
	leaq	-3688(%rbp), %rdx
	movq	%rdx, -2888(%rbp)
	movq	-2880(%rbp), %rdi
	movq	%rdx, -2856(%rbp)
Ltmp0:
	movq	%rdx, %rsi
	callq	__ZNSt3__112__hash_tableINS_17__hash_value_typeIiNS_12basic_stringIcNS_11char_traitsIcEENS_9allocatorIcEEEEEENS_22__unordered_map_hasherIiS8_NS_4hashIiEELb1EEENS_21__unordered_map_equalIiS8_NS_8equal_toIiEELb1EEENS5_IS8_EEE15__insert_uniqueINS_4pairIiPKcEEEENSK_INS_15__hash_iteratorIPNS_11__hash_nodeIS8_PvEEEEbEEOT_
Ltmp1:
	movb	%dl, -4173(%rbp)        ## 1-byte Spill
	movq	%rax, -4184(%rbp)       ## 8-byte Spill
	jmp	LBB0_2
LBB0_2:                                 ## %_ZNSt3__113unordered_mapIiNS_12basic_stringIcNS_11char_traitsIcEENS_9allocatorIcEEEENS_4hashIiEENS_8equal_toIiEENS4_INS_4pairIKiS6_EEEEE6insertINSB_IiPKcEEvEENSB_INS_19__hash_map_iteratorINS_15__hash_iteratorIPNS_11__hash_nodeINS_17__hash_value_typeIiS6_EEPvEEEEEEbEEOT_.exit
	movq	-4184(%rbp), %rax       ## 8-byte Reload
	movq	%rax, -2904(%rbp)
	movb	-4173(%rbp), %cl        ## 1-byte Reload
	movb	%cl, -2896(%rbp)
	leaq	-2872(%rbp), %rdx
	movq	%rdx, -2832(%rbp)
	leaq	-2904(%rbp), %rdx
	movq	%rdx, -2840(%rbp)
	movq	$0, -2848(%rbp)
	movq	-2832(%rbp), %rdx
	movq	-2840(%rbp), %rsi
	movq	%rdx, -2800(%rbp)
	movq	%rsi, -2808(%rbp)
	movq	$0, -2816(%rbp)
	movq	-2800(%rbp), %rdx
	movq	-2808(%rbp), %rsi
	movq	%rsi, -2792(%rbp)
	movq	(%rsi), %rsi
	movq	%rsi, -2824(%rbp)
	movq	%rsi, -2768(%rbp)
	movq	%rdx, -2776(%rbp)
	movq	-2768(%rbp), %rsi
	movq	%rsi, -2752(%rbp)
	movq	%rdx, -2760(%rbp)
	movq	-2752(%rbp), %rsi
	movq	%rsi, (%rdx)
	movq	-2808(%rbp), %rsi
	movq	%rsi, %rdi
	addq	$8, %rdi
	movq	%rdi, -2784(%rbp)
	movb	8(%rsi), %r8b
	andb	$1, %r8b
	movb	%r8b, 8(%rdx)
	movb	-2864(%rbp), %r8b
	movq	-2872(%rbp), %rdx
	movb	%r8b, -4185(%rbp)       ## 1-byte Spill
	movq	%rdx, -4200(%rbp)       ## 8-byte Spill
## BB#3:
	movq	-4200(%rbp), %rax       ## 8-byte Reload
	movq	%rax, -3728(%rbp)
	movb	-4185(%rbp), %cl        ## 1-byte Reload
	movb	%cl, -3720(%rbp)
	movl	$45, -3764(%rbp)
	leaq	-3760(%rbp), %rdx
	movq	%rdx, -2728(%rbp)
	leaq	-3764(%rbp), %rdx
	movq	%rdx, -2736(%rbp)
	leaq	L_.str1(%rip), %rdx
	movq	%rdx, -2744(%rbp)
	movq	-2728(%rbp), %rsi
	movq	-2736(%rbp), %rdi
	movq	%rsi, -2704(%rbp)
	movq	%rdi, -2712(%rbp)
	movq	%rdx, -2720(%rbp)
	movq	-2704(%rbp), %rdx
	movq	-2712(%rbp), %rsi
	movq	%rsi, -2696(%rbp)
	movl	(%rsi), %r8d
	movl	%r8d, (%rdx)
	addq	$8, %rdx
	movq	-2720(%rbp), %rsi
	movq	%rsi, -2624(%rbp)
	movq	%rdx, -2680(%rbp)
	movq	%rsi, -2688(%rbp)
	movq	-2680(%rbp), %rdx
	movq	%rdx, -2664(%rbp)
	movq	%rsi, -2672(%rbp)
	movq	-2664(%rbp), %rdx
	movq	%rdx, -2656(%rbp)
	movq	%rdx, -2648(%rbp)
	movq	%rdx, -2640(%rbp)
	movq	%rdx, -2632(%rbp)
	movq	-2672(%rbp), %rsi
Ltmp2:
	movq	%rsi, %rdi
	movq	%rdx, -4208(%rbp)       ## 8-byte Spill
	movq	%rsi, -4216(%rbp)       ## 8-byte Spill
	callq	__ZNSt3__111char_traitsIcE6lengthEPKc
Ltmp3:
	movq	%rax, -4224(%rbp)       ## 8-byte Spill
	jmp	LBB0_4
LBB0_4:                                 ## %.noexc
Ltmp4:
	movq	-4208(%rbp), %rdi       ## 8-byte Reload
	movq	-4216(%rbp), %rsi       ## 8-byte Reload
	movq	-4224(%rbp), %rdx       ## 8-byte Reload
	callq	__ZNSt3__112basic_stringIcNS_11char_traitsIcEENS_9allocatorIcEEE6__initEPKcm
Ltmp5:
	jmp	LBB0_5
LBB0_5:                                 ## %_ZNSt3__14pairIKiNS_12basic_stringIcNS_11char_traitsIcEENS_9allocatorIcEEEEEC1IiRA11_KcvEEOT_OT0_.exit
	jmp	LBB0_6
LBB0_6:
	leaq	-3672(%rbp), %rax
	movq	%rax, -2592(%rbp)
	leaq	-3760(%rbp), %rax
	movq	%rax, -2600(%rbp)
	movq	-2592(%rbp), %rdi
	movq	%rax, -2568(%rbp)
Ltmp6:
	movq	%rax, %rsi
	callq	__ZNSt3__112__hash_tableINS_17__hash_value_typeIiNS_12basic_stringIcNS_11char_traitsIcEENS_9allocatorIcEEEEEENS_22__unordered_map_hasherIiS8_NS_4hashIiEELb1EEENS_21__unordered_map_equalIiS8_NS_8equal_toIiEELb1EEENS5_IS8_EEE15__insert_uniqueINS_4pairIKiS7_EEEENSK_INS_15__hash_iteratorIPNS_11__hash_nodeIS8_PvEEEEbEEOT_
Ltmp7:
	movb	%dl, -4225(%rbp)        ## 1-byte Spill
	movq	%rax, -4240(%rbp)       ## 8-byte Spill
	jmp	LBB0_7
LBB0_7:                                 ## %_ZNSt3__113unordered_mapIiNS_12basic_stringIcNS_11char_traitsIcEENS_9allocatorIcEEEENS_4hashIiEENS_8equal_toIiEENS4_INS_4pairIKiS6_EEEEE6insertISD_vEENSB_INS_19__hash_map_iteratorINS_15__hash_iteratorIPNS_11__hash_nodeINS_17__hash_value_typeIiS6_EEPvEEEEEEbEEOT_.exit
	movq	-4240(%rbp), %rax       ## 8-byte Reload
	movq	%rax, -2616(%rbp)
	movb	-4225(%rbp), %cl        ## 1-byte Reload
	movb	%cl, -2608(%rbp)
	leaq	-2584(%rbp), %rdx
	movq	%rdx, -2544(%rbp)
	leaq	-2616(%rbp), %rdx
	movq	%rdx, -2552(%rbp)
	movq	$0, -2560(%rbp)
	movq	-2544(%rbp), %rdx
	movq	-2552(%rbp), %rsi
	movq	%rdx, -2512(%rbp)
	movq	%rsi, -2520(%rbp)
	movq	$0, -2528(%rbp)
	movq	-2512(%rbp), %rdx
	movq	-2520(%rbp), %rsi
	movq	%rsi, -2504(%rbp)
	movq	(%rsi), %rsi
	movq	%rsi, -2536(%rbp)
	movq	%rsi, -2480(%rbp)
	movq	%rdx, -2488(%rbp)
	movq	-2480(%rbp), %rsi
	movq	%rsi, -2464(%rbp)
	movq	%rdx, -2472(%rbp)
	movq	-2464(%rbp), %rsi
	movq	%rsi, (%rdx)
	movq	-2520(%rbp), %rsi
	movq	%rsi, %rdi
	addq	$8, %rdi
	movq	%rdi, -2496(%rbp)
	movb	8(%rsi), %r8b
	andb	$1, %r8b
	movb	%r8b, 8(%rdx)
	movb	-2576(%rbp), %r8b
	movq	-2584(%rbp), %rdx
	movb	%r8b, -4241(%rbp)       ## 1-byte Spill
	movq	%rdx, -4256(%rbp)       ## 8-byte Spill
## BB#8:
	movq	-4256(%rbp), %rax       ## 8-byte Reload
	movq	%rax, -3784(%rbp)
	movb	-4241(%rbp), %cl        ## 1-byte Reload
	movb	%cl, -3776(%rbp)
	leaq	-3760(%rbp), %rdi
	callq	__ZNSt3__14pairIKiNS_12basic_stringIcNS_11char_traitsIcEENS_9allocatorIcEEEEED1Ev
	movl	$1001, -3820(%rbp)      ## imm = 0x3E9
	leaq	-3816(%rbp), %rax
	movq	%rax, -2440(%rbp)
	leaq	-3820(%rbp), %rax
	movq	%rax, -2448(%rbp)
	leaq	L_.str2(%rip), %rax
	movq	%rax, -2456(%rbp)
	movq	-2440(%rbp), %rdi
	movq	-2448(%rbp), %rdx
	movq	%rdi, -2416(%rbp)
	movq	%rdx, -2424(%rbp)
	movq	%rax, -2432(%rbp)
	movq	-2416(%rbp), %rax
	movq	-2424(%rbp), %rdx
	movq	%rdx, -2408(%rbp)
	movl	(%rdx), %esi
	movl	%esi, (%rax)
	addq	$8, %rax
	movq	-2432(%rbp), %rdx
	movq	%rdx, -2336(%rbp)
	movq	%rax, -2392(%rbp)
	movq	%rdx, -2400(%rbp)
	movq	-2392(%rbp), %rax
	movq	%rax, -2376(%rbp)
	movq	%rdx, -2384(%rbp)
	movq	-2376(%rbp), %rax
	movq	%rax, -2368(%rbp)
	movq	%rax, -2360(%rbp)
	movq	%rax, -2352(%rbp)
	movq	%rax, -2344(%rbp)
	movq	-2384(%rbp), %rdx
Ltmp9:
	movq	%rdx, %rdi
	movq	%rax, -4264(%rbp)       ## 8-byte Spill
	movq	%rdx, -4272(%rbp)       ## 8-byte Spill
	callq	__ZNSt3__111char_traitsIcE6lengthEPKc
Ltmp10:
	movq	%rax, -4280(%rbp)       ## 8-byte Spill
	jmp	LBB0_9
LBB0_9:                                 ## %.noexc5
Ltmp11:
	movq	-4264(%rbp), %rdi       ## 8-byte Reload
	movq	-4272(%rbp), %rsi       ## 8-byte Reload
	movq	-4280(%rbp), %rdx       ## 8-byte Reload
	callq	__ZNSt3__112basic_stringIcNS_11char_traitsIcEENS_9allocatorIcEEE6__initEPKcm
Ltmp12:
	jmp	LBB0_10
LBB0_10:                                ## %_ZNSt3__14pairIiNS_12basic_stringIcNS_11char_traitsIcEENS_9allocatorIcEEEEEC1IiRA13_KcvEEOT_OT0_.exit
	jmp	LBB0_11
LBB0_11:
	leaq	-3672(%rbp), %rax
	movq	%rax, -2304(%rbp)
	leaq	-3816(%rbp), %rax
	movq	%rax, -2312(%rbp)
	movq	-2304(%rbp), %rdi
	movq	%rax, -2280(%rbp)
Ltmp13:
	movq	%rax, %rsi
	callq	__ZNSt3__112__hash_tableINS_17__hash_value_typeIiNS_12basic_stringIcNS_11char_traitsIcEENS_9allocatorIcEEEEEENS_22__unordered_map_hasherIiS8_NS_4hashIiEELb1EEENS_21__unordered_map_equalIiS8_NS_8equal_toIiEELb1EEENS5_IS8_EEE15__insert_uniqueINS_4pairIiS7_EEEENSK_INS_15__hash_iteratorIPNS_11__hash_nodeIS8_PvEEEEbEEOT_
Ltmp14:
	movb	%dl, -4281(%rbp)        ## 1-byte Spill
	movq	%rax, -4296(%rbp)       ## 8-byte Spill
	jmp	LBB0_12
LBB0_12:                                ## %_ZNSt3__113unordered_mapIiNS_12basic_stringIcNS_11char_traitsIcEENS_9allocatorIcEEEENS_4hashIiEENS_8equal_toIiEENS4_INS_4pairIKiS6_EEEEE6insertINSB_IiS6_EEvEENSB_INS_19__hash_map_iteratorINS_15__hash_iteratorIPNS_11__hash_nodeINS_17__hash_value_typeIiS6_EEPvEEEEEEbEEOT_.exit
	movq	-4296(%rbp), %rax       ## 8-byte Reload
	movq	%rax, -2328(%rbp)
	movb	-4281(%rbp), %cl        ## 1-byte Reload
	movb	%cl, -2320(%rbp)
	leaq	-2296(%rbp), %rdx
	movq	%rdx, -2256(%rbp)
	leaq	-2328(%rbp), %rdx
	movq	%rdx, -2264(%rbp)
	movq	$0, -2272(%rbp)
	movq	-2256(%rbp), %rdx
	movq	-2264(%rbp), %rsi
	movq	%rdx, -2224(%rbp)
	movq	%rsi, -2232(%rbp)
	movq	$0, -2240(%rbp)
	movq	-2224(%rbp), %rdx
	movq	-2232(%rbp), %rsi
	movq	%rsi, -2216(%rbp)
	movq	(%rsi), %rsi
	movq	%rsi, -2248(%rbp)
	movq	%rsi, -2192(%rbp)
	movq	%rdx, -2200(%rbp)
	movq	-2192(%rbp), %rsi
	movq	%rsi, -2176(%rbp)
	movq	%rdx, -2184(%rbp)
	movq	-2176(%rbp), %rsi
	movq	%rsi, (%rdx)
	movq	-2232(%rbp), %rsi
	movq	%rsi, %rdi
	addq	$8, %rdi
	movq	%rdi, -2208(%rbp)
	movb	8(%rsi), %r8b
	andb	$1, %r8b
	movb	%r8b, 8(%rdx)
	movb	-2288(%rbp), %r8b
	movq	-2296(%rbp), %rdx
	movb	%r8b, -4297(%rbp)       ## 1-byte Spill
	movq	%rdx, -4312(%rbp)       ## 8-byte Spill
## BB#13:
	movq	-4312(%rbp), %rax       ## 8-byte Reload
	movq	%rax, -3840(%rbp)
	movb	-4297(%rbp), %cl        ## 1-byte Reload
	movb	%cl, -3832(%rbp)
	leaq	-3816(%rbp), %rdi
	callq	__ZNSt3__14pairIiNS_12basic_stringIcNS_11char_traitsIcEENS_9allocatorIcEEEEED1Ev
	movl	$-2, -3860(%rbp)
	leaq	-3860(%rbp), %rax
	movq	%rax, -2160(%rbp)
	leaq	L_.str3(%rip), %rax
	movq	%rax, -2168(%rbp)
	movq	-2160(%rbp), %rax
	movq	%rax, -2136(%rbp)
	movq	-2168(%rbp), %rdi
	movq	%rdi, -2064(%rbp)
	leaq	-2152(%rbp), %rdx
	movq	%rdx, -2112(%rbp)
	movq	%rax, -2120(%rbp)
	movq	%rdi, -2128(%rbp)
	movq	-2112(%rbp), %rax
	movq	-2120(%rbp), %rdx
	movq	%rax, -2088(%rbp)
	movq	%rdx, -2096(%rbp)
	movq	%rdi, -2104(%rbp)
	movq	-2088(%rbp), %rax
	movq	-2096(%rbp), %rdx
	movq	%rdx, -2080(%rbp)
	movl	(%rdx), %esi
	movl	%esi, (%rax)
	movq	-2104(%rbp), %rdx
	movq	%rdx, -2072(%rbp)
	movq	%rdx, 8(%rax)
	movq	-2144(%rbp), %rax
	movl	-2152(%rbp), %esi
	movq	%rax, -4320(%rbp)       ## 8-byte Spill
	movl	%esi, -4324(%rbp)       ## 4-byte Spill
## BB#14:
	movl	-4324(%rbp), %eax       ## 4-byte Reload
	movl	%eax, -3856(%rbp)
	movq	-4320(%rbp), %rcx       ## 8-byte Reload
	movq	%rcx, -3848(%rbp)
	leaq	-3672(%rbp), %rdx
	movq	%rdx, -2032(%rbp)
	leaq	-3856(%rbp), %rdx
	movq	%rdx, -2040(%rbp)
	movq	-2032(%rbp), %rdi
	movq	%rdx, -2008(%rbp)
Ltmp16:
	movq	%rdx, %rsi
	callq	__ZNSt3__112__hash_tableINS_17__hash_value_typeIiNS_12basic_stringIcNS_11char_traitsIcEENS_9allocatorIcEEEEEENS_22__unordered_map_hasherIiS8_NS_4hashIiEELb1EEENS_21__unordered_map_equalIiS8_NS_8equal_toIiEELb1EEENS5_IS8_EEE15__insert_uniqueINS_4pairIiPKcEEEENSK_INS_15__hash_iteratorIPNS_11__hash_nodeIS8_PvEEEEbEEOT_
Ltmp17:
	movb	%dl, -4325(%rbp)        ## 1-byte Spill
	movq	%rax, -4336(%rbp)       ## 8-byte Spill
	jmp	LBB0_15
LBB0_15:                                ## %_ZNSt3__113unordered_mapIiNS_12basic_stringIcNS_11char_traitsIcEENS_9allocatorIcEEEENS_4hashIiEENS_8equal_toIiEENS4_INS_4pairIKiS6_EEEEE6insertINSB_IiPKcEEvEENSB_INS_19__hash_map_iteratorINS_15__hash_iteratorIPNS_11__hash_nodeINS_17__hash_value_typeIiS6_EEPvEEEEEEbEEOT_.exit13
	movq	-4336(%rbp), %rax       ## 8-byte Reload
	movq	%rax, -2056(%rbp)
	movb	-4325(%rbp), %cl        ## 1-byte Reload
	movb	%cl, -2048(%rbp)
	leaq	-2024(%rbp), %rdx
	movq	%rdx, -1984(%rbp)
	leaq	-2056(%rbp), %rdx
	movq	%rdx, -1992(%rbp)
	movq	$0, -2000(%rbp)
	movq	-1984(%rbp), %rdx
	movq	-1992(%rbp), %rsi
	movq	%rdx, -1952(%rbp)
	movq	%rsi, -1960(%rbp)
	movq	$0, -1968(%rbp)
	movq	-1952(%rbp), %rdx
	movq	-1960(%rbp), %rsi
	movq	%rsi, -1944(%rbp)
	movq	(%rsi), %rsi
	movq	%rsi, -1976(%rbp)
	movq	%rsi, -1920(%rbp)
	movq	%rdx, -1928(%rbp)
	movq	-1920(%rbp), %rsi
	movq	%rsi, -1904(%rbp)
	movq	%rdx, -1912(%rbp)
	movq	-1904(%rbp), %rsi
	movq	%rsi, (%rdx)
	movq	-1960(%rbp), %rsi
	movq	%rsi, %rdi
	addq	$8, %rdi
	movq	%rdi, -1936(%rbp)
	movb	8(%rsi), %r8b
	andb	$1, %r8b
	movb	%r8b, 8(%rdx)
	movb	-2016(%rbp), %r8b
	movq	-2024(%rbp), %rdx
	movb	%r8b, -4337(%rbp)       ## 1-byte Spill
	movq	%rdx, -4352(%rbp)       ## 8-byte Spill
## BB#16:
	movq	-4352(%rbp), %rax       ## 8-byte Reload
	movq	%rax, -3880(%rbp)
	movb	-4337(%rbp), %cl        ## 1-byte Reload
	movb	%cl, -3872(%rbp)
	movl	$-1001, -3916(%rbp)     ## imm = 0xFFFFFFFFFFFFFC17
	leaq	-3912(%rbp), %rdx
	movq	%rdx, -1880(%rbp)
	leaq	-3916(%rbp), %rdx
	movq	%rdx, -1888(%rbp)
	leaq	L_.str4(%rip), %rdx
	movq	%rdx, -1896(%rbp)
	movq	-1880(%rbp), %rsi
	movq	-1888(%rbp), %rdi
	movq	%rsi, -1856(%rbp)
	movq	%rdi, -1864(%rbp)
	movq	%rdx, -1872(%rbp)
	movq	-1856(%rbp), %rdx
	movq	-1864(%rbp), %rsi
	movq	%rsi, -1848(%rbp)
	movl	(%rsi), %r8d
	movl	%r8d, (%rdx)
	addq	$8, %rdx
	movq	-1872(%rbp), %rsi
	movq	%rsi, -1776(%rbp)
	movq	%rdx, -1832(%rbp)
	movq	%rsi, -1840(%rbp)
	movq	-1832(%rbp), %rdx
	movq	%rdx, -1816(%rbp)
	movq	%rsi, -1824(%rbp)
	movq	-1816(%rbp), %rdx
	movq	%rdx, -1808(%rbp)
	movq	%rdx, -1800(%rbp)
	movq	%rdx, -1792(%rbp)
	movq	%rdx, -1784(%rbp)
	movq	-1824(%rbp), %rsi
Ltmp18:
	movq	%rsi, %rdi
	movq	%rdx, -4360(%rbp)       ## 8-byte Spill
	movq	%rsi, -4368(%rbp)       ## 8-byte Spill
	callq	__ZNSt3__111char_traitsIcE6lengthEPKc
Ltmp19:
	movq	%rax, -4376(%rbp)       ## 8-byte Spill
	jmp	LBB0_17
LBB0_17:                                ## %.noexc14
Ltmp20:
	movq	-4360(%rbp), %rdi       ## 8-byte Reload
	movq	-4368(%rbp), %rsi       ## 8-byte Reload
	movq	-4376(%rbp), %rdx       ## 8-byte Reload
	callq	__ZNSt3__112basic_stringIcNS_11char_traitsIcEENS_9allocatorIcEEE6__initEPKcm
Ltmp21:
	jmp	LBB0_18
LBB0_18:                                ## %_ZNSt3__14pairIiNS_12basic_stringIcNS_11char_traitsIcEENS_9allocatorIcEEEEEC1IiRA19_KcvEEOT_OT0_.exit
	jmp	LBB0_19
LBB0_19:
	leaq	-3672(%rbp), %rax
	movq	%rax, -1744(%rbp)
	leaq	-3912(%rbp), %rax
	movq	%rax, -1752(%rbp)
	movq	-1744(%rbp), %rdi
	movq	%rax, -1720(%rbp)
Ltmp22:
	movq	%rax, %rsi
	callq	__ZNSt3__112__hash_tableINS_17__hash_value_typeIiNS_12basic_stringIcNS_11char_traitsIcEENS_9allocatorIcEEEEEENS_22__unordered_map_hasherIiS8_NS_4hashIiEELb1EEENS_21__unordered_map_equalIiS8_NS_8equal_toIiEELb1EEENS5_IS8_EEE15__insert_uniqueINS_4pairIiS7_EEEENSK_INS_15__hash_iteratorIPNS_11__hash_nodeIS8_PvEEEEbEEOT_
Ltmp23:
	movb	%dl, -4377(%rbp)        ## 1-byte Spill
	movq	%rax, -4392(%rbp)       ## 8-byte Spill
	jmp	LBB0_20
LBB0_20:                                ## %_ZNSt3__113unordered_mapIiNS_12basic_stringIcNS_11char_traitsIcEENS_9allocatorIcEEEENS_4hashIiEENS_8equal_toIiEENS4_INS_4pairIKiS6_EEEEE6insertINSB_IiS6_EEvEENSB_INS_19__hash_map_iteratorINS_15__hash_iteratorIPNS_11__hash_nodeINS_17__hash_value_typeIiS6_EEPvEEEEEEbEEOT_.exit19
	movq	-4392(%rbp), %rax       ## 8-byte Reload
	movq	%rax, -1768(%rbp)
	movb	-4377(%rbp), %cl        ## 1-byte Reload
	movb	%cl, -1760(%rbp)
	leaq	-1736(%rbp), %rdx
	movq	%rdx, -1696(%rbp)
	leaq	-1768(%rbp), %rdx
	movq	%rdx, -1704(%rbp)
	movq	$0, -1712(%rbp)
	movq	-1696(%rbp), %rdx
	movq	-1704(%rbp), %rsi
	movq	%rdx, -1664(%rbp)
	movq	%rsi, -1672(%rbp)
	movq	$0, -1680(%rbp)
	movq	-1664(%rbp), %rdx
	movq	-1672(%rbp), %rsi
	movq	%rsi, -1656(%rbp)
	movq	(%rsi), %rsi
	movq	%rsi, -1688(%rbp)
	movq	%rsi, -1632(%rbp)
	movq	%rdx, -1640(%rbp)
	movq	-1632(%rbp), %rsi
	movq	%rsi, -1616(%rbp)
	movq	%rdx, -1624(%rbp)
	movq	-1616(%rbp), %rsi
	movq	%rsi, (%rdx)
	movq	-1672(%rbp), %rsi
	movq	%rsi, %rdi
	addq	$8, %rdi
	movq	%rdi, -1648(%rbp)
	movb	8(%rsi), %r8b
	andb	$1, %r8b
	movb	%r8b, 8(%rdx)
	movb	-1728(%rbp), %r8b
	movq	-1736(%rbp), %rdx
	movb	%r8b, -4393(%rbp)       ## 1-byte Spill
	movq	%rdx, -4408(%rbp)       ## 8-byte Spill
## BB#21:
	movq	-4408(%rbp), %rax       ## 8-byte Reload
	movq	%rax, -3936(%rbp)
	movb	-4393(%rbp), %cl        ## 1-byte Reload
	movb	%cl, -3928(%rbp)
	leaq	-3912(%rbp), %rdi
	callq	__ZNSt3__14pairIiNS_12basic_stringIcNS_11char_traitsIcEENS_9allocatorIcEEEEED1Ev
	movl	$100, -3972(%rbp)
	leaq	-3968(%rbp), %rax
	movq	%rax, -1592(%rbp)
	leaq	-3972(%rbp), %rax
	movq	%rax, -1600(%rbp)
	leaq	L_.str5(%rip), %rax
	movq	%rax, -1608(%rbp)
	movq	-1592(%rbp), %rdi
	movq	-1600(%rbp), %rdx
	movq	%rdi, -1568(%rbp)
	movq	%rdx, -1576(%rbp)
	movq	%rax, -1584(%rbp)
	movq	-1568(%rbp), %rax
	movq	-1576(%rbp), %rdx
	movq	%rdx, -1560(%rbp)
	movl	(%rdx), %esi
	movl	%esi, (%rax)
	addq	$8, %rax
	movq	-1584(%rbp), %rdx
	movq	%rdx, -1488(%rbp)
	movq	%rax, -1544(%rbp)
	movq	%rdx, -1552(%rbp)
	movq	-1544(%rbp), %rax
	movq	%rax, -1528(%rbp)
	movq	%rdx, -1536(%rbp)
	movq	-1528(%rbp), %rax
	movq	%rax, -1520(%rbp)
	movq	%rax, -1512(%rbp)
	movq	%rax, -1504(%rbp)
	movq	%rax, -1496(%rbp)
	movq	-1536(%rbp), %rdx
Ltmp25:
	movq	%rdx, %rdi
	movq	%rax, -4416(%rbp)       ## 8-byte Spill
	movq	%rdx, -4424(%rbp)       ## 8-byte Spill
	callq	__ZNSt3__111char_traitsIcE6lengthEPKc
Ltmp26:
	movq	%rax, -4432(%rbp)       ## 8-byte Spill
	jmp	LBB0_22
LBB0_22:                                ## %.noexc20
Ltmp27:
	movq	-4416(%rbp), %rdi       ## 8-byte Reload
	movq	-4424(%rbp), %rsi       ## 8-byte Reload
	movq	-4432(%rbp), %rdx       ## 8-byte Reload
	callq	__ZNSt3__112basic_stringIcNS_11char_traitsIcEENS_9allocatorIcEEE6__initEPKcm
Ltmp28:
	jmp	LBB0_23
LBB0_23:                                ## %_ZNSt3__14pairIKiNS_12basic_stringIcNS_11char_traitsIcEENS_9allocatorIcEEEEEC1IiRA12_KcvEEOT_OT0_.exit
	jmp	LBB0_24
LBB0_24:
	leaq	-3672(%rbp), %rax
	movq	%rax, -1456(%rbp)
	leaq	-3968(%rbp), %rax
	movq	%rax, -1464(%rbp)
	movq	-1456(%rbp), %rdi
	movq	%rax, -1432(%rbp)
Ltmp29:
	movq	%rax, %rsi
	callq	__ZNSt3__112__hash_tableINS_17__hash_value_typeIiNS_12basic_stringIcNS_11char_traitsIcEENS_9allocatorIcEEEEEENS_22__unordered_map_hasherIiS8_NS_4hashIiEELb1EEENS_21__unordered_map_equalIiS8_NS_8equal_toIiEELb1EEENS5_IS8_EEE15__insert_uniqueINS_4pairIKiS7_EEEENSK_INS_15__hash_iteratorIPNS_11__hash_nodeIS8_PvEEEEbEEOT_
Ltmp30:
	movb	%dl, -4433(%rbp)        ## 1-byte Spill
	movq	%rax, -4448(%rbp)       ## 8-byte Spill
	jmp	LBB0_25
LBB0_25:                                ## %_ZNSt3__113unordered_mapIiNS_12basic_stringIcNS_11char_traitsIcEENS_9allocatorIcEEEENS_4hashIiEENS_8equal_toIiEENS4_INS_4pairIKiS6_EEEEE6insertISD_vEENSB_INS_19__hash_map_iteratorINS_15__hash_iteratorIPNS_11__hash_nodeINS_17__hash_value_typeIiS6_EEPvEEEEEEbEEOT_.exit25
	movq	-4448(%rbp), %rax       ## 8-byte Reload
	movq	%rax, -1480(%rbp)
	movb	-4433(%rbp), %cl        ## 1-byte Reload
	movb	%cl, -1472(%rbp)
	leaq	-1448(%rbp), %rdx
	movq	%rdx, -1408(%rbp)
	leaq	-1480(%rbp), %rdx
	movq	%rdx, -1416(%rbp)
	movq	$0, -1424(%rbp)
	movq	-1408(%rbp), %rdx
	movq	-1416(%rbp), %rsi
	movq	%rdx, -1376(%rbp)
	movq	%rsi, -1384(%rbp)
	movq	$0, -1392(%rbp)
	movq	-1376(%rbp), %rdx
	movq	-1384(%rbp), %rsi
	movq	%rsi, -1368(%rbp)
	movq	(%rsi), %rsi
	movq	%rsi, -1400(%rbp)
	movq	%rsi, -1344(%rbp)
	movq	%rdx, -1352(%rbp)
	movq	-1344(%rbp), %rsi
	movq	%rsi, -1328(%rbp)
	movq	%rdx, -1336(%rbp)
	movq	-1328(%rbp), %rsi
	movq	%rsi, (%rdx)
	movq	-1384(%rbp), %rsi
	movq	%rsi, %rdi
	addq	$8, %rdi
	movq	%rdi, -1360(%rbp)
	movb	8(%rsi), %r8b
	andb	$1, %r8b
	movb	%r8b, 8(%rdx)
	movb	-1440(%rbp), %r8b
	movq	-1448(%rbp), %rdx
	movb	%r8b, -4449(%rbp)       ## 1-byte Spill
	movq	%rdx, -4464(%rbp)       ## 8-byte Spill
## BB#26:
	movq	-4464(%rbp), %rax       ## 8-byte Reload
	movq	%rax, -3992(%rbp)
	movb	-4449(%rbp), %cl        ## 1-byte Reload
	movb	%cl, -3984(%rbp)
	leaq	-3968(%rbp), %rdi
	callq	__ZNSt3__14pairIKiNS_12basic_stringIcNS_11char_traitsIcEENS_9allocatorIcEEEEED1Ev
	movl	$12, -4012(%rbp)
	leaq	-4012(%rbp), %rax
	movq	%rax, -1312(%rbp)
	leaq	L_.str6(%rip), %rax
	movq	%rax, -1320(%rbp)
	movq	-1312(%rbp), %rax
	movq	%rax, -1288(%rbp)
	movq	-1320(%rbp), %rdi
	movq	%rdi, -1216(%rbp)
	leaq	-1304(%rbp), %rdx
	movq	%rdx, -1264(%rbp)
	movq	%rax, -1272(%rbp)
	movq	%rdi, -1280(%rbp)
	movq	-1264(%rbp), %rax
	movq	-1272(%rbp), %rdx
	movq	%rax, -1240(%rbp)
	movq	%rdx, -1248(%rbp)
	movq	%rdi, -1256(%rbp)
	movq	-1240(%rbp), %rax
	movq	-1248(%rbp), %rdx
	movq	%rdx, -1232(%rbp)
	movl	(%rdx), %esi
	movl	%esi, (%rax)
	movq	-1256(%rbp), %rdx
	movq	%rdx, -1224(%rbp)
	movq	%rdx, 8(%rax)
	movq	-1296(%rbp), %rax
	movl	-1304(%rbp), %esi
	movq	%rax, -4472(%rbp)       ## 8-byte Spill
	movl	%esi, -4476(%rbp)       ## 4-byte Spill
## BB#27:
	movl	-4476(%rbp), %eax       ## 4-byte Reload
	movl	%eax, -4008(%rbp)
	movq	-4472(%rbp), %rcx       ## 8-byte Reload
	movq	%rcx, -4000(%rbp)
	leaq	-3672(%rbp), %rdx
	movq	%rdx, -1184(%rbp)
	leaq	-4008(%rbp), %rdx
	movq	%rdx, -1192(%rbp)
	movq	-1184(%rbp), %rdi
	movq	%rdx, -1160(%rbp)
Ltmp32:
	movq	%rdx, %rsi
	callq	__ZNSt3__112__hash_tableINS_17__hash_value_typeIiNS_12basic_stringIcNS_11char_traitsIcEENS_9allocatorIcEEEEEENS_22__unordered_map_hasherIiS8_NS_4hashIiEELb1EEENS_21__unordered_map_equalIiS8_NS_8equal_toIiEELb1EEENS5_IS8_EEE15__insert_uniqueINS_4pairIiPKcEEEENSK_INS_15__hash_iteratorIPNS_11__hash_nodeIS8_PvEEEEbEEOT_
Ltmp33:
	movb	%dl, -4477(%rbp)        ## 1-byte Spill
	movq	%rax, -4488(%rbp)       ## 8-byte Spill
	jmp	LBB0_28
LBB0_28:                                ## %_ZNSt3__113unordered_mapIiNS_12basic_stringIcNS_11char_traitsIcEENS_9allocatorIcEEEENS_4hashIiEENS_8equal_toIiEENS4_INS_4pairIKiS6_EEEEE6insertINSB_IiPKcEEvEENSB_INS_19__hash_map_iteratorINS_15__hash_iteratorIPNS_11__hash_nodeINS_17__hash_value_typeIiS6_EEPvEEEEEEbEEOT_.exit29
	movq	-4488(%rbp), %rax       ## 8-byte Reload
	movq	%rax, -1208(%rbp)
	movb	-4477(%rbp), %cl        ## 1-byte Reload
	movb	%cl, -1200(%rbp)
	leaq	-1176(%rbp), %rdx
	movq	%rdx, -1136(%rbp)
	leaq	-1208(%rbp), %rdx
	movq	%rdx, -1144(%rbp)
	movq	$0, -1152(%rbp)
	movq	-1136(%rbp), %rdx
	movq	-1144(%rbp), %rsi
	movq	%rdx, -1104(%rbp)
	movq	%rsi, -1112(%rbp)
	movq	$0, -1120(%rbp)
	movq	-1104(%rbp), %rdx
	movq	-1112(%rbp), %rsi
	movq	%rsi, -1096(%rbp)
	movq	(%rsi), %rsi
	movq	%rsi, -1128(%rbp)
	movq	%rsi, -1072(%rbp)
	movq	%rdx, -1080(%rbp)
	movq	-1072(%rbp), %rsi
	movq	%rsi, -1056(%rbp)
	movq	%rdx, -1064(%rbp)
	movq	-1056(%rbp), %rsi
	movq	%rsi, (%rdx)
	movq	-1112(%rbp), %rsi
	movq	%rsi, %rdi
	addq	$8, %rdi
	movq	%rdi, -1088(%rbp)
	movb	8(%rsi), %r8b
	andb	$1, %r8b
	movb	%r8b, 8(%rdx)
	movb	-1168(%rbp), %r8b
	movq	-1176(%rbp), %rdx
	movb	%r8b, -4489(%rbp)       ## 1-byte Spill
	movq	%rdx, -4504(%rbp)       ## 8-byte Spill
## BB#29:
	movq	-4504(%rbp), %rax       ## 8-byte Reload
	movq	%rax, -4032(%rbp)
	movb	-4489(%rbp), %cl        ## 1-byte Reload
	movb	%cl, -4024(%rbp)
	movl	$-100, -4052(%rbp)
	leaq	-4052(%rbp), %rdx
	movq	%rdx, -1040(%rbp)
	leaq	L_.str7(%rip), %rdx
	movq	%rdx, -1048(%rbp)
	movq	-1040(%rbp), %rdx
	movq	%rdx, -1016(%rbp)
	movq	-1048(%rbp), %rsi
	movq	%rsi, -944(%rbp)
	leaq	-1032(%rbp), %rdi
	movq	%rdi, -992(%rbp)
	movq	%rdx, -1000(%rbp)
	movq	%rsi, -1008(%rbp)
	movq	-992(%rbp), %rdx
	movq	-1000(%rbp), %rdi
	movq	%rdx, -968(%rbp)
	movq	%rdi, -976(%rbp)
	movq	%rsi, -984(%rbp)
	movq	-968(%rbp), %rdx
	movq	-976(%rbp), %rsi
	movq	%rsi, -960(%rbp)
	movl	(%rsi), %r8d
	movl	%r8d, (%rdx)
	movq	-984(%rbp), %rsi
	movq	%rsi, -952(%rbp)
	movq	%rsi, 8(%rdx)
	movq	-1024(%rbp), %rdx
	movl	-1032(%rbp), %r8d
	movq	%rdx, -4512(%rbp)       ## 8-byte Spill
	movl	%r8d, -4516(%rbp)       ## 4-byte Spill
## BB#30:
	movl	-4516(%rbp), %eax       ## 4-byte Reload
	movl	%eax, -4048(%rbp)
	movq	-4512(%rbp), %rcx       ## 8-byte Reload
	movq	%rcx, -4040(%rbp)
	leaq	-3672(%rbp), %rdx
	movq	%rdx, -912(%rbp)
	leaq	-4048(%rbp), %rdx
	movq	%rdx, -920(%rbp)
	movq	-912(%rbp), %rdi
	movq	%rdx, -888(%rbp)
Ltmp34:
	movq	%rdx, %rsi
	callq	__ZNSt3__112__hash_tableINS_17__hash_value_typeIiNS_12basic_stringIcNS_11char_traitsIcEENS_9allocatorIcEEEEEENS_22__unordered_map_hasherIiS8_NS_4hashIiEELb1EEENS_21__unordered_map_equalIiS8_NS_8equal_toIiEELb1EEENS5_IS8_EEE15__insert_uniqueINS_4pairIiPKcEEEENSK_INS_15__hash_iteratorIPNS_11__hash_nodeIS8_PvEEEEbEEOT_
Ltmp35:
	movb	%dl, -4517(%rbp)        ## 1-byte Spill
	movq	%rax, -4528(%rbp)       ## 8-byte Spill
	jmp	LBB0_31
LBB0_31:                                ## %_ZNSt3__113unordered_mapIiNS_12basic_stringIcNS_11char_traitsIcEENS_9allocatorIcEEEENS_4hashIiEENS_8equal_toIiEENS4_INS_4pairIKiS6_EEEEE6insertINSB_IiPKcEEvEENSB_INS_19__hash_map_iteratorINS_15__hash_iteratorIPNS_11__hash_nodeINS_17__hash_value_typeIiS6_EEPvEEEEEEbEEOT_.exit33
	movq	-4528(%rbp), %rax       ## 8-byte Reload
	movq	%rax, -936(%rbp)
	movb	-4517(%rbp), %cl        ## 1-byte Reload
	movb	%cl, -928(%rbp)
	leaq	-904(%rbp), %rdx
	movq	%rdx, -864(%rbp)
	leaq	-936(%rbp), %rdx
	movq	%rdx, -872(%rbp)
	movq	$0, -880(%rbp)
	movq	-864(%rbp), %rdx
	movq	-872(%rbp), %rsi
	movq	%rdx, -832(%rbp)
	movq	%rsi, -840(%rbp)
	movq	$0, -848(%rbp)
	movq	-832(%rbp), %rdx
	movq	-840(%rbp), %rsi
	movq	%rsi, -824(%rbp)
	movq	(%rsi), %rsi
	movq	%rsi, -856(%rbp)
	movq	%rsi, -800(%rbp)
	movq	%rdx, -808(%rbp)
	movq	-800(%rbp), %rsi
	movq	%rsi, -784(%rbp)
	movq	%rdx, -792(%rbp)
	movq	-784(%rbp), %rsi
	movq	%rsi, (%rdx)
	movq	-840(%rbp), %rsi
	movq	%rsi, %rdi
	addq	$8, %rdi
	movq	%rdi, -816(%rbp)
	movb	8(%rsi), %r8b
	andb	$1, %r8b
	movb	%r8b, 8(%rdx)
	movb	-896(%rbp), %r8b
	movq	-904(%rbp), %rdx
	movb	%r8b, -4529(%rbp)       ## 1-byte Spill
	movq	%rdx, -4544(%rbp)       ## 8-byte Spill
## BB#32:
	movq	-4544(%rbp), %rax       ## 8-byte Reload
	movq	%rax, -4072(%rbp)
	movb	-4529(%rbp), %cl        ## 1-byte Reload
	movb	%cl, -4064(%rbp)
Ltmp36:
	leaq	-3672(%rbp), %rdi
	callq	__Z19DisplayUnorderedMapIiNSt3__112basic_stringIcNS0_11char_traitsIcEENS0_9allocatorIcEEEEEvRNS0_13unordered_mapIT_T0_NS0_4hashIS8_EENS0_8equal_toIS8_EENS4_INS0_4pairIKS8_S9_EEEEEE
Ltmp37:
	jmp	LBB0_33
LBB0_33:
Ltmp38:
	movq	__ZNSt3__14coutE@GOTPCREL(%rip), %rdi
	leaq	L_.str8(%rip), %rsi
	callq	__ZNSt3__1lsINS_11char_traitsIcEEEERNS_13basic_ostreamIcT_EES6_PKc
Ltmp39:
	movq	%rax, -4552(%rbp)       ## 8-byte Spill
	jmp	LBB0_34
LBB0_34:
	movq	-4552(%rbp), %rax       ## 8-byte Reload
	movq	%rax, -768(%rbp)
	leaq	__ZNSt3__14endlIcNS_11char_traitsIcEEEERNS_13basic_ostreamIT_T0_EES7_(%rip), %rcx
	movq	%rcx, -776(%rbp)
	movq	-768(%rbp), %rdi
Ltmp40:
	callq	*%rcx
Ltmp41:
	movq	%rax, -4560(%rbp)       ## 8-byte Spill
	jmp	LBB0_35
LBB0_35:                                ## %_ZNSt3__113basic_ostreamIcNS_11char_traitsIcEEElsEPFRS3_S4_E.exit
	jmp	LBB0_36
LBB0_36:
	movl	$300, -4092(%rbp)       ## imm = 0x12C
	leaq	-4092(%rbp), %rax
	movq	%rax, -752(%rbp)
	leaq	L_.str9(%rip), %rax
	movq	%rax, -760(%rbp)
	movq	-752(%rbp), %rax
	movq	%rax, -728(%rbp)
	movq	-760(%rbp), %rcx
	movq	%rcx, -656(%rbp)
	leaq	-744(%rbp), %rdx
	movq	%rdx, -704(%rbp)
	movq	%rax, -712(%rbp)
	movq	%rcx, -720(%rbp)
	movq	-704(%rbp), %rax
	movq	-712(%rbp), %rdx
	movq	%rax, -680(%rbp)
	movq	%rdx, -688(%rbp)
	movq	%rcx, -696(%rbp)
	movq	-680(%rbp), %rax
	movq	-688(%rbp), %rcx
	movq	%rcx, -672(%rbp)
	movl	(%rcx), %esi
	movl	%esi, (%rax)
	movq	-696(%rbp), %rcx
	movq	%rcx, -664(%rbp)
	movq	%rcx, 8(%rax)
	movq	-736(%rbp), %rax
	movl	-744(%rbp), %esi
	movq	%rax, -4568(%rbp)       ## 8-byte Spill
	movl	%esi, -4572(%rbp)       ## 4-byte Spill
## BB#37:
	movl	-4572(%rbp), %eax       ## 4-byte Reload
	movl	%eax, -4088(%rbp)
	movq	-4568(%rbp), %rcx       ## 8-byte Reload
	movq	%rcx, -4080(%rbp)
	leaq	-3672(%rbp), %rdx
	movq	%rdx, -624(%rbp)
	leaq	-4088(%rbp), %rdx
	movq	%rdx, -632(%rbp)
	movq	-624(%rbp), %rdi
	movq	%rdx, -600(%rbp)
Ltmp42:
	movq	%rdx, %rsi
	callq	__ZNSt3__112__hash_tableINS_17__hash_value_typeIiNS_12basic_stringIcNS_11char_traitsIcEENS_9allocatorIcEEEEEENS_22__unordered_map_hasherIiS8_NS_4hashIiEELb1EEENS_21__unordered_map_equalIiS8_NS_8equal_toIiEELb1EEENS5_IS8_EEE15__insert_uniqueINS_4pairIiPKcEEEENSK_INS_15__hash_iteratorIPNS_11__hash_nodeIS8_PvEEEEbEEOT_
Ltmp43:
	movb	%dl, -4573(%rbp)        ## 1-byte Spill
	movq	%rax, -4584(%rbp)       ## 8-byte Spill
	jmp	LBB0_38
LBB0_38:                                ## %_ZNSt3__113unordered_mapIiNS_12basic_stringIcNS_11char_traitsIcEENS_9allocatorIcEEEENS_4hashIiEENS_8equal_toIiEENS4_INS_4pairIKiS6_EEEEE6insertINSB_IiPKcEEvEENSB_INS_19__hash_map_iteratorINS_15__hash_iteratorIPNS_11__hash_nodeINS_17__hash_value_typeIiS6_EEPvEEEEEEbEEOT_.exit38
	movq	-4584(%rbp), %rax       ## 8-byte Reload
	movq	%rax, -648(%rbp)
	movb	-4573(%rbp), %cl        ## 1-byte Reload
	movb	%cl, -640(%rbp)
	leaq	-616(%rbp), %rdx
	movq	%rdx, -576(%rbp)
	leaq	-648(%rbp), %rdx
	movq	%rdx, -584(%rbp)
	movq	$0, -592(%rbp)
	movq	-576(%rbp), %rdx
	movq	-584(%rbp), %rsi
	movq	%rdx, -544(%rbp)
	movq	%rsi, -552(%rbp)
	movq	$0, -560(%rbp)
	movq	-544(%rbp), %rdx
	movq	-552(%rbp), %rsi
	movq	%rsi, -536(%rbp)
	movq	(%rsi), %rsi
	movq	%rsi, -568(%rbp)
	movq	%rsi, -512(%rbp)
	movq	%rdx, -520(%rbp)
	movq	-512(%rbp), %rsi
	movq	%rsi, -496(%rbp)
	movq	%rdx, -504(%rbp)
	movq	-496(%rbp), %rsi
	movq	%rsi, (%rdx)
	movq	-552(%rbp), %rsi
	movq	%rsi, %rdi
	addq	$8, %rdi
	movq	%rdi, -528(%rbp)
	movb	8(%rsi), %r8b
	andb	$1, %r8b
	movb	%r8b, 8(%rdx)
	movb	-608(%rbp), %r8b
	movq	-616(%rbp), %rdx
	movb	%r8b, -4585(%rbp)       ## 1-byte Spill
	movq	%rdx, -4600(%rbp)       ## 8-byte Spill
## BB#39:
	movq	-4600(%rbp), %rax       ## 8-byte Reload
	movq	%rax, -4112(%rbp)
	movb	-4585(%rbp), %cl        ## 1-byte Reload
	movb	%cl, -4104(%rbp)
Ltmp44:
	leaq	-3672(%rbp), %rdi
	callq	__Z19DisplayUnorderedMapIiNSt3__112basic_stringIcNS0_11char_traitsIcEENS0_9allocatorIcEEEEEvRNS0_13unordered_mapIT_T0_NS0_4hashIS8_EENS0_8equal_toIS8_EENS4_INS0_4pairIKS8_S9_EEEEEE
Ltmp45:
	jmp	LBB0_40
LBB0_40:
Ltmp46:
	movq	__ZNSt3__14coutE@GOTPCREL(%rip), %rdi
	leaq	L_.str10(%rip), %rsi
	callq	__ZNSt3__1lsINS_11char_traitsIcEEEERNS_13basic_ostreamIcT_EES6_PKc
Ltmp47:
	movq	%rax, -4608(%rbp)       ## 8-byte Spill
	jmp	LBB0_41
LBB0_41:
	movl	$0, -4116(%rbp)
Ltmp48:
	movq	__ZNSt3__13cinE@GOTPCREL(%rip), %rdi
	leaq	-4116(%rbp), %rsi
	callq	__ZNSt3__113basic_istreamIcNS_11char_traitsIcEEErsERi
Ltmp49:
	movq	%rax, -4616(%rbp)       ## 8-byte Spill
	jmp	LBB0_42
LBB0_42:
	leaq	-3672(%rbp), %rax
	movq	%rax, -472(%rbp)
	leaq	-4116(%rbp), %rax
	movq	%rax, -480(%rbp)
	movq	-472(%rbp), %rdi
Ltmp50:
	movq	%rax, %rsi
	callq	__ZNSt3__112__hash_tableINS_17__hash_value_typeIiNS_12basic_stringIcNS_11char_traitsIcEENS_9allocatorIcEEEEEENS_22__unordered_map_hasherIiS8_NS_4hashIiEELb1EEENS_21__unordered_map_equalIiS8_NS_8equal_toIiEELb1EEENS5_IS8_EEE4findIiEENS_15__hash_iteratorIPNS_11__hash_nodeIS8_PvEEEERKT_
Ltmp51:
	movq	%rax, -4624(%rbp)       ## 8-byte Spill
	jmp	LBB0_43
LBB0_43:                                ## %_ZNSt3__113unordered_mapIiNS_12basic_stringIcNS_11char_traitsIcEENS_9allocatorIcEEEENS_4hashIiEENS_8equal_toIiEENS4_INS_4pairIKiS6_EEEEE4findERSC_.exit
	leaq	-464(%rbp), %rax
	movq	-4624(%rbp), %rcx       ## 8-byte Reload
	movq	%rcx, -488(%rbp)
	movq	-488(%rbp), %rdx
	movq	%rdx, -448(%rbp)
	movq	%rax, -456(%rbp)
	movq	-456(%rbp), %rax
	movq	-448(%rbp), %rdx
	movq	%rdx, -432(%rbp)
	movq	%rax, -440(%rbp)
	movq	-440(%rbp), %rax
	movq	-432(%rbp), %rdx
	movq	%rdx, (%rax)
	movq	-464(%rbp), %rax
	movq	%rax, -4632(%rbp)       ## 8-byte Spill
## BB#44:
	leaq	-4144(%rbp), %rax
	leaq	-4128(%rbp), %rcx
	leaq	-216(%rbp), %rdx
	leaq	-328(%rbp), %rsi
	leaq	-312(%rbp), %rdi
	leaq	-3672(%rbp), %r8
	leaq	-400(%rbp), %r9
	movq	-4632(%rbp), %r10       ## 8-byte Reload
	movq	%r10, -4136(%rbp)
	movq	-4136(%rbp), %r11
	movq	%r11, -416(%rbp)
	movq	%rcx, -424(%rbp)
	movq	-424(%rbp), %r11
	movq	-416(%rbp), %rbx
	movq	%rbx, -400(%rbp)
	movq	%r11, -408(%rbp)
	movq	-408(%rbp), %r11
	movq	%r11, -384(%rbp)
	movq	%r9, -392(%rbp)
	movq	-384(%rbp), %r9
	movq	-392(%rbp), %r11
	movq	%r9, -368(%rbp)
	movq	%r11, -376(%rbp)
	movq	-368(%rbp), %r9
	movq	-376(%rbp), %r11
	movq	(%r11), %r11
	movq	%r11, (%r9)
	movq	%r8, -336(%rbp)
	movq	-336(%rbp), %r8
	movq	%r8, -320(%rbp)
	movq	%rdi, -296(%rbp)
	movq	$0, -304(%rbp)
	movq	-296(%rbp), %rdi
	movq	-304(%rbp), %r8
	movq	%rdi, -280(%rbp)
	movq	%r8, -288(%rbp)
	movq	-280(%rbp), %rdi
	movq	-288(%rbp), %r8
	movq	%r8, (%rdi)
	movq	-312(%rbp), %rdi
	movq	%rdi, -344(%rbp)
	movq	-344(%rbp), %rdi
	movq	%rdi, -264(%rbp)
	movq	%rsi, -272(%rbp)
	movq	-272(%rbp), %rsi
	movq	-264(%rbp), %rdi
	movq	%rdi, -248(%rbp)
	movq	%rsi, -256(%rbp)
	movq	-256(%rbp), %rsi
	movq	-248(%rbp), %rdi
	movq	%rdi, (%rsi)
	movq	-328(%rbp), %rsi
	movq	%rsi, -4152(%rbp)
	movq	-4152(%rbp), %rsi
	movq	%rsi, -232(%rbp)
	movq	%rax, -240(%rbp)
	movq	-240(%rbp), %rsi
	movq	-232(%rbp), %rdi
	movq	%rdi, -216(%rbp)
	movq	%rsi, -224(%rbp)
	movq	-224(%rbp), %rsi
	movq	%rsi, -200(%rbp)
	movq	%rdx, -208(%rbp)
	movq	-200(%rbp), %rdx
	movq	-208(%rbp), %rsi
	movq	%rdx, -184(%rbp)
	movq	%rsi, -192(%rbp)
	movq	-184(%rbp), %rdx
	movq	-192(%rbp), %rsi
	movq	(%rsi), %rsi
	movq	%rsi, (%rdx)
	movq	%rcx, -168(%rbp)
	movq	%rax, -176(%rbp)
	movq	-168(%rbp), %rax
	movq	-176(%rbp), %rcx
	movq	%rax, -152(%rbp)
	movq	%rcx, -160(%rbp)
	movq	-152(%rbp), %rax
	movq	-160(%rbp), %rcx
	movq	%rax, -136(%rbp)
	movq	%rcx, -144(%rbp)
	movq	-136(%rbp), %rax
	movq	(%rax), %rax
	movq	-144(%rbp), %rcx
	cmpq	(%rcx), %rax
	sete	%r14b
	xorb	$1, %r14b
	movb	%r14b, -4633(%rbp)      ## 1-byte Spill
## BB#45:
	movb	-4633(%rbp), %al        ## 1-byte Reload
	testb	$1, %al
	jne	LBB0_46
	jmp	LBB0_60
LBB0_46:
Ltmp56:
	movq	__ZNSt3__14coutE@GOTPCREL(%rip), %rdi
	leaq	L_.str11(%rip), %rsi
	callq	__ZNSt3__1lsINS_11char_traitsIcEEEERNS_13basic_ostreamIcT_EES6_PKc
Ltmp57:
	movq	%rax, -4648(%rbp)       ## 8-byte Spill
	jmp	LBB0_47
LBB0_47:
	leaq	-4128(%rbp), %rax
	movq	%rax, -128(%rbp)
	movq	-128(%rbp), %rax
	movq	%rax, -120(%rbp)
	movq	-120(%rbp), %rax
	movq	(%rax), %rax
	addq	$16, %rax
	movq	%rax, -112(%rbp)
	movq	-112(%rbp), %rax
	movq	%rax, -104(%rbp)
	movq	-104(%rbp), %rax
	movq	%rax, -96(%rbp)
	movq	-96(%rbp), %rax
	movq	%rax, -88(%rbp)
	movq	-88(%rbp), %rax
	movq	%rax, -4656(%rbp)       ## 8-byte Spill
## BB#48:
	movq	-4656(%rbp), %rax       ## 8-byte Reload
	movl	(%rax), %esi
Ltmp58:
	movq	-4648(%rbp), %rdi       ## 8-byte Reload
	callq	__ZNSt3__113basic_ostreamIcNS_11char_traitsIcEEElsEi
Ltmp59:
	movq	%rax, -4664(%rbp)       ## 8-byte Spill
	jmp	LBB0_49
LBB0_49:
Ltmp60:
	leaq	L_.str12(%rip), %rsi
	movq	-4664(%rbp), %rdi       ## 8-byte Reload
	callq	__ZNSt3__1lsINS_11char_traitsIcEEEERNS_13basic_ostreamIcT_EES6_PKc
Ltmp61:
	movq	%rax, -4672(%rbp)       ## 8-byte Spill
	jmp	LBB0_50
LBB0_50:
	leaq	-4128(%rbp), %rax
	movq	%rax, -80(%rbp)
	movq	-80(%rbp), %rax
	movq	%rax, -72(%rbp)
	movq	-72(%rbp), %rax
	movq	(%rax), %rax
	addq	$16, %rax
	movq	%rax, -64(%rbp)
	movq	-64(%rbp), %rax
	movq	%rax, -56(%rbp)
	movq	-56(%rbp), %rax
	movq	%rax, -48(%rbp)
	movq	-48(%rbp), %rax
	movq	%rax, -40(%rbp)
	movq	-40(%rbp), %rax
	movq	%rax, -4680(%rbp)       ## 8-byte Spill
## BB#51:
	movq	-4680(%rbp), %rax       ## 8-byte Reload
	addq	$8, %rax
Ltmp62:
	movq	__ZNSt3__14coutE@GOTPCREL(%rip), %rdi
	movq	%rax, %rsi
	callq	__ZNSt3__1lsIcNS_11char_traitsIcEENS_9allocatorIcEEEERNS_13basic_ostreamIT_T0_EES9_RKNS_12basic_stringIS6_S7_T1_EE
Ltmp63:
	movq	%rax, -4688(%rbp)       ## 8-byte Spill
	jmp	LBB0_52
LBB0_52:
	movq	-4688(%rbp), %rax       ## 8-byte Reload
	movq	%rax, -24(%rbp)
	leaq	__ZNSt3__14endlIcNS_11char_traitsIcEEEERNS_13basic_ostreamIT_T0_EES7_(%rip), %rcx
	movq	%rcx, -32(%rbp)
	movq	-24(%rbp), %rdi
Ltmp64:
	callq	*%rcx
Ltmp65:
	movq	%rax, -4696(%rbp)       ## 8-byte Spill
	jmp	LBB0_53
LBB0_53:                                ## %_ZNSt3__113basic_ostreamIcNS_11char_traitsIcEEElsEPFRS3_S4_E.exit48
	jmp	LBB0_54
LBB0_54:
	jmp	LBB0_64
LBB0_55:
Ltmp66:
	movl	%edx, %ecx
	movq	%rax, -3704(%rbp)
	movl	%ecx, -3708(%rbp)
	jmp	LBB0_65
LBB0_56:
Ltmp8:
	leaq	-3760(%rbp), %rdi
	movl	%edx, %ecx
	movq	%rax, -3704(%rbp)
	movl	%ecx, -3708(%rbp)
	callq	__ZNSt3__14pairIKiNS_12basic_stringIcNS_11char_traitsIcEENS_9allocatorIcEEEEED1Ev
	jmp	LBB0_65
LBB0_57:
Ltmp15:
	leaq	-3816(%rbp), %rdi
	movl	%edx, %ecx
	movq	%rax, -3704(%rbp)
	movl	%ecx, -3708(%rbp)
	callq	__ZNSt3__14pairIiNS_12basic_stringIcNS_11char_traitsIcEENS_9allocatorIcEEEEED1Ev
	jmp	LBB0_65
LBB0_58:
Ltmp24:
	leaq	-3912(%rbp), %rdi
	movl	%edx, %ecx
	movq	%rax, -3704(%rbp)
	movl	%ecx, -3708(%rbp)
	callq	__ZNSt3__14pairIiNS_12basic_stringIcNS_11char_traitsIcEENS_9allocatorIcEEEEED1Ev
	jmp	LBB0_65
LBB0_59:
Ltmp31:
	leaq	-3968(%rbp), %rdi
	movl	%edx, %ecx
	movq	%rax, -3704(%rbp)
	movl	%ecx, -3708(%rbp)
	callq	__ZNSt3__14pairIKiNS_12basic_stringIcNS_11char_traitsIcEENS_9allocatorIcEEEEED1Ev
	jmp	LBB0_65
LBB0_60:
Ltmp52:
	movq	__ZNSt3__14coutE@GOTPCREL(%rip), %rdi
	leaq	L_.str13(%rip), %rsi
	callq	__ZNSt3__1lsINS_11char_traitsIcEEEERNS_13basic_ostreamIcT_EES6_PKc
Ltmp53:
	movq	%rax, -4704(%rbp)       ## 8-byte Spill
	jmp	LBB0_61
LBB0_61:
	movq	-4704(%rbp), %rax       ## 8-byte Reload
	movq	%rax, -352(%rbp)
	leaq	__ZNSt3__14endlIcNS_11char_traitsIcEEEERNS_13basic_ostreamIT_T0_EES7_(%rip), %rcx
	movq	%rcx, -360(%rbp)
	movq	-352(%rbp), %rdi
Ltmp54:
	callq	*%rcx
Ltmp55:
	movq	%rax, -4712(%rbp)       ## 8-byte Spill
	jmp	LBB0_62
LBB0_62:                                ## %_ZNSt3__113basic_ostreamIcNS_11char_traitsIcEEElsEPFRS3_S4_E.exit42
	jmp	LBB0_63
LBB0_63:
	jmp	LBB0_64
LBB0_64:
	leaq	-3672(%rbp), %rdi
	movl	$0, -3628(%rbp)
	movl	$1, -4156(%rbp)
	callq	__ZNSt3__113unordered_mapIiNS_12basic_stringIcNS_11char_traitsIcEENS_9allocatorIcEEEENS_4hashIiEENS_8equal_toIiEENS4_INS_4pairIKiS6_EEEEED1Ev
	movl	-3628(%rbp), %eax
	addq	$4704, %rsp             ## imm = 0x1260
	popq	%rbx
	popq	%r14
	popq	%rbp
	retq
LBB0_65:
	leaq	-3672(%rbp), %rdi
	callq	__ZNSt3__113unordered_mapIiNS_12basic_stringIcNS_11char_traitsIcEENS_9allocatorIcEEEENS_4hashIiEENS_8equal_toIiEENS4_INS_4pairIKiS6_EEEEED1Ev
## BB#66:
	movq	-3704(%rbp), %rdi
	callq	__Unwind_Resume
Lfunc_end0:
	.cfi_endproc
	.section	__TEXT,__gcc_except_tab
	.align	2
GCC_except_table0:
Lexception0:
	.byte	255                     ## @LPStart Encoding = omit
	.byte	155                     ## @TType Encoding = indirect pcrel sdata4
	.asciz	"\205\201\200\200"      ## @TType base offset
	.byte	3                       ## Call site Encoding = udata4
	.ascii	"\202\001"              ## Call site table length
Lset0 = Ltmp0-Lfunc_begin0              ## >> Call Site 1 <<
	.long	Lset0
Lset1 = Ltmp5-Ltmp0                     ##   Call between Ltmp0 and Ltmp5
	.long	Lset1
Lset2 = Ltmp66-Lfunc_begin0             ##     jumps to Ltmp66
	.long	Lset2
	.byte	0                       ##   On action: cleanup
Lset3 = Ltmp6-Lfunc_begin0              ## >> Call Site 2 <<
	.long	Lset3
Lset4 = Ltmp7-Ltmp6                     ##   Call between Ltmp6 and Ltmp7
	.long	Lset4
Lset5 = Ltmp8-Lfunc_begin0              ##     jumps to Ltmp8
	.long	Lset5
	.byte	0                       ##   On action: cleanup
Lset6 = Ltmp9-Lfunc_begin0              ## >> Call Site 3 <<
	.long	Lset6
Lset7 = Ltmp12-Ltmp9                    ##   Call between Ltmp9 and Ltmp12
	.long	Lset7
Lset8 = Ltmp66-Lfunc_begin0             ##     jumps to Ltmp66
	.long	Lset8
	.byte	0                       ##   On action: cleanup
Lset9 = Ltmp13-Lfunc_begin0             ## >> Call Site 4 <<
	.long	Lset9
Lset10 = Ltmp14-Ltmp13                  ##   Call between Ltmp13 and Ltmp14
	.long	Lset10
Lset11 = Ltmp15-Lfunc_begin0            ##     jumps to Ltmp15
	.long	Lset11
	.byte	0                       ##   On action: cleanup
Lset12 = Ltmp16-Lfunc_begin0            ## >> Call Site 5 <<
	.long	Lset12
Lset13 = Ltmp21-Ltmp16                  ##   Call between Ltmp16 and Ltmp21
	.long	Lset13
Lset14 = Ltmp66-Lfunc_begin0            ##     jumps to Ltmp66
	.long	Lset14
	.byte	0                       ##   On action: cleanup
Lset15 = Ltmp22-Lfunc_begin0            ## >> Call Site 6 <<
	.long	Lset15
Lset16 = Ltmp23-Ltmp22                  ##   Call between Ltmp22 and Ltmp23
	.long	Lset16
Lset17 = Ltmp24-Lfunc_begin0            ##     jumps to Ltmp24
	.long	Lset17
	.byte	0                       ##   On action: cleanup
Lset18 = Ltmp25-Lfunc_begin0            ## >> Call Site 7 <<
	.long	Lset18
Lset19 = Ltmp28-Ltmp25                  ##   Call between Ltmp25 and Ltmp28
	.long	Lset19
Lset20 = Ltmp66-Lfunc_begin0            ##     jumps to Ltmp66
	.long	Lset20
	.byte	0                       ##   On action: cleanup
Lset21 = Ltmp29-Lfunc_begin0            ## >> Call Site 8 <<
	.long	Lset21
Lset22 = Ltmp30-Ltmp29                  ##   Call between Ltmp29 and Ltmp30
	.long	Lset22
Lset23 = Ltmp31-Lfunc_begin0            ##     jumps to Ltmp31
	.long	Lset23
	.byte	0                       ##   On action: cleanup
Lset24 = Ltmp32-Lfunc_begin0            ## >> Call Site 9 <<
	.long	Lset24
Lset25 = Ltmp55-Ltmp32                  ##   Call between Ltmp32 and Ltmp55
	.long	Lset25
Lset26 = Ltmp66-Lfunc_begin0            ##     jumps to Ltmp66
	.long	Lset26
	.byte	0                       ##   On action: cleanup
Lset27 = Ltmp55-Lfunc_begin0            ## >> Call Site 10 <<
	.long	Lset27
Lset28 = Lfunc_end0-Ltmp55              ##   Call between Ltmp55 and Lfunc_end0
	.long	Lset28
	.long	0                       ##     has no landing pad
	.byte	0                       ##   On action: cleanup
	.align	2

	.section	__TEXT,__textcoal_nt,coalesced,pure_instructions
	.globl	__ZNSt3__14pairIKiNS_12basic_stringIcNS_11char_traitsIcEENS_9allocatorIcEEEEED1Ev
	.weak_def_can_be_hidden	__ZNSt3__14pairIKiNS_12basic_stringIcNS_11char_traitsIcEENS_9allocatorIcEEEEED1Ev
	.align	4, 0x90
__ZNSt3__14pairIKiNS_12basic_stringIcNS_11char_traitsIcEENS_9allocatorIcEEEEED1Ev: ## @_ZNSt3__14pairIKiNS_12basic_stringIcNS_11char_traitsIcEENS_9allocatorIcEEEEED1Ev
	.cfi_startproc
## BB#0:
	pushq	%rbp
Ltmp72:
	.cfi_def_cfa_offset 16
Ltmp73:
	.cfi_offset %rbp, -16
	movq	%rsp, %rbp
Ltmp74:
	.cfi_def_cfa_register %rbp
	subq	$16, %rsp
	movq	%rdi, -8(%rbp)
	movq	-8(%rbp), %rdi
	callq	__ZNSt3__14pairIKiNS_12basic_stringIcNS_11char_traitsIcEENS_9allocatorIcEEEEED2Ev
	addq	$16, %rsp
	popq	%rbp
	retq
	.cfi_endproc

	.globl	__ZNSt3__14pairIiNS_12basic_stringIcNS_11char_traitsIcEENS_9allocatorIcEEEEED1Ev
	.weak_def_can_be_hidden	__ZNSt3__14pairIiNS_12basic_stringIcNS_11char_traitsIcEENS_9allocatorIcEEEEED1Ev
	.align	4, 0x90
__ZNSt3__14pairIiNS_12basic_stringIcNS_11char_traitsIcEENS_9allocatorIcEEEEED1Ev: ## @_ZNSt3__14pairIiNS_12basic_stringIcNS_11char_traitsIcEENS_9allocatorIcEEEEED1Ev
	.cfi_startproc
## BB#0:
	pushq	%rbp
Ltmp75:
	.cfi_def_cfa_offset 16
Ltmp76:
	.cfi_offset %rbp, -16
	movq	%rsp, %rbp
Ltmp77:
	.cfi_def_cfa_register %rbp
	subq	$16, %rsp
	movq	%rdi, -8(%rbp)
	movq	-8(%rbp), %rdi
	callq	__ZNSt3__14pairIiNS_12basic_stringIcNS_11char_traitsIcEENS_9allocatorIcEEEEED2Ev
	addq	$16, %rsp
	popq	%rbp
	retq
	.cfi_endproc

	.globl	__Z19DisplayUnorderedMapIiNSt3__112basic_stringIcNS0_11char_traitsIcEENS0_9allocatorIcEEEEEvRNS0_13unordered_mapIT_T0_NS0_4hashIS8_EENS0_8equal_toIS8_EENS4_INS0_4pairIKS8_S9_EEEEEE
	.weak_def_can_be_hidden	__Z19DisplayUnorderedMapIiNSt3__112basic_stringIcNS0_11char_traitsIcEENS0_9allocatorIcEEEEEvRNS0_13unordered_mapIT_T0_NS0_4hashIS8_EENS0_8equal_toIS8_EENS4_INS0_4pairIKS8_S9_EEEEEE
	.align	4, 0x90
__Z19DisplayUnorderedMapIiNSt3__112basic_stringIcNS0_11char_traitsIcEENS0_9allocatorIcEEEEEvRNS0_13unordered_mapIT_T0_NS0_4hashIS8_EENS0_8equal_toIS8_EENS4_INS0_4pairIKS8_S9_EEEEEE: ## @_Z19DisplayUnorderedMapIiNSt3__112basic_stringIcNS0_11char_traitsIcEENS0_9allocatorIcEEEEEvRNS0_13unordered_mapIT_T0_NS0_4hashIS8_EENS0_8equal_toIS8_EENS4_INS0_4pairIKS8_S9_EEEEEE
	.cfi_startproc
## BB#0:
	pushq	%rbp
Ltmp78:
	.cfi_def_cfa_offset 16
Ltmp79:
	.cfi_offset %rbp, -16
	movq	%rsp, %rbp
Ltmp80:
	.cfi_def_cfa_register %rbp
	subq	$880, %rsp              ## imm = 0x370
	movq	__ZNSt3__14coutE@GOTPCREL(%rip), %rax
	leaq	L_.str14(%rip), %rsi
	movq	%rdi, -768(%rbp)
	movq	%rax, %rdi
	callq	__ZNSt3__1lsINS_11char_traitsIcEEEERNS_13basic_ostreamIcT_EES6_PKc
	movq	-768(%rbp), %rsi
	movq	%rsi, -760(%rbp)
	movq	-760(%rbp), %rsi
	movq	%rsi, -752(%rbp)
	movq	-752(%rbp), %rsi
	addq	$24, %rsi
	movq	%rsi, -744(%rbp)
	movq	-744(%rbp), %rsi
	movq	%rsi, -736(%rbp)
	movq	-736(%rbp), %rsi
	movq	(%rsi), %rsi
	movq	%rax, %rdi
	callq	__ZNSt3__113basic_ostreamIcNS_11char_traitsIcEEElsEm
	leaq	__ZNSt3__14endlIcNS_11char_traitsIcEEEERNS_13basic_ostreamIT_T0_EES7_(%rip), %rsi
	movq	%rax, -688(%rbp)
	movq	%rsi, -696(%rbp)
	movq	-688(%rbp), %rdi
	callq	*-696(%rbp)
	movq	__ZNSt3__14coutE@GOTPCREL(%rip), %rdi
	leaq	L_.str15(%rip), %rsi
	movq	%rax, -792(%rbp)        ## 8-byte Spill
	callq	__ZNSt3__1lsINS_11char_traitsIcEEEERNS_13basic_ostreamIcT_EES6_PKc
	movabsq	$2305843009213693951, %rsi ## imm = 0x1FFFFFFFFFFFFFFF
	movq	-768(%rbp), %rdi
	movq	%rdi, -680(%rbp)
	movq	-680(%rbp), %rdi
	movq	%rdi, -672(%rbp)
	movq	-672(%rbp), %rdi
	movq	%rdi, -664(%rbp)
	movq	-664(%rbp), %rdi
	movq	%rdi, -656(%rbp)
	movq	-656(%rbp), %rdi
	movq	%rdi, -648(%rbp)
	movq	-648(%rbp), %rdi
	addq	$8, %rdi
	movq	%rdi, -592(%rbp)
	movq	-592(%rbp), %rdi
	movq	%rdi, -584(%rbp)
	movq	-584(%rbp), %rdi
	movq	%rdi, -576(%rbp)
	movq	-576(%rbp), %rdi
	movq	%rdi, -624(%rbp)
	movq	-624(%rbp), %rdi
	movq	%rdi, -616(%rbp)
	movq	-616(%rbp), %rdi
	movq	%rdi, -600(%rbp)
	movq	%rax, %rdi
	callq	__ZNSt3__113basic_ostreamIcNS_11char_traitsIcEEElsEm
	leaq	__ZNSt3__14endlIcNS_11char_traitsIcEEEERNS_13basic_ostreamIT_T0_EES7_(%rip), %rsi
	movq	%rax, -560(%rbp)
	movq	%rsi, -568(%rbp)
	movq	-560(%rbp), %rdi
	callq	*-568(%rbp)
	movq	__ZNSt3__14coutE@GOTPCREL(%rip), %rdi
	leaq	L_.str16(%rip), %rsi
	movq	%rax, -800(%rbp)        ## 8-byte Spill
	callq	__ZNSt3__1lsINS_11char_traitsIcEEEERNS_13basic_ostreamIcT_EES6_PKc
	movq	-768(%rbp), %rsi
	movq	%rsi, -552(%rbp)
	movq	-552(%rbp), %rsi
	movq	%rsi, -536(%rbp)
	movq	-536(%rbp), %rsi
	movq	%rsi, -528(%rbp)
	movq	-528(%rbp), %rdi
	movq	%rdi, -520(%rbp)
	movq	-520(%rbp), %rdi
	movq	%rdi, -512(%rbp)
	movq	-512(%rbp), %rdi
	movq	%rdi, -504(%rbp)
	movq	-504(%rbp), %rdi
	addq	$8, %rdi
	movq	%rdi, -496(%rbp)
	movq	-496(%rbp), %rdi
	movq	%rdi, -488(%rbp)
	movq	-488(%rbp), %rdi
	movq	%rdi, -480(%rbp)
	movq	-480(%rbp), %rdi
	movq	(%rdi), %rdi
	movq	%rdi, -544(%rbp)
	cmpq	$0, -544(%rbp)
	movq	%rax, -808(%rbp)        ## 8-byte Spill
	movq	%rsi, -816(%rbp)        ## 8-byte Spill
	je	LBB3_2
## BB#1:
	movq	-816(%rbp), %rax        ## 8-byte Reload
	movq	%rax, -472(%rbp)
	addq	$24, %rax
	movq	%rax, -464(%rbp)
	movq	%rax, -456(%rbp)
	movq	-816(%rbp), %rax        ## 8-byte Reload
	movq	24(%rax), %rcx
	movq	%rcx, %rdx
	shrq	%rdx
	movq	%rcx, %rsi
	andq	$1, %rsi
	orq	%rdx, %rsi
	cvtsi2ssq	%rsi, %xmm0
	addss	%xmm0, %xmm0
	cvtsi2ssq	%rcx, %xmm1
	testq	%rcx, %rcx
	movss	%xmm1, -820(%rbp)       ## 4-byte Spill
	movss	%xmm0, -824(%rbp)       ## 4-byte Spill
	js	LBB3_9
## BB#8:
	movss	-820(%rbp), %xmm0       ## 4-byte Reload
                                        ## xmm0 = mem[0],zero,zero,zero
	movss	%xmm0, -824(%rbp)       ## 4-byte Spill
LBB3_9:
	movss	-824(%rbp), %xmm0       ## 4-byte Reload
                                        ## xmm0 = mem[0],zero,zero,zero
	movq	-544(%rbp), %rax
	movq	%rax, %rcx
	shrq	%rcx
	movq	%rax, %rdx
	andq	$1, %rdx
	orq	%rcx, %rdx
	cvtsi2ssq	%rdx, %xmm1
	addss	%xmm1, %xmm1
	cvtsi2ssq	%rax, %xmm2
	testq	%rax, %rax
	movss	%xmm0, -828(%rbp)       ## 4-byte Spill
	movss	%xmm2, -832(%rbp)       ## 4-byte Spill
	movss	%xmm1, -836(%rbp)       ## 4-byte Spill
	js	LBB3_11
## BB#10:
	movss	-832(%rbp), %xmm0       ## 4-byte Reload
                                        ## xmm0 = mem[0],zero,zero,zero
	movss	%xmm0, -836(%rbp)       ## 4-byte Spill
LBB3_11:
	movss	-836(%rbp), %xmm0       ## 4-byte Reload
                                        ## xmm0 = mem[0],zero,zero,zero
	movss	-828(%rbp), %xmm1       ## 4-byte Reload
                                        ## xmm1 = mem[0],zero,zero,zero
	divss	%xmm0, %xmm1
	movss	%xmm1, -840(%rbp)       ## 4-byte Spill
	jmp	LBB3_3
LBB3_2:
	xorps	%xmm0, %xmm0
	movss	%xmm0, -840(%rbp)       ## 4-byte Spill
	jmp	LBB3_3
LBB3_3:                                 ## %_ZNKSt3__113unordered_mapIiNS_12basic_stringIcNS_11char_traitsIcEENS_9allocatorIcEEEENS_4hashIiEENS_8equal_toIiEENS4_INS_4pairIKiS6_EEEEE11load_factorEv.exit
	movss	-840(%rbp), %xmm0       ## 4-byte Reload
                                        ## xmm0 = mem[0],zero,zero,zero
	movq	-808(%rbp), %rdi        ## 8-byte Reload
	callq	__ZNSt3__113basic_ostreamIcNS_11char_traitsIcEEElsEf
	leaq	__ZNSt3__14endlIcNS_11char_traitsIcEEEERNS_13basic_ostreamIT_T0_EES7_(%rip), %rdi
	movq	%rax, -392(%rbp)
	movq	%rdi, -400(%rbp)
	movq	-392(%rbp), %rdi
	callq	*-400(%rbp)
	movq	__ZNSt3__14coutE@GOTPCREL(%rip), %rdi
	leaq	L_.str17(%rip), %rsi
	movq	%rax, -848(%rbp)        ## 8-byte Spill
	callq	__ZNSt3__1lsINS_11char_traitsIcEEEERNS_13basic_ostreamIcT_EES6_PKc
	movq	-768(%rbp), %rsi
	movq	%rsi, -384(%rbp)
	movq	-384(%rbp), %rsi
	movq	%rsi, -376(%rbp)
	movq	-376(%rbp), %rsi
	addq	$32, %rsi
	movq	%rsi, -368(%rbp)
	movq	-368(%rbp), %rsi
	movq	%rsi, -360(%rbp)
	movq	-360(%rbp), %rsi
	movss	(%rsi), %xmm0           ## xmm0 = mem[0],zero,zero,zero
	movq	%rax, %rdi
	callq	__ZNSt3__113basic_ostreamIcNS_11char_traitsIcEEElsEf
	leaq	__ZNSt3__14endlIcNS_11char_traitsIcEEEERNS_13basic_ostreamIT_T0_EES7_(%rip), %rsi
	movq	%rax, -8(%rbp)
	movq	%rsi, -16(%rbp)
	movq	-8(%rbp), %rdi
	callq	*-16(%rbp)
	movq	__ZNSt3__14coutE@GOTPCREL(%rip), %rdi
	leaq	L_.str18(%rip), %rsi
	movq	%rax, -856(%rbp)        ## 8-byte Spill
	callq	__ZNSt3__1lsINS_11char_traitsIcEEEERNS_13basic_ostreamIcT_EES6_PKc
	leaq	__ZNSt3__14endlIcNS_11char_traitsIcEEEERNS_13basic_ostreamIT_T0_EES7_(%rip), %rsi
	movq	%rax, -24(%rbp)
	movq	%rsi, -32(%rbp)
	movq	-24(%rbp), %rdi
	callq	*-32(%rbp)
	leaq	-136(%rbp), %rsi
	leaq	-120(%rbp), %rdi
	movq	-768(%rbp), %rcx
	movq	%rcx, -144(%rbp)
	movq	-144(%rbp), %rcx
	movq	%rcx, -128(%rbp)
	movq	-128(%rbp), %rcx
	addq	$16, %rcx
	movq	%rcx, -112(%rbp)
	movq	-112(%rbp), %rcx
	movq	%rcx, -104(%rbp)
	movq	-104(%rbp), %rcx
	movq	(%rcx), %rcx
	movq	%rdi, -88(%rbp)
	movq	%rcx, -96(%rbp)
	movq	-88(%rbp), %rcx
	movq	-96(%rbp), %rdi
	movq	%rcx, -72(%rbp)
	movq	%rdi, -80(%rbp)
	movq	-72(%rbp), %rcx
	movq	-80(%rbp), %rdi
	movq	%rdi, (%rcx)
	movq	-120(%rbp), %rcx
	movq	%rcx, -152(%rbp)
	movq	-152(%rbp), %rcx
	movq	%rcx, -56(%rbp)
	movq	%rsi, -64(%rbp)
	movq	-64(%rbp), %rcx
	movq	-56(%rbp), %rsi
	movq	%rsi, -40(%rbp)
	movq	%rcx, -48(%rbp)
	movq	-48(%rbp), %rcx
	movq	-40(%rbp), %rsi
	movq	%rsi, (%rcx)
	movq	-136(%rbp), %rcx
	movq	%rcx, -776(%rbp)
	movq	%rax, -864(%rbp)        ## 8-byte Spill
LBB3_4:                                 ## =>This Inner Loop Header: Depth=1
	leaq	-784(%rbp), %rax
	leaq	-776(%rbp), %rcx
	leaq	-240(%rbp), %rdx
	leaq	-224(%rbp), %rsi
	movq	-768(%rbp), %rdi
	movq	%rdi, -248(%rbp)
	movq	-248(%rbp), %rdi
	movq	%rdi, -232(%rbp)
	movq	%rsi, -208(%rbp)
	movq	$0, -216(%rbp)
	movq	-208(%rbp), %rsi
	movq	-216(%rbp), %rdi
	movq	%rsi, -192(%rbp)
	movq	%rdi, -200(%rbp)
	movq	-192(%rbp), %rsi
	movq	-200(%rbp), %rdi
	movq	%rdi, (%rsi)
	movq	-224(%rbp), %rsi
	movq	%rsi, -256(%rbp)
	movq	-256(%rbp), %rsi
	movq	%rsi, -176(%rbp)
	movq	%rdx, -184(%rbp)
	movq	-184(%rbp), %rdx
	movq	-176(%rbp), %rsi
	movq	%rsi, -160(%rbp)
	movq	%rdx, -168(%rbp)
	movq	-168(%rbp), %rdx
	movq	-160(%rbp), %rsi
	movq	%rsi, (%rdx)
	movq	-240(%rbp), %rdx
	movq	%rdx, -784(%rbp)
	movq	%rcx, -296(%rbp)
	movq	%rax, -304(%rbp)
	movq	-296(%rbp), %rax
	movq	-304(%rbp), %rcx
	movq	%rax, -280(%rbp)
	movq	%rcx, -288(%rbp)
	movq	-280(%rbp), %rax
	movq	-288(%rbp), %rcx
	movq	%rax, -264(%rbp)
	movq	%rcx, -272(%rbp)
	movq	-264(%rbp), %rax
	movq	(%rax), %rax
	movq	-272(%rbp), %rcx
	cmpq	(%rcx), %rax
	sete	%r8b
	xorb	$1, %r8b
	testb	$1, %r8b
	jne	LBB3_5
	jmp	LBB3_7
LBB3_5:                                 ##   in Loop: Header=BB3_4 Depth=1
	movq	__ZNSt3__14coutE@GOTPCREL(%rip), %rdi
	leaq	-776(%rbp), %rax
	movq	%rax, -352(%rbp)
	movq	-352(%rbp), %rax
	movq	%rax, -344(%rbp)
	movq	-344(%rbp), %rax
	movq	(%rax), %rax
	addq	$16, %rax
	movq	%rax, -336(%rbp)
	movq	-336(%rbp), %rax
	movq	%rax, -328(%rbp)
	movq	-328(%rbp), %rax
	movq	%rax, -320(%rbp)
	movq	-320(%rbp), %rax
	movq	%rax, -312(%rbp)
	movq	-312(%rbp), %rax
	movl	(%rax), %esi
	callq	__ZNSt3__113basic_ostreamIcNS_11char_traitsIcEEElsEi
	leaq	L_.str19(%rip), %rsi
	movq	%rax, %rdi
	callq	__ZNSt3__1lsINS_11char_traitsIcEEEERNS_13basic_ostreamIcT_EES6_PKc
	leaq	-776(%rbp), %rsi
	movq	%rsi, -448(%rbp)
	movq	-448(%rbp), %rsi
	movq	%rsi, -440(%rbp)
	movq	-440(%rbp), %rsi
	movq	(%rsi), %rsi
	addq	$16, %rsi
	movq	%rsi, -432(%rbp)
	movq	-432(%rbp), %rsi
	movq	%rsi, -424(%rbp)
	movq	-424(%rbp), %rsi
	movq	%rsi, -416(%rbp)
	movq	-416(%rbp), %rsi
	movq	%rsi, -408(%rbp)
	movq	-408(%rbp), %rsi
	addq	$8, %rsi
	movq	%rax, %rdi
	callq	__ZNSt3__1lsIcNS_11char_traitsIcEENS_9allocatorIcEEEERNS_13basic_ostreamIT_T0_EES9_RKNS_12basic_stringIS6_S7_T1_EE
	leaq	__ZNSt3__14endlIcNS_11char_traitsIcEEEERNS_13basic_ostreamIT_T0_EES7_(%rip), %rsi
	movq	%rax, -704(%rbp)
	movq	%rsi, -712(%rbp)
	movq	-704(%rbp), %rdi
	callq	*-712(%rbp)
	movq	%rax, -872(%rbp)        ## 8-byte Spill
## BB#6:                                ##   in Loop: Header=BB3_4 Depth=1
	leaq	-776(%rbp), %rax
	movq	%rax, -728(%rbp)
	movq	-728(%rbp), %rax
	movq	%rax, -720(%rbp)
	movq	-720(%rbp), %rax
	movq	(%rax), %rcx
	movq	(%rcx), %rcx
	movq	%rcx, (%rax)
	jmp	LBB3_4
LBB3_7:
	addq	$880, %rsp              ## imm = 0x370
	popq	%rbp
	retq
	.cfi_endproc

	.globl	__ZNSt3__1lsINS_11char_traitsIcEEEERNS_13basic_ostreamIcT_EES6_PKc
	.weak_def_can_be_hidden	__ZNSt3__1lsINS_11char_traitsIcEEEERNS_13basic_ostreamIcT_EES6_PKc
	.align	4, 0x90
__ZNSt3__1lsINS_11char_traitsIcEEEERNS_13basic_ostreamIcT_EES6_PKc: ## @_ZNSt3__1lsINS_11char_traitsIcEEEERNS_13basic_ostreamIcT_EES6_PKc
	.cfi_startproc
## BB#0:
	pushq	%rbp
Ltmp81:
	.cfi_def_cfa_offset 16
Ltmp82:
	.cfi_offset %rbp, -16
	movq	%rsp, %rbp
Ltmp83:
	.cfi_def_cfa_register %rbp
	subq	$32, %rsp
	movq	%rdi, -8(%rbp)
	movq	%rsi, -16(%rbp)
	movq	-8(%rbp), %rdi
	movq	-16(%rbp), %rsi
	movq	-16(%rbp), %rax
	movq	%rdi, -24(%rbp)         ## 8-byte Spill
	movq	%rax, %rdi
	movq	%rsi, -32(%rbp)         ## 8-byte Spill
	callq	__ZNSt3__111char_traitsIcE6lengthEPKc
	movq	-24(%rbp), %rdi         ## 8-byte Reload
	movq	-32(%rbp), %rsi         ## 8-byte Reload
	movq	%rax, %rdx
	callq	__ZNSt3__124__put_character_sequenceIcNS_11char_traitsIcEEEERNS_13basic_ostreamIT_T0_EES7_PKS4_m
	addq	$32, %rsp
	popq	%rbp
	retq
	.cfi_endproc

	.private_extern	__ZNSt3__14endlIcNS_11char_traitsIcEEEERNS_13basic_ostreamIT_T0_EES7_
	.globl	__ZNSt3__14endlIcNS_11char_traitsIcEEEERNS_13basic_ostreamIT_T0_EES7_
	.weak_definition	__ZNSt3__14endlIcNS_11char_traitsIcEEEERNS_13basic_ostreamIT_T0_EES7_
	.align	4, 0x90
__ZNSt3__14endlIcNS_11char_traitsIcEEEERNS_13basic_ostreamIT_T0_EES7_: ## @_ZNSt3__14endlIcNS_11char_traitsIcEEEERNS_13basic_ostreamIT_T0_EES7_
Lfunc_begin5:
	.cfi_startproc
	.cfi_personality 155, ___gxx_personality_v0
	.cfi_lsda 16, Lexception5
## BB#0:
	pushq	%rbp
Ltmp89:
	.cfi_def_cfa_offset 16
Ltmp90:
	.cfi_offset %rbp, -16
	movq	%rsp, %rbp
Ltmp91:
	.cfi_def_cfa_register %rbp
	subq	$144, %rsp
	movq	%rdi, -72(%rbp)
	movq	%rdi, %rax
	movq	(%rdi), %rcx
	movq	-24(%rcx), %rcx
	addq	%rcx, %rdi
	movq	%rdi, -32(%rbp)
	movb	$10, -33(%rbp)
	movq	-32(%rbp), %rsi
	leaq	-48(%rbp), %rcx
	movq	%rcx, %rdi
	movq	%rax, -80(%rbp)         ## 8-byte Spill
	movq	%rcx, -88(%rbp)         ## 8-byte Spill
	callq	__ZNKSt3__18ios_base6getlocEv
	movq	-88(%rbp), %rax         ## 8-byte Reload
	movq	%rax, -24(%rbp)
Ltmp84:
	movq	__ZNSt3__15ctypeIcE2idE@GOTPCREL(%rip), %rsi
	movq	%rax, %rdi
	callq	__ZNKSt3__16locale9use_facetERNS0_2idE
Ltmp85:
	movq	%rax, -96(%rbp)         ## 8-byte Spill
	jmp	LBB5_1
LBB5_1:                                 ## %_ZNSt3__19use_facetINS_5ctypeIcEEEERKT_RKNS_6localeE.exit.i
	movb	-33(%rbp), %al
	movq	-96(%rbp), %rcx         ## 8-byte Reload
	movq	%rcx, -8(%rbp)
	movb	%al, -9(%rbp)
	movq	-8(%rbp), %rdx
	movq	(%rdx), %rsi
	movq	56(%rsi), %rsi
	movsbl	-9(%rbp), %edi
Ltmp86:
	movl	%edi, -100(%rbp)        ## 4-byte Spill
	movq	%rdx, %rdi
	movl	-100(%rbp), %r8d        ## 4-byte Reload
	movq	%rsi, -112(%rbp)        ## 8-byte Spill
	movl	%r8d, %esi
	movq	-112(%rbp), %rdx        ## 8-byte Reload
	callq	*%rdx
Ltmp87:
	movb	%al, -113(%rbp)         ## 1-byte Spill
	jmp	LBB5_3
LBB5_2:
Ltmp88:
	leaq	-48(%rbp), %rdi
	movl	%edx, %ecx
	movq	%rax, -56(%rbp)
	movl	%ecx, -60(%rbp)
	callq	__ZNSt3__16localeD1Ev
	movq	-56(%rbp), %rdi
	callq	__Unwind_Resume
LBB5_3:                                 ## %_ZNKSt3__19basic_iosIcNS_11char_traitsIcEEE5widenEc.exit
	leaq	-48(%rbp), %rdi
	callq	__ZNSt3__16localeD1Ev
	movq	-80(%rbp), %rdi         ## 8-byte Reload
	movb	-113(%rbp), %al         ## 1-byte Reload
	movsbl	%al, %esi
	callq	__ZNSt3__113basic_ostreamIcNS_11char_traitsIcEEE3putEc
	movq	-72(%rbp), %rdi
	movq	%rax, -128(%rbp)        ## 8-byte Spill
	callq	__ZNSt3__113basic_ostreamIcNS_11char_traitsIcEEE5flushEv
	movq	-72(%rbp), %rdi
	movq	%rax, -136(%rbp)        ## 8-byte Spill
	movq	%rdi, %rax
	addq	$144, %rsp
	popq	%rbp
	retq
Lfunc_end5:
	.cfi_endproc
	.section	__TEXT,__gcc_except_tab
	.align	2
GCC_except_table5:
Lexception5:
	.byte	255                     ## @LPStart Encoding = omit
	.byte	155                     ## @TType Encoding = indirect pcrel sdata4
	.byte	41                      ## @TType base offset
	.byte	3                       ## Call site Encoding = udata4
	.byte	39                      ## Call site table length
Lset29 = Lfunc_begin5-Lfunc_begin5      ## >> Call Site 1 <<
	.long	Lset29
Lset30 = Ltmp84-Lfunc_begin5            ##   Call between Lfunc_begin5 and Ltmp84
	.long	Lset30
	.long	0                       ##     has no landing pad
	.byte	0                       ##   On action: cleanup
Lset31 = Ltmp84-Lfunc_begin5            ## >> Call Site 2 <<
	.long	Lset31
Lset32 = Ltmp87-Ltmp84                  ##   Call between Ltmp84 and Ltmp87
	.long	Lset32
Lset33 = Ltmp88-Lfunc_begin5            ##     jumps to Ltmp88
	.long	Lset33
	.byte	0                       ##   On action: cleanup
Lset34 = Ltmp87-Lfunc_begin5            ## >> Call Site 3 <<
	.long	Lset34
Lset35 = Lfunc_end5-Ltmp87              ##   Call between Ltmp87 and Lfunc_end5
	.long	Lset35
	.long	0                       ##     has no landing pad
	.byte	0                       ##   On action: cleanup
	.align	2

	.section	__TEXT,__textcoal_nt,coalesced,pure_instructions
	.globl	__ZNSt3__1lsIcNS_11char_traitsIcEENS_9allocatorIcEEEERNS_13basic_ostreamIT_T0_EES9_RKNS_12basic_stringIS6_S7_T1_EE
	.weak_def_can_be_hidden	__ZNSt3__1lsIcNS_11char_traitsIcEENS_9allocatorIcEEEERNS_13basic_ostreamIT_T0_EES9_RKNS_12basic_stringIS6_S7_T1_EE
	.align	4, 0x90
__ZNSt3__1lsIcNS_11char_traitsIcEENS_9allocatorIcEEEERNS_13basic_ostreamIT_T0_EES9_RKNS_12basic_stringIS6_S7_T1_EE: ## @_ZNSt3__1lsIcNS_11char_traitsIcEENS_9allocatorIcEEEERNS_13basic_ostreamIT_T0_EES9_RKNS_12basic_stringIS6_S7_T1_EE
	.cfi_startproc
## BB#0:
	pushq	%rbp
Ltmp92:
	.cfi_def_cfa_offset 16
Ltmp93:
	.cfi_offset %rbp, -16
	movq	%rsp, %rbp
Ltmp94:
	.cfi_def_cfa_register %rbp
	subq	$256, %rsp              ## imm = 0x100
	movq	%rdi, -200(%rbp)
	movq	%rsi, -208(%rbp)
	movq	-200(%rbp), %rdi
	movq	-208(%rbp), %rsi
	movq	%rsi, -192(%rbp)
	movq	-192(%rbp), %rsi
	movq	%rsi, -184(%rbp)
	movq	-184(%rbp), %rsi
	movq	%rsi, -176(%rbp)
	movq	-176(%rbp), %rax
	movq	%rax, -168(%rbp)
	movq	-168(%rbp), %rax
	movq	%rax, -160(%rbp)
	movq	-160(%rbp), %rax
	movzbl	(%rax), %ecx
	andl	$1, %ecx
	cmpl	$0, %ecx
	movq	%rdi, -216(%rbp)        ## 8-byte Spill
	movq	%rsi, -224(%rbp)        ## 8-byte Spill
	je	LBB6_2
## BB#1:
	movq	-224(%rbp), %rax        ## 8-byte Reload
	movq	%rax, -112(%rbp)
	movq	-112(%rbp), %rcx
	movq	%rcx, -104(%rbp)
	movq	-104(%rbp), %rcx
	movq	%rcx, -96(%rbp)
	movq	-96(%rbp), %rcx
	movq	16(%rcx), %rcx
	movq	%rcx, -232(%rbp)        ## 8-byte Spill
	jmp	LBB6_3
LBB6_2:
	movq	-224(%rbp), %rax        ## 8-byte Reload
	movq	%rax, -152(%rbp)
	movq	-152(%rbp), %rcx
	movq	%rcx, -144(%rbp)
	movq	-144(%rbp), %rcx
	movq	%rcx, -136(%rbp)
	movq	-136(%rbp), %rcx
	addq	$1, %rcx
	movq	%rcx, -128(%rbp)
	movq	-128(%rbp), %rcx
	movq	%rcx, -120(%rbp)
	movq	-120(%rbp), %rcx
	movq	%rcx, -232(%rbp)        ## 8-byte Spill
LBB6_3:                                 ## %_ZNKSt3__112basic_stringIcNS_11char_traitsIcEENS_9allocatorIcEEE4dataEv.exit
	movq	-232(%rbp), %rax        ## 8-byte Reload
	movq	%rax, -88(%rbp)
	movq	-88(%rbp), %rsi
	movq	-208(%rbp), %rax
	movq	%rax, -80(%rbp)
	movq	-80(%rbp), %rax
	movq	%rax, -72(%rbp)
	movq	-72(%rbp), %rcx
	movq	%rcx, -64(%rbp)
	movq	-64(%rbp), %rcx
	movq	%rcx, -56(%rbp)
	movq	-56(%rbp), %rcx
	movzbl	(%rcx), %edx
	andl	$1, %edx
	cmpl	$0, %edx
	movq	%rsi, -240(%rbp)        ## 8-byte Spill
	movq	%rax, -248(%rbp)        ## 8-byte Spill
	je	LBB6_5
## BB#4:
	movq	-248(%rbp), %rax        ## 8-byte Reload
	movq	%rax, -24(%rbp)
	movq	-24(%rbp), %rcx
	movq	%rcx, -16(%rbp)
	movq	-16(%rbp), %rcx
	movq	%rcx, -8(%rbp)
	movq	-8(%rbp), %rcx
	movq	8(%rcx), %rcx
	movq	%rcx, -256(%rbp)        ## 8-byte Spill
	jmp	LBB6_6
LBB6_5:
	movq	-248(%rbp), %rax        ## 8-byte Reload
	movq	%rax, -48(%rbp)
	movq	-48(%rbp), %rcx
	movq	%rcx, -40(%rbp)
	movq	-40(%rbp), %rcx
	movq	%rcx, -32(%rbp)
	movq	-32(%rbp), %rcx
	movzbl	(%rcx), %edx
	sarl	$1, %edx
	movslq	%edx, %rcx
	movq	%rcx, -256(%rbp)        ## 8-byte Spill
LBB6_6:                                 ## %_ZNKSt3__112basic_stringIcNS_11char_traitsIcEENS_9allocatorIcEEE4sizeEv.exit
	movq	-256(%rbp), %rax        ## 8-byte Reload
	movq	-216(%rbp), %rdi        ## 8-byte Reload
	movq	-240(%rbp), %rsi        ## 8-byte Reload
	movq	%rax, %rdx
	callq	__ZNSt3__124__put_character_sequenceIcNS_11char_traitsIcEEEERNS_13basic_ostreamIT_T0_EES7_PKS4_m
	addq	$256, %rsp              ## imm = 0x100
	popq	%rbp
	retq
	.cfi_endproc

	.globl	__ZNSt3__113unordered_mapIiNS_12basic_stringIcNS_11char_traitsIcEENS_9allocatorIcEEEENS_4hashIiEENS_8equal_toIiEENS4_INS_4pairIKiS6_EEEEED1Ev
	.weak_def_can_be_hidden	__ZNSt3__113unordered_mapIiNS_12basic_stringIcNS_11char_traitsIcEENS_9allocatorIcEEEENS_4hashIiEENS_8equal_toIiEENS4_INS_4pairIKiS6_EEEEED1Ev
	.align	4, 0x90
__ZNSt3__113unordered_mapIiNS_12basic_stringIcNS_11char_traitsIcEENS_9allocatorIcEEEENS_4hashIiEENS_8equal_toIiEENS4_INS_4pairIKiS6_EEEEED1Ev: ## @_ZNSt3__113unordered_mapIiNS_12basic_stringIcNS_11char_traitsIcEENS_9allocatorIcEEEENS_4hashIiEENS_8equal_toIiEENS4_INS_4pairIKiS6_EEEEED1Ev
	.cfi_startproc
## BB#0:
	pushq	%rbp
Ltmp95:
	.cfi_def_cfa_offset 16
Ltmp96:
	.cfi_offset %rbp, -16
	movq	%rsp, %rbp
Ltmp97:
	.cfi_def_cfa_register %rbp
	subq	$16, %rsp
	movq	%rdi, -8(%rbp)
	movq	-8(%rbp), %rdi
	callq	__ZNSt3__113unordered_mapIiNS_12basic_stringIcNS_11char_traitsIcEENS_9allocatorIcEEEENS_4hashIiEENS_8equal_toIiEENS4_INS_4pairIKiS6_EEEEED2Ev
	addq	$16, %rsp
	popq	%rbp
	retq
	.cfi_endproc

	.globl	__ZNSt3__14pairIKiNS_12basic_stringIcNS_11char_traitsIcEENS_9allocatorIcEEEEED2Ev
	.weak_def_can_be_hidden	__ZNSt3__14pairIKiNS_12basic_stringIcNS_11char_traitsIcEENS_9allocatorIcEEEEED2Ev
	.align	4, 0x90
__ZNSt3__14pairIKiNS_12basic_stringIcNS_11char_traitsIcEENS_9allocatorIcEEEEED2Ev: ## @_ZNSt3__14pairIKiNS_12basic_stringIcNS_11char_traitsIcEENS_9allocatorIcEEEEED2Ev
	.cfi_startproc
## BB#0:
	pushq	%rbp
Ltmp98:
	.cfi_def_cfa_offset 16
Ltmp99:
	.cfi_offset %rbp, -16
	movq	%rsp, %rbp
Ltmp100:
	.cfi_def_cfa_register %rbp
	subq	$16, %rsp
	movq	%rdi, -8(%rbp)
	movq	-8(%rbp), %rdi
	addq	$8, %rdi
	callq	__ZNSt3__112basic_stringIcNS_11char_traitsIcEENS_9allocatorIcEEED1Ev
	addq	$16, %rsp
	popq	%rbp
	retq
	.cfi_endproc

	.globl	__ZNSt3__14pairIiNS_12basic_stringIcNS_11char_traitsIcEENS_9allocatorIcEEEEED2Ev
	.weak_def_can_be_hidden	__ZNSt3__14pairIiNS_12basic_stringIcNS_11char_traitsIcEENS_9allocatorIcEEEEED2Ev
	.align	4, 0x90
__ZNSt3__14pairIiNS_12basic_stringIcNS_11char_traitsIcEENS_9allocatorIcEEEEED2Ev: ## @_ZNSt3__14pairIiNS_12basic_stringIcNS_11char_traitsIcEENS_9allocatorIcEEEEED2Ev
	.cfi_startproc
## BB#0:
	pushq	%rbp
Ltmp101:
	.cfi_def_cfa_offset 16
Ltmp102:
	.cfi_offset %rbp, -16
	movq	%rsp, %rbp
Ltmp103:
	.cfi_def_cfa_register %rbp
	subq	$16, %rsp
	movq	%rdi, -8(%rbp)
	movq	-8(%rbp), %rdi
	addq	$8, %rdi
	callq	__ZNSt3__112basic_stringIcNS_11char_traitsIcEENS_9allocatorIcEEED1Ev
	addq	$16, %rsp
	popq	%rbp
	retq
	.cfi_endproc

	.globl	__ZNSt3__113unordered_mapIiNS_12basic_stringIcNS_11char_traitsIcEENS_9allocatorIcEEEENS_4hashIiEENS_8equal_toIiEENS4_INS_4pairIKiS6_EEEEED2Ev
	.weak_def_can_be_hidden	__ZNSt3__113unordered_mapIiNS_12basic_stringIcNS_11char_traitsIcEENS_9allocatorIcEEEENS_4hashIiEENS_8equal_toIiEENS4_INS_4pairIKiS6_EEEEED2Ev
	.align	4, 0x90
__ZNSt3__113unordered_mapIiNS_12basic_stringIcNS_11char_traitsIcEENS_9allocatorIcEEEENS_4hashIiEENS_8equal_toIiEENS4_INS_4pairIKiS6_EEEEED2Ev: ## @_ZNSt3__113unordered_mapIiNS_12basic_stringIcNS_11char_traitsIcEENS_9allocatorIcEEEENS_4hashIiEENS_8equal_toIiEENS4_INS_4pairIKiS6_EEEEED2Ev
	.cfi_startproc
## BB#0:
	pushq	%rbp
Ltmp104:
	.cfi_def_cfa_offset 16
Ltmp105:
	.cfi_offset %rbp, -16
	movq	%rsp, %rbp
Ltmp106:
	.cfi_def_cfa_register %rbp
	subq	$16, %rsp
	movq	%rdi, -8(%rbp)
	movq	-8(%rbp), %rdi
	callq	__ZNSt3__112__hash_tableINS_17__hash_value_typeIiNS_12basic_stringIcNS_11char_traitsIcEENS_9allocatorIcEEEEEENS_22__unordered_map_hasherIiS8_NS_4hashIiEELb1EEENS_21__unordered_map_equalIiS8_NS_8equal_toIiEELb1EEENS5_IS8_EEED1Ev
	addq	$16, %rsp
	popq	%rbp
	retq
	.cfi_endproc

	.globl	__ZNSt3__112__hash_tableINS_17__hash_value_typeIiNS_12basic_stringIcNS_11char_traitsIcEENS_9allocatorIcEEEEEENS_22__unordered_map_hasherIiS8_NS_4hashIiEELb1EEENS_21__unordered_map_equalIiS8_NS_8equal_toIiEELb1EEENS5_IS8_EEED1Ev
	.weak_def_can_be_hidden	__ZNSt3__112__hash_tableINS_17__hash_value_typeIiNS_12basic_stringIcNS_11char_traitsIcEENS_9allocatorIcEEEEEENS_22__unordered_map_hasherIiS8_NS_4hashIiEELb1EEENS_21__unordered_map_equalIiS8_NS_8equal_toIiEELb1EEENS5_IS8_EEED1Ev
	.align	4, 0x90
__ZNSt3__112__hash_tableINS_17__hash_value_typeIiNS_12basic_stringIcNS_11char_traitsIcEENS_9allocatorIcEEEEEENS_22__unordered_map_hasherIiS8_NS_4hashIiEELb1EEENS_21__unordered_map_equalIiS8_NS_8equal_toIiEELb1EEENS5_IS8_EEED1Ev: ## @_ZNSt3__112__hash_tableINS_17__hash_value_typeIiNS_12basic_stringIcNS_11char_traitsIcEENS_9allocatorIcEEEEEENS_22__unordered_map_hasherIiS8_NS_4hashIiEELb1EEENS_21__unordered_map_equalIiS8_NS_8equal_toIiEELb1EEENS5_IS8_EEED1Ev
	.cfi_startproc
## BB#0:
	pushq	%rbp
Ltmp107:
	.cfi_def_cfa_offset 16
Ltmp108:
	.cfi_offset %rbp, -16
	movq	%rsp, %rbp
Ltmp109:
	.cfi_def_cfa_register %rbp
	subq	$16, %rsp
	movq	%rdi, -8(%rbp)
	movq	-8(%rbp), %rdi
	callq	__ZNSt3__112__hash_tableINS_17__hash_value_typeIiNS_12basic_stringIcNS_11char_traitsIcEENS_9allocatorIcEEEEEENS_22__unordered_map_hasherIiS8_NS_4hashIiEELb1EEENS_21__unordered_map_equalIiS8_NS_8equal_toIiEELb1EEENS5_IS8_EEED2Ev
	addq	$16, %rsp
	popq	%rbp
	retq
	.cfi_endproc

	.globl	__ZNSt3__112__hash_tableINS_17__hash_value_typeIiNS_12basic_stringIcNS_11char_traitsIcEENS_9allocatorIcEEEEEENS_22__unordered_map_hasherIiS8_NS_4hashIiEELb1EEENS_21__unordered_map_equalIiS8_NS_8equal_toIiEELb1EEENS5_IS8_EEED2Ev
	.weak_def_can_be_hidden	__ZNSt3__112__hash_tableINS_17__hash_value_typeIiNS_12basic_stringIcNS_11char_traitsIcEENS_9allocatorIcEEEEEENS_22__unordered_map_hasherIiS8_NS_4hashIiEELb1EEENS_21__unordered_map_equalIiS8_NS_8equal_toIiEELb1EEENS5_IS8_EEED2Ev
	.align	4, 0x90
__ZNSt3__112__hash_tableINS_17__hash_value_typeIiNS_12basic_stringIcNS_11char_traitsIcEENS_9allocatorIcEEEEEENS_22__unordered_map_hasherIiS8_NS_4hashIiEELb1EEENS_21__unordered_map_equalIiS8_NS_8equal_toIiEELb1EEENS5_IS8_EEED2Ev: ## @_ZNSt3__112__hash_tableINS_17__hash_value_typeIiNS_12basic_stringIcNS_11char_traitsIcEENS_9allocatorIcEEEEEENS_22__unordered_map_hasherIiS8_NS_4hashIiEELb1EEENS_21__unordered_map_equalIiS8_NS_8equal_toIiEELb1EEENS5_IS8_EEED2Ev
	.cfi_startproc
## BB#0:
	pushq	%rbp
Ltmp110:
	.cfi_def_cfa_offset 16
Ltmp111:
	.cfi_offset %rbp, -16
	movq	%rsp, %rbp
Ltmp112:
	.cfi_def_cfa_register %rbp
	subq	$240, %rsp
	movq	%rdi, -224(%rbp)
	movq	-224(%rbp), %rdi
	movq	%rdi, %rax
	addq	$16, %rax
	movq	%rax, -216(%rbp)
	movq	-216(%rbp), %rax
	movq	%rax, -208(%rbp)
	movq	-208(%rbp), %rax
	movq	(%rax), %rsi
	movq	%rdi, -232(%rbp)        ## 8-byte Spill
	callq	__ZNSt3__112__hash_tableINS_17__hash_value_typeIiNS_12basic_stringIcNS_11char_traitsIcEENS_9allocatorIcEEEEEENS_22__unordered_map_hasherIiS8_NS_4hashIiEELb1EEENS_21__unordered_map_equalIiS8_NS_8equal_toIiEELb1EEENS5_IS8_EEE12__deallocateEPNS_11__hash_nodeIS8_PvEE
	movq	-232(%rbp), %rax        ## 8-byte Reload
	movq	%rax, -200(%rbp)
	movq	-200(%rbp), %rsi
	movq	%rsi, -192(%rbp)
	movq	-192(%rbp), %rsi
	movq	%rsi, -176(%rbp)
	movq	-176(%rbp), %rsi
	movq	%rsi, -168(%rbp)
	movq	-168(%rbp), %rdi
	movq	%rdi, -160(%rbp)
	movq	-160(%rbp), %rdi
	movq	(%rdi), %rdi
	movq	%rdi, -184(%rbp)
	movq	%rsi, -32(%rbp)
	movq	-32(%rbp), %rdi
	movq	%rdi, -24(%rbp)
	movq	-24(%rbp), %rdi
	movq	$0, (%rdi)
	cmpq	$0, -184(%rbp)
	movq	%rsi, -240(%rbp)        ## 8-byte Spill
	je	LBB12_2
## BB#1:
	movq	-240(%rbp), %rax        ## 8-byte Reload
	movq	%rax, -16(%rbp)
	movq	-16(%rbp), %rcx
	movq	%rcx, -8(%rbp)
	movq	-8(%rbp), %rcx
	addq	$8, %rcx
	movq	-184(%rbp), %rdx
	movq	%rcx, -144(%rbp)
	movq	%rdx, -152(%rbp)
	movq	-144(%rbp), %rcx
	movq	%rcx, -136(%rbp)
	movq	-136(%rbp), %rdx
	movq	%rdx, -128(%rbp)
	movq	-128(%rbp), %rdx
	movq	%rdx, -120(%rbp)
	movq	-120(%rbp), %rdx
	movq	-152(%rbp), %rsi
	movq	%rcx, -56(%rbp)
	movq	-56(%rbp), %rcx
	movq	%rcx, -48(%rbp)
	movq	-48(%rbp), %rcx
	movq	%rcx, -40(%rbp)
	movq	-40(%rbp), %rcx
	movq	(%rcx), %rcx
	movq	%rdx, -96(%rbp)
	movq	%rsi, -104(%rbp)
	movq	%rcx, -112(%rbp)
	movq	-96(%rbp), %rcx
	movq	-104(%rbp), %rdx
	movq	-112(%rbp), %rsi
	movq	%rcx, -72(%rbp)
	movq	%rdx, -80(%rbp)
	movq	%rsi, -88(%rbp)
	movq	-80(%rbp), %rcx
	movq	%rcx, -64(%rbp)
	movq	-64(%rbp), %rdi
	callq	__ZdlPv
LBB12_2:                                ## %_ZNSt3__110unique_ptrIA_PNS_11__hash_nodeINS_17__hash_value_typeIiNS_12basic_stringIcNS_11char_traitsIcEENS_9allocatorIcEEEEEEPvEENS_25__bucket_list_deallocatorINS6_ISC_EEEEED1Ev.exit
	addq	$240, %rsp
	popq	%rbp
	retq
	.cfi_endproc

	.globl	__ZNSt3__112__hash_tableINS_17__hash_value_typeIiNS_12basic_stringIcNS_11char_traitsIcEENS_9allocatorIcEEEEEENS_22__unordered_map_hasherIiS8_NS_4hashIiEELb1EEENS_21__unordered_map_equalIiS8_NS_8equal_toIiEELb1EEENS5_IS8_EEE12__deallocateEPNS_11__hash_nodeIS8_PvEE
	.weak_def_can_be_hidden	__ZNSt3__112__hash_tableINS_17__hash_value_typeIiNS_12basic_stringIcNS_11char_traitsIcEENS_9allocatorIcEEEEEENS_22__unordered_map_hasherIiS8_NS_4hashIiEELb1EEENS_21__unordered_map_equalIiS8_NS_8equal_toIiEELb1EEENS5_IS8_EEE12__deallocateEPNS_11__hash_nodeIS8_PvEE
	.align	4, 0x90
__ZNSt3__112__hash_tableINS_17__hash_value_typeIiNS_12basic_stringIcNS_11char_traitsIcEENS_9allocatorIcEEEEEENS_22__unordered_map_hasherIiS8_NS_4hashIiEELb1EEENS_21__unordered_map_equalIiS8_NS_8equal_toIiEELb1EEENS5_IS8_EEE12__deallocateEPNS_11__hash_nodeIS8_PvEE: ## @_ZNSt3__112__hash_tableINS_17__hash_value_typeIiNS_12basic_stringIcNS_11char_traitsIcEENS_9allocatorIcEEEEEENS_22__unordered_map_hasherIiS8_NS_4hashIiEELb1EEENS_21__unordered_map_equalIiS8_NS_8equal_toIiEELb1EEENS5_IS8_EEE12__deallocateEPNS_11__hash_nodeIS8_PvEE
	.cfi_startproc
## BB#0:
	pushq	%rbp
Ltmp113:
	.cfi_def_cfa_offset 16
Ltmp114:
	.cfi_offset %rbp, -16
	movq	%rsp, %rbp
Ltmp115:
	.cfi_def_cfa_register %rbp
	subq	$192, %rsp
	movq	%rdi, -168(%rbp)
	movq	%rsi, -176(%rbp)
	movq	-168(%rbp), %rsi
	movq	%rsi, -160(%rbp)
	movq	-160(%rbp), %rsi
	addq	$16, %rsi
	movq	%rsi, -152(%rbp)
	movq	-152(%rbp), %rsi
	movq	%rsi, -144(%rbp)
	movq	-144(%rbp), %rsi
	movq	%rsi, -184(%rbp)
LBB13_1:                                ## =>This Inner Loop Header: Depth=1
	cmpq	$0, -176(%rbp)
	je	LBB13_4
## BB#2:                                ##   in Loop: Header=BB13_1 Depth=1
	movq	-176(%rbp), %rax
	movq	(%rax), %rax
	movq	%rax, -192(%rbp)
	movq	-184(%rbp), %rax
	movq	-176(%rbp), %rcx
	addq	$16, %rcx
	movq	%rcx, -136(%rbp)
	movq	-136(%rbp), %rcx
	movq	%rax, -48(%rbp)
	movq	%rcx, -56(%rbp)
	movq	-48(%rbp), %rax
	movq	-56(%rbp), %rcx
	movq	%rax, -32(%rbp)
	movq	%rcx, -40(%rbp)
	movq	-40(%rbp), %rax
	movq	%rax, -16(%rbp)
	movq	-16(%rbp), %rax
	movq	%rax, -8(%rbp)
	movq	-8(%rbp), %rax
	movq	%rax, %rdi
	callq	__ZNSt3__14pairIKiNS_12basic_stringIcNS_11char_traitsIcEENS_9allocatorIcEEEEED1Ev
## BB#3:                                ##   in Loop: Header=BB13_1 Depth=1
	movq	-184(%rbp), %rax
	movq	-176(%rbp), %rcx
	movq	%rax, -112(%rbp)
	movq	%rcx, -120(%rbp)
	movq	$1, -128(%rbp)
	movq	-112(%rbp), %rax
	movq	-120(%rbp), %rcx
	movq	-128(%rbp), %rdx
	movq	%rax, -88(%rbp)
	movq	%rcx, -96(%rbp)
	movq	%rdx, -104(%rbp)
	movq	-96(%rbp), %rax
	movq	%rax, -80(%rbp)
	movq	-80(%rbp), %rdi
	callq	__ZdlPv
	movq	-192(%rbp), %rax
	movq	%rax, -176(%rbp)
	jmp	LBB13_1
LBB13_4:
	addq	$192, %rsp
	popq	%rbp
	retq
	.cfi_endproc

	.private_extern	___clang_call_terminate
	.globl	___clang_call_terminate
	.weak_def_can_be_hidden	___clang_call_terminate
	.align	4, 0x90
___clang_call_terminate:                ## @__clang_call_terminate
## BB#0:
	pushq	%rbp
	movq	%rsp, %rbp
	subq	$16, %rsp
	callq	___cxa_begin_catch
	movq	%rax, -8(%rbp)          ## 8-byte Spill
	callq	__ZSt9terminatev

	.globl	__ZNSt3__112__hash_tableINS_17__hash_value_typeIiNS_12basic_stringIcNS_11char_traitsIcEENS_9allocatorIcEEEEEENS_22__unordered_map_hasherIiS8_NS_4hashIiEELb1EEENS_21__unordered_map_equalIiS8_NS_8equal_toIiEELb1EEENS5_IS8_EEE15__insert_uniqueINS_4pairIiPKcEEEENSK_INS_15__hash_iteratorIPNS_11__hash_nodeIS8_PvEEEEbEEOT_
	.weak_def_can_be_hidden	__ZNSt3__112__hash_tableINS_17__hash_value_typeIiNS_12basic_stringIcNS_11char_traitsIcEENS_9allocatorIcEEEEEENS_22__unordered_map_hasherIiS8_NS_4hashIiEELb1EEENS_21__unordered_map_equalIiS8_NS_8equal_toIiEELb1EEENS5_IS8_EEE15__insert_uniqueINS_4pairIiPKcEEEENSK_INS_15__hash_iteratorIPNS_11__hash_nodeIS8_PvEEEEbEEOT_
	.align	4, 0x90
__ZNSt3__112__hash_tableINS_17__hash_value_typeIiNS_12basic_stringIcNS_11char_traitsIcEENS_9allocatorIcEEEEEENS_22__unordered_map_hasherIiS8_NS_4hashIiEELb1EEENS_21__unordered_map_equalIiS8_NS_8equal_toIiEELb1EEENS5_IS8_EEE15__insert_uniqueINS_4pairIiPKcEEEENSK_INS_15__hash_iteratorIPNS_11__hash_nodeIS8_PvEEEEbEEOT_: ## @_ZNSt3__112__hash_tableINS_17__hash_value_typeIiNS_12basic_stringIcNS_11char_traitsIcEENS_9allocatorIcEEEEEENS_22__unordered_map_hasherIiS8_NS_4hashIiEELb1EEENS_21__unordered_map_equalIiS8_NS_8equal_toIiEELb1EEENS5_IS8_EEE15__insert_uniqueINS_4pairIiPKcEEEENSK_INS_15__hash_iteratorIPNS_11__hash_nodeIS8_PvEEEEbEEOT_
Lfunc_begin15:
	.cfi_startproc
	.cfi_personality 155, ___gxx_personality_v0
	.cfi_lsda 16, Lexception15
## BB#0:
	pushq	%rbp
Ltmp119:
	.cfi_def_cfa_offset 16
Ltmp120:
	.cfi_offset %rbp, -16
	movq	%rsp, %rbp
Ltmp121:
	.cfi_def_cfa_register %rbp
	subq	$704, %rsp              ## imm = 0x2C0
	movq	%rdi, -584(%rbp)
	movq	%rsi, -592(%rbp)
	movq	-584(%rbp), %rdi
	movq	%rsi, -560(%rbp)
	leaq	-616(%rbp), %rax
	movq	%rdi, -640(%rbp)        ## 8-byte Spill
	movq	%rax, %rdi
	movq	-640(%rbp), %rcx        ## 8-byte Reload
	movq	%rsi, -648(%rbp)        ## 8-byte Spill
	movq	%rcx, %rsi
	movq	-648(%rbp), %rdx        ## 8-byte Reload
	movq	%rax, -656(%rbp)        ## 8-byte Spill
	callq	__ZNSt3__112__hash_tableINS_17__hash_value_typeIiNS_12basic_stringIcNS_11char_traitsIcEENS_9allocatorIcEEEEEENS_22__unordered_map_hasherIiS8_NS_4hashIiEELb1EEENS_21__unordered_map_equalIiS8_NS_8equal_toIiEELb1EEENS5_IS8_EEE16__construct_nodeIJNS_4pairIiPKcEEEEENS_10unique_ptrINS_11__hash_nodeIS8_PvEENS_22__hash_node_destructorINS5_ISR_EEEEEEDpOT_
	movq	-656(%rbp), %rax        ## 8-byte Reload
	movq	%rax, -312(%rbp)
	movq	%rax, -304(%rbp)
	movq	%rax, -296(%rbp)
	movq	-616(%rbp), %rsi
Ltmp116:
	movq	-640(%rbp), %rdi        ## 8-byte Reload
	callq	__ZNSt3__112__hash_tableINS_17__hash_value_typeIiNS_12basic_stringIcNS_11char_traitsIcEENS_9allocatorIcEEEEEENS_22__unordered_map_hasherIiS8_NS_4hashIiEELb1EEENS_21__unordered_map_equalIiS8_NS_8equal_toIiEELb1EEENS5_IS8_EEE20__node_insert_uniqueEPNS_11__hash_nodeIS8_PvEE
Ltmp117:
	movb	%dl, -657(%rbp)         ## 1-byte Spill
	movq	%rax, -672(%rbp)        ## 8-byte Spill
	jmp	LBB15_1
LBB15_1:
	movq	-672(%rbp), %rax        ## 8-byte Reload
	movq	%rax, -576(%rbp)
	movb	-657(%rbp), %cl         ## 1-byte Reload
	movb	%cl, -568(%rbp)
	testb	$1, -568(%rbp)
	je	LBB15_10
## BB#2:
	leaq	-616(%rbp), %rax
	movq	%rax, -280(%rbp)
	movq	-280(%rbp), %rax
	movq	%rax, -272(%rbp)
	movq	-272(%rbp), %rcx
	movq	%rcx, -264(%rbp)
	movq	-264(%rbp), %rcx
	movq	(%rcx), %rcx
	movq	%rcx, -288(%rbp)
	movq	%rax, -256(%rbp)
	movq	-256(%rbp), %rax
	movq	%rax, -248(%rbp)
	movq	-248(%rbp), %rax
	movq	$0, (%rax)
	jmp	LBB15_10
LBB15_3:
Ltmp118:
	leaq	-616(%rbp), %rcx
	movl	%edx, %esi
	movq	%rax, -624(%rbp)
	movl	%esi, -628(%rbp)
	movq	%rcx, -240(%rbp)
	movq	-240(%rbp), %rax
	movq	%rax, -232(%rbp)
	movq	-232(%rbp), %rax
	movq	%rax, -208(%rbp)
	movq	$0, -216(%rbp)
	movq	-208(%rbp), %rax
	movq	%rax, -200(%rbp)
	movq	-200(%rbp), %rcx
	movq	%rcx, -192(%rbp)
	movq	-192(%rbp), %rcx
	movq	(%rcx), %rcx
	movq	%rcx, -224(%rbp)
	movq	-216(%rbp), %rcx
	movq	%rax, -32(%rbp)
	movq	-32(%rbp), %rdx
	movq	%rdx, -24(%rbp)
	movq	-24(%rbp), %rdx
	movq	%rcx, (%rdx)
	cmpq	$0, -224(%rbp)
	movq	%rax, -680(%rbp)        ## 8-byte Spill
	je	LBB15_9
## BB#4:
	movq	-680(%rbp), %rax        ## 8-byte Reload
	movq	%rax, -16(%rbp)
	movq	-16(%rbp), %rcx
	movq	%rcx, -8(%rbp)
	movq	-8(%rbp), %rcx
	addq	$8, %rcx
	movq	-224(%rbp), %rdx
	movq	%rcx, -176(%rbp)
	movq	%rdx, -184(%rbp)
	movq	-176(%rbp), %rcx
	testb	$1, 8(%rcx)
	movq	%rcx, -688(%rbp)        ## 8-byte Spill
	je	LBB15_6
## BB#5:
	movq	-688(%rbp), %rax        ## 8-byte Reload
	movq	(%rax), %rcx
	movq	-184(%rbp), %rdx
	addq	$16, %rdx
	movq	%rdx, -168(%rbp)
	movq	-168(%rbp), %rdx
	movq	%rcx, -136(%rbp)
	movq	%rdx, -144(%rbp)
	movq	-136(%rbp), %rcx
	movq	-144(%rbp), %rdx
	movq	%rcx, -120(%rbp)
	movq	%rdx, -128(%rbp)
	movq	-128(%rbp), %rcx
	movq	%rcx, -104(%rbp)
	movq	-104(%rbp), %rcx
	movq	%rcx, -96(%rbp)
	movq	-96(%rbp), %rcx
	movq	%rcx, %rdi
	callq	__ZNSt3__14pairIKiNS_12basic_stringIcNS_11char_traitsIcEENS_9allocatorIcEEEEED1Ev
LBB15_6:
	cmpq	$0, -184(%rbp)
	je	LBB15_8
## BB#7:
	movq	-688(%rbp), %rax        ## 8-byte Reload
	movq	(%rax), %rcx
	movq	-184(%rbp), %rdx
	movq	%rcx, -72(%rbp)
	movq	%rdx, -80(%rbp)
	movq	$1, -88(%rbp)
	movq	-72(%rbp), %rcx
	movq	-80(%rbp), %rdx
	movq	-88(%rbp), %rsi
	movq	%rcx, -48(%rbp)
	movq	%rdx, -56(%rbp)
	movq	%rsi, -64(%rbp)
	movq	-56(%rbp), %rcx
	movq	%rcx, -40(%rbp)
	movq	-40(%rbp), %rdi
	callq	__ZdlPv
LBB15_8:                                ## %_ZNSt3__122__hash_node_destructorINS_9allocatorINS_11__hash_nodeINS_17__hash_value_typeIiNS_12basic_stringIcNS_11char_traitsIcEENS1_IcEEEEEEPvEEEEEclEPSB_.exit.i.i.i2
	jmp	LBB15_9
LBB15_9:                                ## %_ZNSt3__110unique_ptrINS_11__hash_nodeINS_17__hash_value_typeIiNS_12basic_stringIcNS_11char_traitsIcEENS_9allocatorIcEEEEEEPvEENS_22__hash_node_destructorINS6_ISB_EEEEED1Ev.exit3
	jmp	LBB15_17
LBB15_10:
	leaq	-616(%rbp), %rax
	movl	$1, -632(%rbp)
	movq	%rax, -552(%rbp)
	movq	-552(%rbp), %rax
	movq	%rax, -544(%rbp)
	movq	-544(%rbp), %rax
	movq	%rax, -520(%rbp)
	movq	$0, -528(%rbp)
	movq	-520(%rbp), %rax
	movq	%rax, -512(%rbp)
	movq	-512(%rbp), %rcx
	movq	%rcx, -504(%rbp)
	movq	-504(%rbp), %rcx
	movq	(%rcx), %rcx
	movq	%rcx, -536(%rbp)
	movq	-528(%rbp), %rcx
	movq	%rax, -344(%rbp)
	movq	-344(%rbp), %rdx
	movq	%rdx, -336(%rbp)
	movq	-336(%rbp), %rdx
	movq	%rcx, (%rdx)
	cmpq	$0, -536(%rbp)
	movq	%rax, -696(%rbp)        ## 8-byte Spill
	je	LBB15_16
## BB#11:
	movq	-696(%rbp), %rax        ## 8-byte Reload
	movq	%rax, -328(%rbp)
	movq	-328(%rbp), %rcx
	movq	%rcx, -320(%rbp)
	movq	-320(%rbp), %rcx
	addq	$8, %rcx
	movq	-536(%rbp), %rdx
	movq	%rcx, -488(%rbp)
	movq	%rdx, -496(%rbp)
	movq	-488(%rbp), %rcx
	testb	$1, 8(%rcx)
	movq	%rcx, -704(%rbp)        ## 8-byte Spill
	je	LBB15_13
## BB#12:
	movq	-704(%rbp), %rax        ## 8-byte Reload
	movq	(%rax), %rcx
	movq	-496(%rbp), %rdx
	addq	$16, %rdx
	movq	%rdx, -480(%rbp)
	movq	-480(%rbp), %rdx
	movq	%rcx, -448(%rbp)
	movq	%rdx, -456(%rbp)
	movq	-448(%rbp), %rcx
	movq	-456(%rbp), %rdx
	movq	%rcx, -432(%rbp)
	movq	%rdx, -440(%rbp)
	movq	-440(%rbp), %rcx
	movq	%rcx, -416(%rbp)
	movq	-416(%rbp), %rcx
	movq	%rcx, -408(%rbp)
	movq	-408(%rbp), %rcx
	movq	%rcx, %rdi
	callq	__ZNSt3__14pairIKiNS_12basic_stringIcNS_11char_traitsIcEENS_9allocatorIcEEEEED1Ev
LBB15_13:
	cmpq	$0, -496(%rbp)
	je	LBB15_15
## BB#14:
	movq	-704(%rbp), %rax        ## 8-byte Reload
	movq	(%rax), %rcx
	movq	-496(%rbp), %rdx
	movq	%rcx, -384(%rbp)
	movq	%rdx, -392(%rbp)
	movq	$1, -400(%rbp)
	movq	-384(%rbp), %rcx
	movq	-392(%rbp), %rdx
	movq	-400(%rbp), %rsi
	movq	%rcx, -360(%rbp)
	movq	%rdx, -368(%rbp)
	movq	%rsi, -376(%rbp)
	movq	-368(%rbp), %rcx
	movq	%rcx, -352(%rbp)
	movq	-352(%rbp), %rdi
	callq	__ZdlPv
LBB15_15:                               ## %_ZNSt3__122__hash_node_destructorINS_9allocatorINS_11__hash_nodeINS_17__hash_value_typeIiNS_12basic_stringIcNS_11char_traitsIcEENS1_IcEEEEEEPvEEEEEclEPSB_.exit.i.i.i
	jmp	LBB15_16
LBB15_16:                               ## %_ZNSt3__110unique_ptrINS_11__hash_nodeINS_17__hash_value_typeIiNS_12basic_stringIcNS_11char_traitsIcEENS_9allocatorIcEEEEEEPvEENS_22__hash_node_destructorINS6_ISB_EEEEED1Ev.exit
	movq	-576(%rbp), %rax
	movb	-568(%rbp), %dl
	addq	$704, %rsp              ## imm = 0x2C0
	popq	%rbp
	retq
LBB15_17:
	movq	-624(%rbp), %rdi
	callq	__Unwind_Resume
Lfunc_end15:
	.cfi_endproc
	.section	__TEXT,__gcc_except_tab
	.align	2
GCC_except_table15:
Lexception15:
	.byte	255                     ## @LPStart Encoding = omit
	.byte	155                     ## @TType Encoding = indirect pcrel sdata4
	.byte	41                      ## @TType base offset
	.byte	3                       ## Call site Encoding = udata4
	.byte	39                      ## Call site table length
Lset36 = Lfunc_begin15-Lfunc_begin15    ## >> Call Site 1 <<
	.long	Lset36
Lset37 = Ltmp116-Lfunc_begin15          ##   Call between Lfunc_begin15 and Ltmp116
	.long	Lset37
	.long	0                       ##     has no landing pad
	.byte	0                       ##   On action: cleanup
Lset38 = Ltmp116-Lfunc_begin15          ## >> Call Site 2 <<
	.long	Lset38
Lset39 = Ltmp117-Ltmp116                ##   Call between Ltmp116 and Ltmp117
	.long	Lset39
Lset40 = Ltmp118-Lfunc_begin15          ##     jumps to Ltmp118
	.long	Lset40
	.byte	0                       ##   On action: cleanup
Lset41 = Ltmp117-Lfunc_begin15          ## >> Call Site 3 <<
	.long	Lset41
Lset42 = Lfunc_end15-Ltmp117            ##   Call between Ltmp117 and Lfunc_end15
	.long	Lset42
	.long	0                       ##     has no landing pad
	.byte	0                       ##   On action: cleanup
	.align	2

	.section	__TEXT,__textcoal_nt,coalesced,pure_instructions
	.globl	__ZNSt3__112__hash_tableINS_17__hash_value_typeIiNS_12basic_stringIcNS_11char_traitsIcEENS_9allocatorIcEEEEEENS_22__unordered_map_hasherIiS8_NS_4hashIiEELb1EEENS_21__unordered_map_equalIiS8_NS_8equal_toIiEELb1EEENS5_IS8_EEE16__construct_nodeIJNS_4pairIiPKcEEEEENS_10unique_ptrINS_11__hash_nodeIS8_PvEENS_22__hash_node_destructorINS5_ISR_EEEEEEDpOT_
	.weak_def_can_be_hidden	__ZNSt3__112__hash_tableINS_17__hash_value_typeIiNS_12basic_stringIcNS_11char_traitsIcEENS_9allocatorIcEEEEEENS_22__unordered_map_hasherIiS8_NS_4hashIiEELb1EEENS_21__unordered_map_equalIiS8_NS_8equal_toIiEELb1EEENS5_IS8_EEE16__construct_nodeIJNS_4pairIiPKcEEEEENS_10unique_ptrINS_11__hash_nodeIS8_PvEENS_22__hash_node_destructorINS5_ISR_EEEEEEDpOT_
	.align	4, 0x90
__ZNSt3__112__hash_tableINS_17__hash_value_typeIiNS_12basic_stringIcNS_11char_traitsIcEENS_9allocatorIcEEEEEENS_22__unordered_map_hasherIiS8_NS_4hashIiEELb1EEENS_21__unordered_map_equalIiS8_NS_8equal_toIiEELb1EEENS5_IS8_EEE16__construct_nodeIJNS_4pairIiPKcEEEEENS_10unique_ptrINS_11__hash_nodeIS8_PvEENS_22__hash_node_destructorINS5_ISR_EEEEEEDpOT_: ## @_ZNSt3__112__hash_tableINS_17__hash_value_typeIiNS_12basic_stringIcNS_11char_traitsIcEENS_9allocatorIcEEEEEENS_22__unordered_map_hasherIiS8_NS_4hashIiEELb1EEENS_21__unordered_map_equalIiS8_NS_8equal_toIiEELb1EEENS5_IS8_EEE16__construct_nodeIJNS_4pairIiPKcEEEEENS_10unique_ptrINS_11__hash_nodeIS8_PvEENS_22__hash_node_destructorINS5_ISR_EEEEEEDpOT_
Lfunc_begin16:
	.cfi_startproc
	.cfi_personality 155, ___gxx_personality_v0
	.cfi_lsda 16, Lexception16
## BB#0:
	pushq	%rbp
Ltmp127:
	.cfi_def_cfa_offset 16
Ltmp128:
	.cfi_offset %rbp, -16
	movq	%rsp, %rbp
Ltmp129:
	.cfi_def_cfa_register %rbp
	subq	$1456, %rsp             ## imm = 0x5B0
	movq	%rdi, %rax
	movq	%rsi, -1304(%rbp)
	movq	%rdx, -1312(%rbp)
	movq	-1304(%rbp), %rdx
	movq	%rdx, -1296(%rbp)
	movq	%rdx, %rsi
	addq	$16, %rsi
	movq	%rsi, -1288(%rbp)
	movq	%rsi, -1280(%rbp)
	movq	%rsi, -1320(%rbp)
	movb	$0, -1321(%rbp)
	movq	-1320(%rbp), %rsi
	movq	%rsi, -1024(%rbp)
	movq	$1, -1032(%rbp)
	movq	-1024(%rbp), %rsi
	movq	%rsi, -1000(%rbp)
	movq	$1, -1008(%rbp)
	movq	$0, -1016(%rbp)
	movq	-1008(%rbp), %rsi
	shlq	$4, %rsi
	leaq	(%rsi,%rsi,2), %rsi
	movq	%rsi, -992(%rbp)
	movq	%rdi, -1368(%rbp)       ## 8-byte Spill
	movq	%rsi, %rdi
	movq	%rax, -1376(%rbp)       ## 8-byte Spill
	movq	%rdx, -1384(%rbp)       ## 8-byte Spill
	callq	__Znwm
	movq	-1320(%rbp), %rdx
	leaq	-1344(%rbp), %rsi
	movq	%rsi, -968(%rbp)
	movq	%rdx, -976(%rbp)
	movb	$0, -977(%rbp)
	movq	-968(%rbp), %rdx
	movq	-976(%rbp), %rdi
	movq	%rdx, -944(%rbp)
	movq	%rdi, -952(%rbp)
	movb	$0, -953(%rbp)
	movq	-944(%rbp), %rdx
	movq	-952(%rbp), %rdi
	movq	%rdi, (%rdx)
	movb	-953(%rbp), %cl
	andb	$1, %cl
	movb	%cl, 8(%rdx)
	movq	-1368(%rbp), %rdx       ## 8-byte Reload
	movq	%rdx, -920(%rbp)
	movq	%rax, -928(%rbp)
	movq	%rsi, -936(%rbp)
	movq	-920(%rbp), %rax
	movq	-928(%rbp), %rdi
	movq	%rax, -880(%rbp)
	movq	%rdi, -888(%rbp)
	movq	%rsi, -896(%rbp)
	movq	-880(%rbp), %rax
	movq	-888(%rbp), %rdi
	movq	%rsi, -872(%rbp)
	movq	-1344(%rbp), %rsi
	movq	-1336(%rbp), %r8
	movq	%r8, -904(%rbp)
	movq	%rsi, -912(%rbp)
	movq	-912(%rbp), %rsi
	movb	-904(%rbp), %cl
	movq	%rsi, -848(%rbp)
	movb	%cl, -840(%rbp)
	movq	%rax, -856(%rbp)
	movq	%rdi, -864(%rbp)
	movq	-856(%rbp), %rax
	movq	-848(%rbp), %rsi
	movb	-840(%rbp), %cl
	movq	%rsi, -800(%rbp)
	movb	%cl, -792(%rbp)
	movq	%rax, -808(%rbp)
	movq	%rdi, -816(%rbp)
	movq	-808(%rbp), %rax
	leaq	-816(%rbp), %rsi
	movq	%rsi, -784(%rbp)
	movq	-816(%rbp), %rsi
	leaq	-800(%rbp), %rdi
	movq	%rdi, -728(%rbp)
	movq	-800(%rbp), %rdi
	movq	-792(%rbp), %r8
	movq	%r8, -824(%rbp)
	movq	%rdi, -832(%rbp)
	movq	-832(%rbp), %rdi
	movb	-824(%rbp), %cl
	movq	%rdi, -760(%rbp)
	movb	%cl, -752(%rbp)
	movq	%rax, -768(%rbp)
	movq	%rsi, -776(%rbp)
	movq	-768(%rbp), %rax
	leaq	-776(%rbp), %rsi
	movq	%rsi, -744(%rbp)
	movq	-776(%rbp), %rsi
	movq	%rsi, (%rax)
	leaq	-760(%rbp), %rsi
	movq	%rsi, -736(%rbp)
	movq	-760(%rbp), %rsi
	movq	-752(%rbp), %rdi
	movq	%rdi, 16(%rax)
	movq	%rsi, 8(%rax)
	movq	-1320(%rbp), %rax
	movq	%rdx, -480(%rbp)
	movq	%rdx, -472(%rbp)
	movq	%rdx, -464(%rbp)
	movq	(%rdx), %rsi
	addq	$16, %rsi
	movq	%rsi, -456(%rbp)
	movq	-1312(%rbp), %rdi
	movq	%rdi, -8(%rbp)
	movq	%rax, -264(%rbp)
	movq	%rsi, -272(%rbp)
	movq	%rdi, -280(%rbp)
	movq	-264(%rbp), %rax
	movq	-272(%rbp), %rsi
	movq	%rdi, -256(%rbp)
	movq	%rax, -232(%rbp)
	movq	%rsi, -240(%rbp)
	movq	%rdi, -248(%rbp)
	movq	-232(%rbp), %rax
	movq	-240(%rbp), %rsi
	movq	%rdi, -216(%rbp)
	movq	%rax, -192(%rbp)
	movq	%rsi, -200(%rbp)
	movq	%rdi, -208(%rbp)
	movq	-200(%rbp), %rax
	movq	%rdi, -184(%rbp)
	movq	%rax, -168(%rbp)
	movq	%rdi, -176(%rbp)
	movq	-168(%rbp), %rax
	movq	%rax, -152(%rbp)
	movq	%rdi, -160(%rbp)
	movq	-152(%rbp), %rax
	movq	%rdi, -144(%rbp)
	movq	%rax, -120(%rbp)
	movq	%rdi, -128(%rbp)
	movq	$0, -136(%rbp)
	movq	-120(%rbp), %rax
	movq	-128(%rbp), %rsi
	movq	%rax, -96(%rbp)
	movq	%rsi, -104(%rbp)
	movq	$0, -112(%rbp)
	movq	-96(%rbp), %rax
	movq	-104(%rbp), %rsi
	movq	%rsi, -88(%rbp)
	movl	(%rsi), %r9d
	movl	%r9d, (%rax)
	addq	$8, %rax
	movq	-104(%rbp), %rsi
	movq	%rsi, %rdi
	addq	$8, %rdi
	movq	%rdi, -16(%rbp)
	movq	8(%rsi), %rsi
	movq	%rax, -72(%rbp)
	movq	%rsi, -80(%rbp)
	movq	-72(%rbp), %rax
	movq	%rax, -56(%rbp)
	movq	%rsi, -64(%rbp)
	movq	-56(%rbp), %rax
	movq	%rax, -48(%rbp)
	movq	%rax, -40(%rbp)
	movq	%rax, -32(%rbp)
	movq	%rax, -24(%rbp)
	movq	-64(%rbp), %rsi
Ltmp122:
	movq	%rsi, %rdi
	movq	%rax, -1392(%rbp)       ## 8-byte Spill
	movq	%rsi, -1400(%rbp)       ## 8-byte Spill
	callq	__ZNSt3__111char_traitsIcE6lengthEPKc
Ltmp123:
	movq	%rax, -1408(%rbp)       ## 8-byte Spill
	jmp	LBB16_1
LBB16_1:                                ## %.noexc
Ltmp124:
	movq	-1392(%rbp), %rdi       ## 8-byte Reload
	movq	-1400(%rbp), %rsi       ## 8-byte Reload
	movq	-1408(%rbp), %rdx       ## 8-byte Reload
	callq	__ZNSt3__112basic_stringIcNS_11char_traitsIcEENS_9allocatorIcEEE6__initEPKcm
Ltmp125:
	jmp	LBB16_2
LBB16_2:                                ## %_ZNSt3__116allocator_traitsINS_9allocatorINS_11__hash_nodeINS_17__hash_value_typeIiNS_12basic_stringIcNS_11char_traitsIcEENS1_IcEEEEEEPvEEEEE9constructIS9_JNS_4pairIiPKcEEEEEvRSC_PT_DpOT0_.exit
	jmp	LBB16_3
LBB16_3:
	movq	-1368(%rbp), %rax       ## 8-byte Reload
	movq	%rax, -320(%rbp)
	movq	-320(%rbp), %rcx
	movq	%rcx, -312(%rbp)
	movq	-312(%rbp), %rcx
	movq	%rcx, -304(%rbp)
	movq	-304(%rbp), %rcx
	movb	$1, 16(%rcx)
	movq	-1384(%rbp), %rcx       ## 8-byte Reload
	movq	%rcx, -344(%rbp)
	movq	-344(%rbp), %rdx
	addq	$24, %rdx
	movq	%rdx, -336(%rbp)
	movq	-336(%rbp), %rdx
	movq	%rdx, -328(%rbp)
	movq	-328(%rbp), %rdx
	movq	%rax, -368(%rbp)
	movq	-368(%rbp), %rsi
	movq	%rsi, -360(%rbp)
	movq	-360(%rbp), %rsi
	movq	%rsi, -352(%rbp)
	movq	-352(%rbp), %rsi
	movq	(%rsi), %rsi
	addq	$16, %rsi
	movq	%rdx, -392(%rbp)
	movq	%rsi, -400(%rbp)
	movq	-392(%rbp), %rdx
	movq	-400(%rbp), %rsi
	movl	(%rsi), %edi
	movq	%rdx, -376(%rbp)
	movl	%edi, -380(%rbp)
	movslq	-380(%rbp), %rdx
	movq	%rdx, -1416(%rbp)       ## 8-byte Spill
## BB#4:
	movq	-1368(%rbp), %rax       ## 8-byte Reload
	movq	%rax, -424(%rbp)
	movq	-424(%rbp), %rcx
	movq	%rcx, -416(%rbp)
	movq	-416(%rbp), %rcx
	movq	%rcx, -408(%rbp)
	movq	-408(%rbp), %rcx
	movq	(%rcx), %rcx
	movq	-1416(%rbp), %rdx       ## 8-byte Reload
	movq	%rdx, 8(%rcx)
	movq	%rax, -448(%rbp)
	movq	-448(%rbp), %rcx
	movq	%rcx, -440(%rbp)
	movq	-440(%rbp), %rcx
	movq	%rcx, -432(%rbp)
	movq	-432(%rbp), %rcx
	movq	(%rcx), %rcx
	movq	$0, (%rcx)
	movb	$1, -1321(%rbp)
	movl	$1, -1360(%rbp)
	testb	$1, -1321(%rbp)
	jne	LBB16_19
	jmp	LBB16_12
LBB16_5:
Ltmp126:
	movl	%edx, %ecx
	movq	%rax, -1352(%rbp)
	movl	%ecx, -1356(%rbp)
	movq	-1368(%rbp), %rax       ## 8-byte Reload
	movq	%rax, -720(%rbp)
	movq	-720(%rbp), %rdx
	movq	%rdx, -712(%rbp)
	movq	-712(%rbp), %rdx
	movq	%rdx, -688(%rbp)
	movq	$0, -696(%rbp)
	movq	-688(%rbp), %rdx
	movq	%rdx, -680(%rbp)
	movq	-680(%rbp), %rsi
	movq	%rsi, -672(%rbp)
	movq	-672(%rbp), %rsi
	movq	(%rsi), %rsi
	movq	%rsi, -704(%rbp)
	movq	-696(%rbp), %rsi
	movq	%rdx, -512(%rbp)
	movq	-512(%rbp), %rdi
	movq	%rdi, -504(%rbp)
	movq	-504(%rbp), %rdi
	movq	%rsi, (%rdi)
	cmpq	$0, -704(%rbp)
	movq	%rdx, -1424(%rbp)       ## 8-byte Spill
	je	LBB16_11
## BB#6:
	movq	-1424(%rbp), %rax       ## 8-byte Reload
	movq	%rax, -496(%rbp)
	movq	-496(%rbp), %rcx
	movq	%rcx, -488(%rbp)
	movq	-488(%rbp), %rcx
	addq	$8, %rcx
	movq	-704(%rbp), %rdx
	movq	%rcx, -656(%rbp)
	movq	%rdx, -664(%rbp)
	movq	-656(%rbp), %rcx
	testb	$1, 8(%rcx)
	movq	%rcx, -1432(%rbp)       ## 8-byte Spill
	je	LBB16_8
## BB#7:
	movq	-1432(%rbp), %rax       ## 8-byte Reload
	movq	(%rax), %rcx
	movq	-664(%rbp), %rdx
	addq	$16, %rdx
	movq	%rdx, -648(%rbp)
	movq	-648(%rbp), %rdx
	movq	%rcx, -616(%rbp)
	movq	%rdx, -624(%rbp)
	movq	-616(%rbp), %rcx
	movq	-624(%rbp), %rdx
	movq	%rcx, -600(%rbp)
	movq	%rdx, -608(%rbp)
	movq	-608(%rbp), %rcx
	movq	%rcx, -584(%rbp)
	movq	-584(%rbp), %rcx
	movq	%rcx, -576(%rbp)
	movq	-576(%rbp), %rcx
	movq	%rcx, %rdi
	callq	__ZNSt3__14pairIKiNS_12basic_stringIcNS_11char_traitsIcEENS_9allocatorIcEEEEED1Ev
LBB16_8:
	cmpq	$0, -664(%rbp)
	je	LBB16_10
## BB#9:
	movq	-1432(%rbp), %rax       ## 8-byte Reload
	movq	(%rax), %rcx
	movq	-664(%rbp), %rdx
	movq	%rcx, -552(%rbp)
	movq	%rdx, -560(%rbp)
	movq	$1, -568(%rbp)
	movq	-552(%rbp), %rcx
	movq	-560(%rbp), %rdx
	movq	-568(%rbp), %rsi
	movq	%rcx, -528(%rbp)
	movq	%rdx, -536(%rbp)
	movq	%rsi, -544(%rbp)
	movq	-536(%rbp), %rcx
	movq	%rcx, -520(%rbp)
	movq	-520(%rbp), %rdi
	callq	__ZdlPv
LBB16_10:                               ## %_ZNSt3__122__hash_node_destructorINS_9allocatorINS_11__hash_nodeINS_17__hash_value_typeIiNS_12basic_stringIcNS_11char_traitsIcEENS1_IcEEEEEEPvEEEEEclEPSB_.exit.i.i.i2
	jmp	LBB16_11
LBB16_11:                               ## %_ZNSt3__110unique_ptrINS_11__hash_nodeINS_17__hash_value_typeIiNS_12basic_stringIcNS_11char_traitsIcEENS_9allocatorIcEEEEEEPvEENS_22__hash_node_destructorINS6_ISB_EEEEED1Ev.exit3
	jmp	LBB16_20
LBB16_12:
	movq	-1368(%rbp), %rax       ## 8-byte Reload
	movq	%rax, -1272(%rbp)
	movq	-1272(%rbp), %rcx
	movq	%rcx, -1264(%rbp)
	movq	-1264(%rbp), %rcx
	movq	%rcx, -1240(%rbp)
	movq	$0, -1248(%rbp)
	movq	-1240(%rbp), %rcx
	movq	%rcx, -1232(%rbp)
	movq	-1232(%rbp), %rdx
	movq	%rdx, -1224(%rbp)
	movq	-1224(%rbp), %rdx
	movq	(%rdx), %rdx
	movq	%rdx, -1256(%rbp)
	movq	-1248(%rbp), %rdx
	movq	%rcx, -1064(%rbp)
	movq	-1064(%rbp), %rsi
	movq	%rsi, -1056(%rbp)
	movq	-1056(%rbp), %rsi
	movq	%rdx, (%rsi)
	cmpq	$0, -1256(%rbp)
	movq	%rcx, -1440(%rbp)       ## 8-byte Spill
	je	LBB16_18
## BB#13:
	movq	-1440(%rbp), %rax       ## 8-byte Reload
	movq	%rax, -1048(%rbp)
	movq	-1048(%rbp), %rcx
	movq	%rcx, -1040(%rbp)
	movq	-1040(%rbp), %rcx
	addq	$8, %rcx
	movq	-1256(%rbp), %rdx
	movq	%rcx, -1208(%rbp)
	movq	%rdx, -1216(%rbp)
	movq	-1208(%rbp), %rcx
	testb	$1, 8(%rcx)
	movq	%rcx, -1448(%rbp)       ## 8-byte Spill
	je	LBB16_15
## BB#14:
	movq	-1448(%rbp), %rax       ## 8-byte Reload
	movq	(%rax), %rcx
	movq	-1216(%rbp), %rdx
	addq	$16, %rdx
	movq	%rdx, -1200(%rbp)
	movq	-1200(%rbp), %rdx
	movq	%rcx, -1168(%rbp)
	movq	%rdx, -1176(%rbp)
	movq	-1168(%rbp), %rcx
	movq	-1176(%rbp), %rdx
	movq	%rcx, -1152(%rbp)
	movq	%rdx, -1160(%rbp)
	movq	-1160(%rbp), %rcx
	movq	%rcx, -1136(%rbp)
	movq	-1136(%rbp), %rcx
	movq	%rcx, -1128(%rbp)
	movq	-1128(%rbp), %rcx
	movq	%rcx, %rdi
	callq	__ZNSt3__14pairIKiNS_12basic_stringIcNS_11char_traitsIcEENS_9allocatorIcEEEEED1Ev
LBB16_15:
	cmpq	$0, -1216(%rbp)
	je	LBB16_17
## BB#16:
	movq	-1448(%rbp), %rax       ## 8-byte Reload
	movq	(%rax), %rcx
	movq	-1216(%rbp), %rdx
	movq	%rcx, -1104(%rbp)
	movq	%rdx, -1112(%rbp)
	movq	$1, -1120(%rbp)
	movq	-1104(%rbp), %rcx
	movq	-1112(%rbp), %rdx
	movq	-1120(%rbp), %rsi
	movq	%rcx, -1080(%rbp)
	movq	%rdx, -1088(%rbp)
	movq	%rsi, -1096(%rbp)
	movq	-1088(%rbp), %rcx
	movq	%rcx, -1072(%rbp)
	movq	-1072(%rbp), %rdi
	callq	__ZdlPv
LBB16_17:                               ## %_ZNSt3__122__hash_node_destructorINS_9allocatorINS_11__hash_nodeINS_17__hash_value_typeIiNS_12basic_stringIcNS_11char_traitsIcEENS1_IcEEEEEEPvEEEEEclEPSB_.exit.i.i.i
	jmp	LBB16_18
LBB16_18:                               ## %_ZNSt3__110unique_ptrINS_11__hash_nodeINS_17__hash_value_typeIiNS_12basic_stringIcNS_11char_traitsIcEENS_9allocatorIcEEEEEEPvEENS_22__hash_node_destructorINS6_ISB_EEEEED1Ev.exit
	jmp	LBB16_19
LBB16_19:
	movq	-1376(%rbp), %rax       ## 8-byte Reload
	addq	$1456, %rsp             ## imm = 0x5B0
	popq	%rbp
	retq
LBB16_20:
	movq	-1352(%rbp), %rdi
	callq	__Unwind_Resume
Lfunc_end16:
	.cfi_endproc
	.section	__TEXT,__gcc_except_tab
	.align	2
GCC_except_table16:
Lexception16:
	.byte	255                     ## @LPStart Encoding = omit
	.byte	155                     ## @TType Encoding = indirect pcrel sdata4
	.byte	41                      ## @TType base offset
	.byte	3                       ## Call site Encoding = udata4
	.byte	39                      ## Call site table length
Lset43 = Lfunc_begin16-Lfunc_begin16    ## >> Call Site 1 <<
	.long	Lset43
Lset44 = Ltmp122-Lfunc_begin16          ##   Call between Lfunc_begin16 and Ltmp122
	.long	Lset44
	.long	0                       ##     has no landing pad
	.byte	0                       ##   On action: cleanup
Lset45 = Ltmp122-Lfunc_begin16          ## >> Call Site 2 <<
	.long	Lset45
Lset46 = Ltmp125-Ltmp122                ##   Call between Ltmp122 and Ltmp125
	.long	Lset46
Lset47 = Ltmp126-Lfunc_begin16          ##     jumps to Ltmp126
	.long	Lset47
	.byte	0                       ##   On action: cleanup
Lset48 = Ltmp125-Lfunc_begin16          ## >> Call Site 3 <<
	.long	Lset48
Lset49 = Lfunc_end16-Ltmp125            ##   Call between Ltmp125 and Lfunc_end16
	.long	Lset49
	.long	0                       ##     has no landing pad
	.byte	0                       ##   On action: cleanup
	.align	2

	.section	__TEXT,__literal4,4byte_literals
	.align	2
LCPI17_0:
	.long	1593835520              ## float 9.22337203E+18
	.section	__TEXT,__textcoal_nt,coalesced,pure_instructions
	.globl	__ZNSt3__112__hash_tableINS_17__hash_value_typeIiNS_12basic_stringIcNS_11char_traitsIcEENS_9allocatorIcEEEEEENS_22__unordered_map_hasherIiS8_NS_4hashIiEELb1EEENS_21__unordered_map_equalIiS8_NS_8equal_toIiEELb1EEENS5_IS8_EEE20__node_insert_uniqueEPNS_11__hash_nodeIS8_PvEE
	.weak_def_can_be_hidden	__ZNSt3__112__hash_tableINS_17__hash_value_typeIiNS_12basic_stringIcNS_11char_traitsIcEENS_9allocatorIcEEEEEENS_22__unordered_map_hasherIiS8_NS_4hashIiEELb1EEENS_21__unordered_map_equalIiS8_NS_8equal_toIiEELb1EEENS5_IS8_EEE20__node_insert_uniqueEPNS_11__hash_nodeIS8_PvEE
	.align	4, 0x90
__ZNSt3__112__hash_tableINS_17__hash_value_typeIiNS_12basic_stringIcNS_11char_traitsIcEENS_9allocatorIcEEEEEENS_22__unordered_map_hasherIiS8_NS_4hashIiEELb1EEENS_21__unordered_map_equalIiS8_NS_8equal_toIiEELb1EEENS5_IS8_EEE20__node_insert_uniqueEPNS_11__hash_nodeIS8_PvEE: ## @_ZNSt3__112__hash_tableINS_17__hash_value_typeIiNS_12basic_stringIcNS_11char_traitsIcEENS_9allocatorIcEEEEEENS_22__unordered_map_hasherIiS8_NS_4hashIiEELb1EEENS_21__unordered_map_equalIiS8_NS_8equal_toIiEELb1EEENS5_IS8_EEE20__node_insert_uniqueEPNS_11__hash_nodeIS8_PvEE
	.cfi_startproc
## BB#0:
	pushq	%rbp
Ltmp130:
	.cfi_def_cfa_offset 16
Ltmp131:
	.cfi_offset %rbp, -16
	movq	%rsp, %rbp
Ltmp132:
	.cfi_def_cfa_register %rbp
	subq	$1008, %rsp             ## imm = 0x3F0
	movq	%rdi, -792(%rbp)
	movq	%rsi, -800(%rbp)
	movq	-792(%rbp), %rsi
	movq	%rsi, -768(%rbp)
	movq	-768(%rbp), %rdi
	addq	$24, %rdi
	movq	%rdi, -760(%rbp)
	movq	-760(%rbp), %rdi
	movq	%rdi, -752(%rbp)
	movq	-752(%rbp), %rdi
	movq	-800(%rbp), %rax
	addq	$16, %rax
	movq	%rdi, -400(%rbp)
	movq	%rax, -408(%rbp)
	movq	-400(%rbp), %rax
	movq	-408(%rbp), %rdi
	movl	(%rdi), %ecx
	movq	%rax, -384(%rbp)
	movl	%ecx, -388(%rbp)
	movslq	-388(%rbp), %rax
	movq	-800(%rbp), %rdi
	movq	%rax, 8(%rdi)
	movq	%rsi, -296(%rbp)
	movq	-296(%rbp), %rax
	movq	%rax, -288(%rbp)
	movq	-288(%rbp), %rax
	movq	%rax, -280(%rbp)
	movq	-280(%rbp), %rax
	movq	%rax, -272(%rbp)
	movq	-272(%rbp), %rax
	addq	$8, %rax
	movq	%rax, -264(%rbp)
	movq	-264(%rbp), %rax
	movq	%rax, -256(%rbp)
	movq	-256(%rbp), %rax
	movq	%rax, -248(%rbp)
	movq	-248(%rbp), %rax
	movq	(%rax), %rax
	movq	%rax, -808(%rbp)
	movb	$0, -809(%rbp)
	cmpq	$0, -808(%rbp)
	movq	%rsi, -872(%rbp)        ## 8-byte Spill
	je	LBB17_18
## BB#1:
	movq	-800(%rbp), %rax
	movq	8(%rax), %rax
	movq	-808(%rbp), %rcx
	movq	%rax, -8(%rbp)
	movq	%rcx, -16(%rbp)
	movq	-16(%rbp), %rax
	movq	-16(%rbp), %rcx
	subq	$1, %rcx
	andq	%rcx, %rax
	cmpq	$0, %rax
	jne	LBB17_3
## BB#2:
	movq	-8(%rbp), %rax
	movq	-16(%rbp), %rcx
	subq	$1, %rcx
	andq	%rcx, %rax
	movq	%rax, -880(%rbp)        ## 8-byte Spill
	jmp	LBB17_4
LBB17_3:
	movq	-8(%rbp), %rax
	xorl	%ecx, %ecx
	movl	%ecx, %edx
	divq	-16(%rbp)
	movq	%rdx, -880(%rbp)        ## 8-byte Spill
LBB17_4:                                ## %_ZNSt3__116__constrain_hashEmm.exit3
	movq	-880(%rbp), %rax        ## 8-byte Reload
	movq	%rax, -832(%rbp)
	movq	-832(%rbp), %rax
	movq	-872(%rbp), %rcx        ## 8-byte Reload
	movq	%rcx, -40(%rbp)
	movq	%rax, -48(%rbp)
	movq	-40(%rbp), %rax
	movq	-48(%rbp), %rdx
	movq	%rax, -32(%rbp)
	movq	-32(%rbp), %rax
	movq	%rax, -24(%rbp)
	movq	-24(%rbp), %rax
	movq	(%rax), %rax
	movq	(%rax,%rdx,8), %rax
	movq	%rax, -824(%rbp)
	cmpq	$0, -824(%rbp)
	je	LBB17_17
## BB#5:
	movq	-824(%rbp), %rax
	movq	(%rax), %rax
	movq	%rax, -824(%rbp)
LBB17_6:                                ## =>This Inner Loop Header: Depth=1
	xorl	%eax, %eax
	movb	%al, %cl
	cmpq	$0, -824(%rbp)
	movb	%cl, -881(%rbp)         ## 1-byte Spill
	je	LBB17_11
## BB#7:                                ##   in Loop: Header=BB17_6 Depth=1
	movq	-824(%rbp), %rax
	movq	8(%rax), %rax
	movq	-808(%rbp), %rcx
	movq	%rax, -56(%rbp)
	movq	%rcx, -64(%rbp)
	movq	-64(%rbp), %rax
	movq	-64(%rbp), %rcx
	subq	$1, %rcx
	andq	%rcx, %rax
	cmpq	$0, %rax
	jne	LBB17_9
## BB#8:                                ##   in Loop: Header=BB17_6 Depth=1
	movq	-56(%rbp), %rax
	movq	-64(%rbp), %rcx
	subq	$1, %rcx
	andq	%rcx, %rax
	movq	%rax, -896(%rbp)        ## 8-byte Spill
	jmp	LBB17_10
LBB17_9:                                ##   in Loop: Header=BB17_6 Depth=1
	movq	-56(%rbp), %rax
	xorl	%ecx, %ecx
	movl	%ecx, %edx
	divq	-64(%rbp)
	movq	%rdx, -896(%rbp)        ## 8-byte Spill
LBB17_10:                               ## %_ZNSt3__116__constrain_hashEmm.exit2
                                        ##   in Loop: Header=BB17_6 Depth=1
	movq	-896(%rbp), %rax        ## 8-byte Reload
	cmpq	-832(%rbp), %rax
	sete	%cl
	movb	%cl, -881(%rbp)         ## 1-byte Spill
LBB17_11:                               ##   in Loop: Header=BB17_6 Depth=1
	movb	-881(%rbp), %al         ## 1-byte Reload
	testb	$1, %al
	jne	LBB17_12
	jmp	LBB17_16
LBB17_12:                               ##   in Loop: Header=BB17_6 Depth=1
	movq	-872(%rbp), %rax        ## 8-byte Reload
	movq	%rax, -88(%rbp)
	movq	-88(%rbp), %rcx
	addq	$32, %rcx
	movq	%rcx, -80(%rbp)
	movq	-80(%rbp), %rcx
	movq	%rcx, -72(%rbp)
	movq	-72(%rbp), %rcx
	movq	-824(%rbp), %rdx
	addq	$16, %rdx
	movq	-800(%rbp), %rsi
	addq	$16, %rsi
	movq	%rcx, -120(%rbp)
	movq	%rdx, -128(%rbp)
	movq	%rsi, -136(%rbp)
	movq	-120(%rbp), %rcx
	movq	-128(%rbp), %rdx
	movq	-136(%rbp), %rsi
	movq	%rcx, -96(%rbp)
	movq	%rdx, -104(%rbp)
	movq	%rsi, -112(%rbp)
	movq	-104(%rbp), %rcx
	movl	(%rcx), %edi
	movq	-112(%rbp), %rcx
	cmpl	(%rcx), %edi
	jne	LBB17_14
## BB#13:
	jmp	LBB17_38
LBB17_14:                               ##   in Loop: Header=BB17_6 Depth=1
	jmp	LBB17_15
LBB17_15:                               ##   in Loop: Header=BB17_6 Depth=1
	movq	-824(%rbp), %rax
	movq	(%rax), %rax
	movq	%rax, -824(%rbp)
	jmp	LBB17_6
LBB17_16:
	jmp	LBB17_17
LBB17_17:
	jmp	LBB17_18
LBB17_18:
	movq	-872(%rbp), %rax        ## 8-byte Reload
	movq	%rax, -160(%rbp)
	addq	$24, %rax
	movq	%rax, -152(%rbp)
	movq	%rax, -144(%rbp)
	movq	-872(%rbp), %rax        ## 8-byte Reload
	movq	24(%rax), %rcx
	incq	%rcx
	movq	%rcx, %rdx
	shrq	%rdx
	movq	%rcx, %rsi
	andq	$1, %rsi
	orq	%rdx, %rsi
	cvtsi2ssq	%rsi, %xmm0
	addss	%xmm0, %xmm0
	cvtsi2ssq	%rcx, %xmm1
	testq	%rcx, %rcx
	movss	%xmm1, -900(%rbp)       ## 4-byte Spill
	movss	%xmm0, -904(%rbp)       ## 4-byte Spill
	js	LBB17_40
## BB#39:
	movss	-900(%rbp), %xmm0       ## 4-byte Reload
                                        ## xmm0 = mem[0],zero,zero,zero
	movss	%xmm0, -904(%rbp)       ## 4-byte Spill
LBB17_40:
	movss	-904(%rbp), %xmm0       ## 4-byte Reload
                                        ## xmm0 = mem[0],zero,zero,zero
	movq	-808(%rbp), %rax
	movq	%rax, %rcx
	shrq	%rcx
	movq	%rax, %rdx
	andq	$1, %rdx
	orq	%rcx, %rdx
	cvtsi2ssq	%rdx, %xmm1
	addss	%xmm1, %xmm1
	cvtsi2ssq	%rax, %xmm2
	testq	%rax, %rax
	movss	%xmm0, -908(%rbp)       ## 4-byte Spill
	movss	%xmm2, -912(%rbp)       ## 4-byte Spill
	movss	%xmm1, -916(%rbp)       ## 4-byte Spill
	js	LBB17_42
## BB#41:
	movss	-912(%rbp), %xmm0       ## 4-byte Reload
                                        ## xmm0 = mem[0],zero,zero,zero
	movss	%xmm0, -916(%rbp)       ## 4-byte Spill
LBB17_42:
	movss	-916(%rbp), %xmm0       ## 4-byte Reload
                                        ## xmm0 = mem[0],zero,zero,zero
	movq	-872(%rbp), %rax        ## 8-byte Reload
	movq	%rax, -184(%rbp)
	movq	-184(%rbp), %rcx
	addq	$32, %rcx
	movq	%rcx, -176(%rbp)
	movq	-176(%rbp), %rcx
	movq	%rcx, -168(%rbp)
	movq	-168(%rbp), %rcx
	mulss	(%rcx), %xmm0
	movss	-908(%rbp), %xmm1       ## 4-byte Reload
                                        ## xmm1 = mem[0],zero,zero,zero
	ucomiss	%xmm0, %xmm1
	ja	LBB17_20
## BB#19:
	cmpq	$0, -808(%rbp)
	jne	LBB17_29
LBB17_20:
	xorl	%eax, %eax
	movb	%al, %cl
	movq	-808(%rbp), %rdx
	shlq	$1, %rdx
	movq	-808(%rbp), %rsi
	movq	%rsi, -192(%rbp)
	cmpq	$2, -192(%rbp)
	movq	%rdx, -928(%rbp)        ## 8-byte Spill
	movb	%cl, -929(%rbp)         ## 1-byte Spill
	jbe	LBB17_22
## BB#21:
	movq	-192(%rbp), %rax
	movq	-192(%rbp), %rcx
	subq	$1, %rcx
	andq	%rcx, %rax
	cmpq	$0, %rax
	setne	%dl
	xorb	$1, %dl
	movb	%dl, -929(%rbp)         ## 1-byte Spill
LBB17_22:                               ## %_ZNSt3__116__is_hash_power2Em.exit
	movb	-929(%rbp), %al         ## 1-byte Reload
	leaq	-336(%rbp), %rcx
	leaq	-848(%rbp), %rdx
	leaq	-840(%rbp), %rsi
	notb	%al
	movzbl	%al, %edi
	movl	%edi, %r8d
	andq	$1, %r8
	movq	-928(%rbp), %r9         ## 8-byte Reload
	addq	%r8, %r9
	movq	%r9, -840(%rbp)
	movq	-872(%rbp), %r8         ## 8-byte Reload
	movq	%r8, -216(%rbp)
	addq	$24, %r8
	movq	%r8, -208(%rbp)
	movq	%r8, -200(%rbp)
	movq	-872(%rbp), %r8         ## 8-byte Reload
	movq	24(%r8), %r9
	incq	%r9
	movq	%r9, %r10
	shrq	%r10
	movq	%r9, %r11
	andq	$1, %r11
	orq	%r10, %r11
	cvtsi2ssq	%r11, %xmm0
	addss	%xmm0, %xmm0
	cvtsi2ssq	%r9, %xmm1
	testq	%r9, %r9
	movq	%rsi, -944(%rbp)        ## 8-byte Spill
	movq	%rcx, -952(%rbp)        ## 8-byte Spill
	movq	%rdx, -960(%rbp)        ## 8-byte Spill
	movss	%xmm1, -964(%rbp)       ## 4-byte Spill
	movss	%xmm0, -968(%rbp)       ## 4-byte Spill
	js	LBB17_44
## BB#43:                               ## %_ZNSt3__116__is_hash_power2Em.exit
	movss	-964(%rbp), %xmm0       ## 4-byte Reload
                                        ## xmm0 = mem[0],zero,zero,zero
	movss	%xmm0, -968(%rbp)       ## 4-byte Spill
LBB17_44:                               ## %_ZNSt3__116__is_hash_power2Em.exit
	movss	-968(%rbp), %xmm0       ## 4-byte Reload
                                        ## xmm0 = mem[0],zero,zero,zero
	movq	-872(%rbp), %rax        ## 8-byte Reload
	movq	%rax, -240(%rbp)
	addq	$32, %rax
	movq	%rax, -232(%rbp)
	movq	%rax, -224(%rbp)
	movq	-872(%rbp), %rax        ## 8-byte Reload
	movss	32(%rax), %xmm1         ## xmm1 = mem[0],zero,zero,zero
	divss	%xmm1, %xmm0
	movss	%xmm0, -300(%rbp)
	callq	_ceilf
	movss	LCPI17_0(%rip), %xmm1   ## xmm1 = mem[0],zero,zero,zero
	movaps	%xmm0, %xmm2
	subss	%xmm1, %xmm2
	cvttss2si	%xmm2, %rax
	movabsq	$-9223372036854775808, %rcx ## imm = 0x8000000000000000
	xorq	%rcx, %rax
	cvttss2si	%xmm0, %rcx
	ucomiss	%xmm1, %xmm0
	cmovbq	%rcx, %rax
	movq	%rax, -848(%rbp)
	movq	-944(%rbp), %rax        ## 8-byte Reload
	movq	%rax, -360(%rbp)
	movq	-960(%rbp), %rcx        ## 8-byte Reload
	movq	%rcx, -368(%rbp)
	movq	-360(%rbp), %rdx
	movq	-368(%rbp), %rsi
	movq	%rdx, -344(%rbp)
	movq	%rsi, -352(%rbp)
	movq	-344(%rbp), %rdx
	movq	-352(%rbp), %rsi
	movq	-952(%rbp), %rdi        ## 8-byte Reload
	movq	%rdi, -312(%rbp)
	movq	%rdx, -320(%rbp)
	movq	%rsi, -328(%rbp)
	movq	-320(%rbp), %rdx
	movq	(%rdx), %rdx
	movq	-328(%rbp), %rsi
	cmpq	(%rsi), %rdx
	jae	LBB17_24
## BB#23:
	movq	-352(%rbp), %rax
	movq	%rax, -976(%rbp)        ## 8-byte Spill
	jmp	LBB17_25
LBB17_24:
	movq	-344(%rbp), %rax
	movq	%rax, -976(%rbp)        ## 8-byte Spill
LBB17_25:                               ## %_ZNSt3__13maxImEERKT_S3_S3_.exit
	movq	-976(%rbp), %rax        ## 8-byte Reload
	movq	(%rax), %rsi
	movq	-872(%rbp), %rdi        ## 8-byte Reload
	callq	__ZNSt3__112__hash_tableINS_17__hash_value_typeIiNS_12basic_stringIcNS_11char_traitsIcEENS_9allocatorIcEEEEEENS_22__unordered_map_hasherIiS8_NS_4hashIiEELb1EEENS_21__unordered_map_equalIiS8_NS_8equal_toIiEELb1EEENS5_IS8_EEE6rehashEm
	movq	-872(%rbp), %rax        ## 8-byte Reload
	movq	%rax, -464(%rbp)
	movq	-464(%rbp), %rsi
	movq	%rsi, -456(%rbp)
	movq	-456(%rbp), %rsi
	movq	%rsi, -448(%rbp)
	movq	-448(%rbp), %rsi
	movq	%rsi, -440(%rbp)
	movq	-440(%rbp), %rsi
	addq	$8, %rsi
	movq	%rsi, -432(%rbp)
	movq	-432(%rbp), %rsi
	movq	%rsi, -424(%rbp)
	movq	-424(%rbp), %rsi
	movq	%rsi, -416(%rbp)
	movq	-416(%rbp), %rsi
	movq	(%rsi), %rsi
	movq	%rsi, -808(%rbp)
	movq	-800(%rbp), %rsi
	movq	8(%rsi), %rsi
	movq	-808(%rbp), %rdi
	movq	%rsi, -472(%rbp)
	movq	%rdi, -480(%rbp)
	movq	-480(%rbp), %rsi
	movq	-480(%rbp), %rdi
	subq	$1, %rdi
	andq	%rdi, %rsi
	cmpq	$0, %rsi
	jne	LBB17_27
## BB#26:
	movq	-472(%rbp), %rax
	movq	-480(%rbp), %rcx
	subq	$1, %rcx
	andq	%rcx, %rax
	movq	%rax, -984(%rbp)        ## 8-byte Spill
	jmp	LBB17_28
LBB17_27:
	movq	-472(%rbp), %rax
	xorl	%ecx, %ecx
	movl	%ecx, %edx
	divq	-480(%rbp)
	movq	%rdx, -984(%rbp)        ## 8-byte Spill
LBB17_28:                               ## %_ZNSt3__116__constrain_hashEmm.exit1
	movq	-984(%rbp), %rax        ## 8-byte Reload
	movq	%rax, -832(%rbp)
LBB17_29:
	movq	-832(%rbp), %rax
	movq	-872(%rbp), %rcx        ## 8-byte Reload
	movq	%rcx, -504(%rbp)
	movq	%rax, -512(%rbp)
	movq	-504(%rbp), %rax
	movq	-512(%rbp), %rdx
	movq	%rax, -496(%rbp)
	movq	-496(%rbp), %rax
	movq	%rax, -488(%rbp)
	movq	-488(%rbp), %rax
	movq	(%rax), %rax
	movq	(%rax,%rdx,8), %rax
	movq	%rax, -856(%rbp)
	cmpq	$0, -856(%rbp)
	jne	LBB17_36
## BB#30:
	movq	-872(%rbp), %rax        ## 8-byte Reload
	addq	$16, %rax
	movq	%rax, -528(%rbp)
	movq	-528(%rbp), %rax
	movq	%rax, -520(%rbp)
	movq	-520(%rbp), %rax
	movq	%rax, -544(%rbp)
	movq	-544(%rbp), %rax
	movq	%rax, -536(%rbp)
	movq	-536(%rbp), %rax
	movq	%rax, -856(%rbp)
	movq	-856(%rbp), %rax
	movq	(%rax), %rax
	movq	-800(%rbp), %rcx
	movq	%rax, (%rcx)
	movq	-800(%rbp), %rax
	movq	-856(%rbp), %rcx
	movq	%rax, (%rcx)
	movq	-856(%rbp), %rax
	movq	-832(%rbp), %rcx
	movq	-872(%rbp), %rdx        ## 8-byte Reload
	movq	%rdx, -568(%rbp)
	movq	%rcx, -576(%rbp)
	movq	-568(%rbp), %rcx
	movq	-576(%rbp), %rsi
	movq	%rcx, -560(%rbp)
	movq	-560(%rbp), %rcx
	movq	%rcx, -552(%rbp)
	movq	-552(%rbp), %rcx
	movq	(%rcx), %rcx
	movq	%rax, (%rcx,%rsi,8)
	movq	-800(%rbp), %rax
	cmpq	$0, (%rax)
	je	LBB17_35
## BB#31:
	movq	-800(%rbp), %rax
	movq	-800(%rbp), %rcx
	movq	(%rcx), %rcx
	movq	8(%rcx), %rcx
	movq	-808(%rbp), %rdx
	movq	%rcx, -584(%rbp)
	movq	%rdx, -592(%rbp)
	movq	-592(%rbp), %rcx
	movq	-592(%rbp), %rdx
	subq	$1, %rdx
	andq	%rdx, %rcx
	cmpq	$0, %rcx
	movq	%rax, -992(%rbp)        ## 8-byte Spill
	jne	LBB17_33
## BB#32:
	movq	-584(%rbp), %rax
	movq	-592(%rbp), %rcx
	subq	$1, %rcx
	andq	%rcx, %rax
	movq	%rax, -1000(%rbp)       ## 8-byte Spill
	jmp	LBB17_34
LBB17_33:
	movq	-584(%rbp), %rax
	xorl	%ecx, %ecx
	movl	%ecx, %edx
	divq	-592(%rbp)
	movq	%rdx, -1000(%rbp)       ## 8-byte Spill
LBB17_34:                               ## %_ZNSt3__116__constrain_hashEmm.exit
	movq	-1000(%rbp), %rax       ## 8-byte Reload
	movq	-872(%rbp), %rcx        ## 8-byte Reload
	movq	%rcx, -616(%rbp)
	movq	%rax, -624(%rbp)
	movq	-616(%rbp), %rax
	movq	-624(%rbp), %rdx
	movq	%rax, -608(%rbp)
	movq	-608(%rbp), %rax
	movq	%rax, -600(%rbp)
	movq	-600(%rbp), %rax
	movq	(%rax), %rax
	movq	-992(%rbp), %rsi        ## 8-byte Reload
	movq	%rsi, (%rax,%rdx,8)
LBB17_35:
	jmp	LBB17_37
LBB17_36:
	movq	-856(%rbp), %rax
	movq	(%rax), %rax
	movq	-800(%rbp), %rcx
	movq	%rax, (%rcx)
	movq	-800(%rbp), %rax
	movq	-856(%rbp), %rcx
	movq	%rax, (%rcx)
LBB17_37:
	movq	-800(%rbp), %rax
	movq	%rax, -824(%rbp)
	movq	-872(%rbp), %rax        ## 8-byte Reload
	movq	%rax, -648(%rbp)
	movq	-648(%rbp), %rcx
	addq	$24, %rcx
	movq	%rcx, -640(%rbp)
	movq	-640(%rbp), %rcx
	movq	%rcx, -632(%rbp)
	movq	-632(%rbp), %rcx
	movq	(%rcx), %rdx
	addq	$1, %rdx
	movq	%rdx, (%rcx)
	movb	$1, -809(%rbp)
LBB17_38:
	movq	-824(%rbp), %rax
	leaq	-864(%rbp), %rcx
	movq	%rcx, -672(%rbp)
	movq	%rax, -680(%rbp)
	movq	-672(%rbp), %rdx
	movq	%rdx, -656(%rbp)
	movq	%rax, -664(%rbp)
	movq	-656(%rbp), %rdx
	movq	%rax, (%rdx)
	leaq	-784(%rbp), %rax
	movq	%rax, -728(%rbp)
	movq	%rcx, -736(%rbp)
	leaq	-809(%rbp), %rax
	movq	%rax, -744(%rbp)
	movq	-728(%rbp), %rcx
	movq	-736(%rbp), %rdx
	movq	%rcx, -704(%rbp)
	movq	%rdx, -712(%rbp)
	movq	%rax, -720(%rbp)
	movq	-704(%rbp), %rax
	movq	-712(%rbp), %rcx
	movq	%rcx, -696(%rbp)
	movq	(%rcx), %rcx
	movq	%rcx, (%rax)
	movq	-720(%rbp), %rcx
	movq	%rcx, -688(%rbp)
	movb	(%rcx), %sil
	andb	$1, %sil
	movb	%sil, 8(%rax)
	movq	-784(%rbp), %rax
	movb	-776(%rbp), %dl
	addq	$1008, %rsp             ## imm = 0x3F0
	popq	%rbp
	retq
	.cfi_endproc

	.globl	__ZNSt3__111char_traitsIcE6lengthEPKc
	.weak_def_can_be_hidden	__ZNSt3__111char_traitsIcE6lengthEPKc
	.align	4, 0x90
__ZNSt3__111char_traitsIcE6lengthEPKc:  ## @_ZNSt3__111char_traitsIcE6lengthEPKc
	.cfi_startproc
## BB#0:
	pushq	%rbp
Ltmp133:
	.cfi_def_cfa_offset 16
Ltmp134:
	.cfi_offset %rbp, -16
	movq	%rsp, %rbp
Ltmp135:
	.cfi_def_cfa_register %rbp
	subq	$16, %rsp
	movq	%rdi, -8(%rbp)
	movq	-8(%rbp), %rdi
	callq	_strlen
	addq	$16, %rsp
	popq	%rbp
	retq
	.cfi_endproc

	.section	__TEXT,__literal4,4byte_literals
	.align	2
LCPI19_0:
	.long	1593835520              ## float 9.22337203E+18
	.section	__TEXT,__textcoal_nt,coalesced,pure_instructions
	.globl	__ZNSt3__112__hash_tableINS_17__hash_value_typeIiNS_12basic_stringIcNS_11char_traitsIcEENS_9allocatorIcEEEEEENS_22__unordered_map_hasherIiS8_NS_4hashIiEELb1EEENS_21__unordered_map_equalIiS8_NS_8equal_toIiEELb1EEENS5_IS8_EEE6rehashEm
	.weak_def_can_be_hidden	__ZNSt3__112__hash_tableINS_17__hash_value_typeIiNS_12basic_stringIcNS_11char_traitsIcEENS_9allocatorIcEEEEEENS_22__unordered_map_hasherIiS8_NS_4hashIiEELb1EEENS_21__unordered_map_equalIiS8_NS_8equal_toIiEELb1EEENS5_IS8_EEE6rehashEm
	.align	4, 0x90
__ZNSt3__112__hash_tableINS_17__hash_value_typeIiNS_12basic_stringIcNS_11char_traitsIcEENS_9allocatorIcEEEEEENS_22__unordered_map_hasherIiS8_NS_4hashIiEELb1EEENS_21__unordered_map_equalIiS8_NS_8equal_toIiEELb1EEENS5_IS8_EEE6rehashEm: ## @_ZNSt3__112__hash_tableINS_17__hash_value_typeIiNS_12basic_stringIcNS_11char_traitsIcEENS_9allocatorIcEEEEEENS_22__unordered_map_hasherIiS8_NS_4hashIiEELb1EEENS_21__unordered_map_equalIiS8_NS_8equal_toIiEELb1EEENS5_IS8_EEE6rehashEm
	.cfi_startproc
## BB#0:
	pushq	%rbp
Ltmp136:
	.cfi_def_cfa_offset 16
Ltmp137:
	.cfi_offset %rbp, -16
	movq	%rsp, %rbp
Ltmp138:
	.cfi_def_cfa_register %rbp
	subq	$368, %rsp              ## imm = 0x170
	movq	%rdi, -272(%rbp)
	movq	%rsi, -280(%rbp)
	movq	-272(%rbp), %rsi
	cmpq	$1, -280(%rbp)
	movq	%rsi, -304(%rbp)        ## 8-byte Spill
	jne	LBB19_2
## BB#1:
	movq	$2, -280(%rbp)
	jmp	LBB19_5
LBB19_2:
	movq	-280(%rbp), %rax
	movq	-280(%rbp), %rcx
	subq	$1, %rcx
	andq	%rcx, %rax
	cmpq	$0, %rax
	je	LBB19_4
## BB#3:
	movq	-280(%rbp), %rdi
	callq	__ZNSt3__112__next_primeEm
	movq	%rax, -280(%rbp)
LBB19_4:
	jmp	LBB19_5
LBB19_5:
	movq	-304(%rbp), %rax        ## 8-byte Reload
	movq	%rax, -264(%rbp)
	movq	-264(%rbp), %rcx
	movq	%rcx, -256(%rbp)
	movq	-256(%rbp), %rcx
	movq	%rcx, -248(%rbp)
	movq	-248(%rbp), %rcx
	movq	%rcx, -240(%rbp)
	movq	-240(%rbp), %rcx
	addq	$8, %rcx
	movq	%rcx, -232(%rbp)
	movq	-232(%rbp), %rcx
	movq	%rcx, -224(%rbp)
	movq	-224(%rbp), %rcx
	movq	%rcx, -216(%rbp)
	movq	-216(%rbp), %rcx
	movq	(%rcx), %rcx
	movq	%rcx, -288(%rbp)
	movq	-280(%rbp), %rcx
	cmpq	-288(%rbp), %rcx
	jbe	LBB19_7
## BB#6:
	movq	-280(%rbp), %rsi
	movq	-304(%rbp), %rdi        ## 8-byte Reload
	callq	__ZNSt3__112__hash_tableINS_17__hash_value_typeIiNS_12basic_stringIcNS_11char_traitsIcEENS_9allocatorIcEEEEEENS_22__unordered_map_hasherIiS8_NS_4hashIiEELb1EEENS_21__unordered_map_equalIiS8_NS_8equal_toIiEELb1EEENS5_IS8_EEE8__rehashEm
	jmp	LBB19_20
LBB19_7:
	movq	-280(%rbp), %rax
	cmpq	-288(%rbp), %rax
	jae	LBB19_19
## BB#8:
	xorl	%eax, %eax
	movb	%al, %cl
	movq	-288(%rbp), %rdx
	movq	%rdx, -208(%rbp)
	cmpq	$2, -208(%rbp)
	movb	%cl, -305(%rbp)         ## 1-byte Spill
	jbe	LBB19_10
## BB#9:
	movq	-208(%rbp), %rax
	movq	-208(%rbp), %rcx
	subq	$1, %rcx
	andq	%rcx, %rax
	cmpq	$0, %rax
	setne	%dl
	xorb	$1, %dl
	movb	%dl, -305(%rbp)         ## 1-byte Spill
LBB19_10:                               ## %_ZNSt3__116__is_hash_power2Em.exit
	movb	-305(%rbp), %al         ## 1-byte Reload
	testb	$1, %al
	jne	LBB19_11
	jmp	LBB19_12
LBB19_11:
	movl	$1, %eax
	movl	%eax, %ecx
	movl	$64, %eax
	movl	%eax, %edx
	movq	-304(%rbp), %rsi        ## 8-byte Reload
	movq	%rsi, -120(%rbp)
	addq	$24, %rsi
	movq	%rsi, -112(%rbp)
	movq	%rsi, -104(%rbp)
	movq	-304(%rbp), %rsi        ## 8-byte Reload
	movq	24(%rsi), %rdi
	movq	%rdi, %r8
	shrq	%r8
	movq	%rdi, %r9
	andq	$1, %r9
	orq	%r8, %r9
	cvtsi2ssq	%r9, %xmm0
	addss	%xmm0, %xmm0
	cvtsi2ssq	%rdi, %xmm1
	testq	%rdi, %rdi
	movq	%rcx, -320(%rbp)        ## 8-byte Spill
	movq	%rdx, -328(%rbp)        ## 8-byte Spill
	movss	%xmm1, -332(%rbp)       ## 4-byte Spill
	movss	%xmm0, -336(%rbp)       ## 4-byte Spill
	js	LBB19_22
## BB#21:
	movss	-332(%rbp), %xmm0       ## 4-byte Reload
                                        ## xmm0 = mem[0],zero,zero,zero
	movss	%xmm0, -336(%rbp)       ## 4-byte Spill
LBB19_22:
	movss	-336(%rbp), %xmm0       ## 4-byte Reload
                                        ## xmm0 = mem[0],zero,zero,zero
	movq	-304(%rbp), %rax        ## 8-byte Reload
	movq	%rax, -24(%rbp)
	addq	$32, %rax
	movq	%rax, -16(%rbp)
	movq	%rax, -8(%rbp)
	movq	-304(%rbp), %rax        ## 8-byte Reload
	movss	32(%rax), %xmm1         ## xmm1 = mem[0],zero,zero,zero
	divss	%xmm1, %xmm0
	movss	%xmm0, -28(%rbp)
	callq	_ceilf
	movss	LCPI19_0(%rip), %xmm1   ## xmm1 = mem[0],zero,zero,zero
	movaps	%xmm0, %xmm2
	subss	%xmm1, %xmm2
	cvttss2si	%xmm2, %rax
	movabsq	$-9223372036854775808, %rcx ## imm = 0x8000000000000000
	xorq	%rcx, %rax
	cvttss2si	%xmm0, %rcx
	ucomiss	%xmm1, %xmm0
	cmovbq	%rcx, %rax
	movq	%rax, -48(%rbp)
	movq	-48(%rbp), %rax
	subq	$1, %rax
	movq	%rax, -40(%rbp)
	movq	-40(%rbp), %rax
	bsrq	%rax, %rax
	xorq	$63, %rax
	movl	%eax, %edx
	movslq	%edx, %rax
	movq	-328(%rbp), %rcx        ## 8-byte Reload
	subq	%rax, %rcx
                                        ## kill: CL<def> RCX<kill>
	movq	-320(%rbp), %rax        ## 8-byte Reload
	shlq	%cl, %rax
	movq	%rax, -344(%rbp)        ## 8-byte Spill
	jmp	LBB19_13
LBB19_12:
	movq	-304(%rbp), %rax        ## 8-byte Reload
	movq	%rax, -72(%rbp)
	addq	$24, %rax
	movq	%rax, -64(%rbp)
	movq	%rax, -56(%rbp)
	movq	-304(%rbp), %rax        ## 8-byte Reload
	movq	24(%rax), %rcx
	movq	%rcx, %rdx
	shrq	%rdx
	movq	%rcx, %rsi
	andq	$1, %rsi
	orq	%rdx, %rsi
	cvtsi2ssq	%rsi, %xmm0
	addss	%xmm0, %xmm0
	cvtsi2ssq	%rcx, %xmm1
	testq	%rcx, %rcx
	movss	%xmm1, -348(%rbp)       ## 4-byte Spill
	movss	%xmm0, -352(%rbp)       ## 4-byte Spill
	js	LBB19_24
## BB#23:
	movss	-348(%rbp), %xmm0       ## 4-byte Reload
                                        ## xmm0 = mem[0],zero,zero,zero
	movss	%xmm0, -352(%rbp)       ## 4-byte Spill
LBB19_24:
	movss	-352(%rbp), %xmm0       ## 4-byte Reload
                                        ## xmm0 = mem[0],zero,zero,zero
	movq	-304(%rbp), %rax        ## 8-byte Reload
	movq	%rax, -96(%rbp)
	addq	$32, %rax
	movq	%rax, -88(%rbp)
	movq	%rax, -80(%rbp)
	movq	-304(%rbp), %rax        ## 8-byte Reload
	movss	32(%rax), %xmm1         ## xmm1 = mem[0],zero,zero,zero
	divss	%xmm1, %xmm0
	movss	%xmm0, -124(%rbp)
	callq	_ceilf
	movss	LCPI19_0(%rip), %xmm1   ## xmm1 = mem[0],zero,zero,zero
	movaps	%xmm0, %xmm2
	subss	%xmm1, %xmm2
	cvttss2si	%xmm2, %rax
	movabsq	$-9223372036854775808, %rcx ## imm = 0x8000000000000000
	xorq	%rcx, %rax
	cvttss2si	%xmm0, %rcx
	ucomiss	%xmm1, %xmm0
	cmovbq	%rcx, %rax
	movq	%rax, %rdi
	callq	__ZNSt3__112__next_primeEm
	movq	%rax, -344(%rbp)        ## 8-byte Spill
LBB19_13:
	movq	-344(%rbp), %rax        ## 8-byte Reload
	leaq	-160(%rbp), %rcx
	leaq	-296(%rbp), %rdx
	leaq	-280(%rbp), %rsi
	movq	%rax, -296(%rbp)
	movq	%rsi, -184(%rbp)
	movq	%rdx, -192(%rbp)
	movq	-184(%rbp), %rax
	movq	-192(%rbp), %rdx
	movq	%rax, -168(%rbp)
	movq	%rdx, -176(%rbp)
	movq	-168(%rbp), %rax
	movq	-176(%rbp), %rdx
	movq	%rcx, -136(%rbp)
	movq	%rax, -144(%rbp)
	movq	%rdx, -152(%rbp)
	movq	-144(%rbp), %rax
	movq	(%rax), %rax
	movq	-152(%rbp), %rcx
	cmpq	(%rcx), %rax
	jae	LBB19_15
## BB#14:
	movq	-176(%rbp), %rax
	movq	%rax, -360(%rbp)        ## 8-byte Spill
	jmp	LBB19_16
LBB19_15:
	movq	-168(%rbp), %rax
	movq	%rax, -360(%rbp)        ## 8-byte Spill
LBB19_16:                               ## %_ZNSt3__13maxImEERKT_S3_S3_.exit
	movq	-360(%rbp), %rax        ## 8-byte Reload
	movq	(%rax), %rax
	movq	%rax, -280(%rbp)
	movq	-280(%rbp), %rax
	cmpq	-288(%rbp), %rax
	jae	LBB19_18
## BB#17:
	movq	-280(%rbp), %rsi
	movq	-304(%rbp), %rdi        ## 8-byte Reload
	callq	__ZNSt3__112__hash_tableINS_17__hash_value_typeIiNS_12basic_stringIcNS_11char_traitsIcEENS_9allocatorIcEEEEEENS_22__unordered_map_hasherIiS8_NS_4hashIiEELb1EEENS_21__unordered_map_equalIiS8_NS_8equal_toIiEELb1EEENS5_IS8_EEE8__rehashEm
LBB19_18:
	jmp	LBB19_19
LBB19_19:
	jmp	LBB19_20
LBB19_20:
	addq	$368, %rsp              ## imm = 0x170
	popq	%rbp
	retq
	.cfi_endproc

	.globl	__ZNSt3__112__hash_tableINS_17__hash_value_typeIiNS_12basic_stringIcNS_11char_traitsIcEENS_9allocatorIcEEEEEENS_22__unordered_map_hasherIiS8_NS_4hashIiEELb1EEENS_21__unordered_map_equalIiS8_NS_8equal_toIiEELb1EEENS5_IS8_EEE8__rehashEm
	.weak_def_can_be_hidden	__ZNSt3__112__hash_tableINS_17__hash_value_typeIiNS_12basic_stringIcNS_11char_traitsIcEENS_9allocatorIcEEEEEENS_22__unordered_map_hasherIiS8_NS_4hashIiEELb1EEENS_21__unordered_map_equalIiS8_NS_8equal_toIiEELb1EEENS5_IS8_EEE8__rehashEm
	.align	4, 0x90
__ZNSt3__112__hash_tableINS_17__hash_value_typeIiNS_12basic_stringIcNS_11char_traitsIcEENS_9allocatorIcEEEEEENS_22__unordered_map_hasherIiS8_NS_4hashIiEELb1EEENS_21__unordered_map_equalIiS8_NS_8equal_toIiEELb1EEENS5_IS8_EEE8__rehashEm: ## @_ZNSt3__112__hash_tableINS_17__hash_value_typeIiNS_12basic_stringIcNS_11char_traitsIcEENS_9allocatorIcEEEEEENS_22__unordered_map_hasherIiS8_NS_4hashIiEELb1EEENS_21__unordered_map_equalIiS8_NS_8equal_toIiEELb1EEENS5_IS8_EEE8__rehashEm
	.cfi_startproc
## BB#0:
	pushq	%rbp
Ltmp139:
	.cfi_def_cfa_offset 16
Ltmp140:
	.cfi_offset %rbp, -16
	movq	%rsp, %rbp
Ltmp141:
	.cfi_def_cfa_register %rbp
	subq	$784, %rsp              ## imm = 0x310
	movq	%rdi, -672(%rbp)
	movq	%rsi, -680(%rbp)
	movq	-672(%rbp), %rsi
	movq	%rsi, -664(%rbp)
	movq	-664(%rbp), %rdi
	movq	%rdi, -656(%rbp)
	movq	-656(%rbp), %rdi
	movq	%rdi, -648(%rbp)
	movq	-648(%rbp), %rdi
	addq	$8, %rdi
	movq	%rdi, -72(%rbp)
	movq	-72(%rbp), %rdi
	movq	%rdi, -64(%rbp)
	movq	-64(%rbp), %rdi
	movq	%rdi, -56(%rbp)
	movq	-56(%rbp), %rdi
	movq	%rdi, -688(%rbp)
	cmpq	$0, -680(%rbp)
	movq	%rsi, -744(%rbp)        ## 8-byte Spill
	jbe	LBB20_2
## BB#1:
	movq	-688(%rbp), %rax
	movq	-680(%rbp), %rcx
	movq	%rax, -40(%rbp)
	movq	%rcx, -48(%rbp)
	movq	-40(%rbp), %rax
	movq	-48(%rbp), %rcx
	movq	%rax, -16(%rbp)
	movq	%rcx, -24(%rbp)
	movq	$0, -32(%rbp)
	movq	-24(%rbp), %rax
	shlq	$3, %rax
	movq	%rax, -8(%rbp)
	movq	-8(%rbp), %rdi
	callq	__Znwm
	movq	%rax, -752(%rbp)        ## 8-byte Spill
	jmp	LBB20_3
LBB20_2:
	xorl	%eax, %eax
	movl	%eax, %ecx
	movq	%rcx, -752(%rbp)        ## 8-byte Spill
	jmp	LBB20_3
LBB20_3:
	movq	-752(%rbp), %rax        ## 8-byte Reload
	movq	-744(%rbp), %rcx        ## 8-byte Reload
	movq	%rcx, -248(%rbp)
	movq	%rax, -256(%rbp)
	movq	-248(%rbp), %rax
	movq	%rax, -240(%rbp)
	movq	-240(%rbp), %rdx
	movq	%rdx, -232(%rbp)
	movq	-232(%rbp), %rdx
	movq	(%rdx), %rdx
	movq	%rdx, -264(%rbp)
	movq	-256(%rbp), %rdx
	movq	%rax, -104(%rbp)
	movq	-104(%rbp), %rsi
	movq	%rsi, -96(%rbp)
	movq	-96(%rbp), %rsi
	movq	%rdx, (%rsi)
	cmpq	$0, -264(%rbp)
	movq	%rax, -760(%rbp)        ## 8-byte Spill
	je	LBB20_5
## BB#4:
	movq	-760(%rbp), %rax        ## 8-byte Reload
	movq	%rax, -88(%rbp)
	movq	-88(%rbp), %rcx
	movq	%rcx, -80(%rbp)
	movq	-80(%rbp), %rcx
	addq	$8, %rcx
	movq	-264(%rbp), %rdx
	movq	%rcx, -216(%rbp)
	movq	%rdx, -224(%rbp)
	movq	-216(%rbp), %rcx
	movq	%rcx, -208(%rbp)
	movq	-208(%rbp), %rdx
	movq	%rdx, -200(%rbp)
	movq	-200(%rbp), %rdx
	movq	%rdx, -192(%rbp)
	movq	-192(%rbp), %rdx
	movq	-224(%rbp), %rsi
	movq	%rcx, -128(%rbp)
	movq	-128(%rbp), %rcx
	movq	%rcx, -120(%rbp)
	movq	-120(%rbp), %rcx
	movq	%rcx, -112(%rbp)
	movq	-112(%rbp), %rcx
	movq	(%rcx), %rcx
	movq	%rdx, -168(%rbp)
	movq	%rsi, -176(%rbp)
	movq	%rcx, -184(%rbp)
	movq	-168(%rbp), %rcx
	movq	-176(%rbp), %rdx
	movq	-184(%rbp), %rsi
	movq	%rcx, -144(%rbp)
	movq	%rdx, -152(%rbp)
	movq	%rsi, -160(%rbp)
	movq	-152(%rbp), %rcx
	movq	%rcx, -136(%rbp)
	movq	-136(%rbp), %rdi
	callq	__ZdlPv
LBB20_5:                                ## %_ZNSt3__110unique_ptrIA_PNS_11__hash_nodeINS_17__hash_value_typeIiNS_12basic_stringIcNS_11char_traitsIcEENS_9allocatorIcEEEEEEPvEENS_25__bucket_list_deallocatorINS6_ISC_EEEEE5resetIPSC_EENS_9enable_ifIXsr27__same_or_less_cv_qualifiedIT_SJ_EE5valueEvE4typeESL_.exit
	movq	-680(%rbp), %rax
	movq	-744(%rbp), %rcx        ## 8-byte Reload
	movq	%rcx, -288(%rbp)
	movq	-288(%rbp), %rdx
	movq	%rdx, -280(%rbp)
	movq	-280(%rbp), %rdx
	movq	%rdx, -272(%rbp)
	movq	-272(%rbp), %rdx
	addq	$8, %rdx
	movq	%rdx, -312(%rbp)
	movq	-312(%rbp), %rdx
	movq	%rdx, -304(%rbp)
	movq	-304(%rbp), %rdx
	movq	%rdx, -296(%rbp)
	movq	-296(%rbp), %rdx
	movq	%rax, (%rdx)
	cmpq	$0, -680(%rbp)
	jbe	LBB20_35
## BB#6:
	movq	$0, -696(%rbp)
LBB20_7:                                ## =>This Inner Loop Header: Depth=1
	movq	-696(%rbp), %rax
	cmpq	-680(%rbp), %rax
	jae	LBB20_10
## BB#8:                                ##   in Loop: Header=BB20_7 Depth=1
	movq	-696(%rbp), %rax
	movq	-744(%rbp), %rcx        ## 8-byte Reload
	movq	%rcx, -336(%rbp)
	movq	%rax, -344(%rbp)
	movq	-336(%rbp), %rax
	movq	-344(%rbp), %rdx
	movq	%rax, -328(%rbp)
	movq	-328(%rbp), %rax
	movq	%rax, -320(%rbp)
	movq	-320(%rbp), %rax
	movq	(%rax), %rax
	movq	$0, (%rax,%rdx,8)
## BB#9:                                ##   in Loop: Header=BB20_7 Depth=1
	movq	-696(%rbp), %rax
	addq	$1, %rax
	movq	%rax, -696(%rbp)
	jmp	LBB20_7
LBB20_10:
	movq	-744(%rbp), %rax        ## 8-byte Reload
	addq	$16, %rax
	movq	%rax, -360(%rbp)
	movq	-360(%rbp), %rax
	movq	%rax, -352(%rbp)
	movq	-352(%rbp), %rax
	movq	%rax, -376(%rbp)
	movq	-376(%rbp), %rax
	movq	%rax, -368(%rbp)
	movq	-368(%rbp), %rax
	movq	%rax, -704(%rbp)
	movq	-704(%rbp), %rax
	movq	(%rax), %rax
	movq	%rax, -712(%rbp)
	cmpq	$0, -712(%rbp)
	je	LBB20_34
## BB#11:
	movq	-712(%rbp), %rax
	movq	8(%rax), %rax
	movq	-680(%rbp), %rcx
	movq	%rax, -384(%rbp)
	movq	%rcx, -392(%rbp)
	movq	-392(%rbp), %rax
	movq	-392(%rbp), %rcx
	subq	$1, %rcx
	andq	%rcx, %rax
	cmpq	$0, %rax
	jne	LBB20_13
## BB#12:
	movq	-384(%rbp), %rax
	movq	-392(%rbp), %rcx
	subq	$1, %rcx
	andq	%rcx, %rax
	movq	%rax, -768(%rbp)        ## 8-byte Spill
	jmp	LBB20_14
LBB20_13:
	movq	-384(%rbp), %rax
	xorl	%ecx, %ecx
	movl	%ecx, %edx
	divq	-392(%rbp)
	movq	%rdx, -768(%rbp)        ## 8-byte Spill
LBB20_14:                               ## %_ZNSt3__116__constrain_hashEmm.exit1
	movq	-768(%rbp), %rax        ## 8-byte Reload
	movq	%rax, -720(%rbp)
	movq	-704(%rbp), %rax
	movq	-720(%rbp), %rcx
	movq	-744(%rbp), %rdx        ## 8-byte Reload
	movq	%rdx, -416(%rbp)
	movq	%rcx, -424(%rbp)
	movq	-416(%rbp), %rcx
	movq	-424(%rbp), %rsi
	movq	%rcx, -408(%rbp)
	movq	-408(%rbp), %rcx
	movq	%rcx, -400(%rbp)
	movq	-400(%rbp), %rcx
	movq	(%rcx), %rcx
	movq	%rax, (%rcx,%rsi,8)
	movq	-720(%rbp), %rax
	movq	%rax, -728(%rbp)
	movq	-712(%rbp), %rax
	movq	%rax, -704(%rbp)
	movq	-712(%rbp), %rax
	movq	(%rax), %rax
	movq	%rax, -712(%rbp)
LBB20_15:                               ## =>This Loop Header: Depth=1
                                        ##     Child Loop BB20_24 Depth 2
	cmpq	$0, -712(%rbp)
	je	LBB20_33
## BB#16:                               ##   in Loop: Header=BB20_15 Depth=1
	movq	-712(%rbp), %rax
	movq	8(%rax), %rax
	movq	-680(%rbp), %rcx
	movq	%rax, -432(%rbp)
	movq	%rcx, -440(%rbp)
	movq	-440(%rbp), %rax
	movq	-440(%rbp), %rcx
	subq	$1, %rcx
	andq	%rcx, %rax
	cmpq	$0, %rax
	jne	LBB20_18
## BB#17:                               ##   in Loop: Header=BB20_15 Depth=1
	movq	-432(%rbp), %rax
	movq	-440(%rbp), %rcx
	subq	$1, %rcx
	andq	%rcx, %rax
	movq	%rax, -776(%rbp)        ## 8-byte Spill
	jmp	LBB20_19
LBB20_18:                               ##   in Loop: Header=BB20_15 Depth=1
	movq	-432(%rbp), %rax
	xorl	%ecx, %ecx
	movl	%ecx, %edx
	divq	-440(%rbp)
	movq	%rdx, -776(%rbp)        ## 8-byte Spill
LBB20_19:                               ## %_ZNSt3__116__constrain_hashEmm.exit
                                        ##   in Loop: Header=BB20_15 Depth=1
	movq	-776(%rbp), %rax        ## 8-byte Reload
	movq	%rax, -720(%rbp)
	movq	-720(%rbp), %rax
	cmpq	-728(%rbp), %rax
	jne	LBB20_21
## BB#20:                               ##   in Loop: Header=BB20_15 Depth=1
	movq	-712(%rbp), %rax
	movq	%rax, -704(%rbp)
	jmp	LBB20_31
LBB20_21:                               ##   in Loop: Header=BB20_15 Depth=1
	movq	-720(%rbp), %rax
	movq	-744(%rbp), %rcx        ## 8-byte Reload
	movq	%rcx, -464(%rbp)
	movq	%rax, -472(%rbp)
	movq	-464(%rbp), %rax
	movq	-472(%rbp), %rdx
	movq	%rax, -456(%rbp)
	movq	-456(%rbp), %rax
	movq	%rax, -448(%rbp)
	movq	-448(%rbp), %rax
	movq	(%rax), %rax
	cmpq	$0, (%rax,%rdx,8)
	jne	LBB20_23
## BB#22:                               ##   in Loop: Header=BB20_15 Depth=1
	movq	-704(%rbp), %rax
	movq	-720(%rbp), %rcx
	movq	-744(%rbp), %rdx        ## 8-byte Reload
	movq	%rdx, -496(%rbp)
	movq	%rcx, -504(%rbp)
	movq	-496(%rbp), %rcx
	movq	-504(%rbp), %rsi
	movq	%rcx, -488(%rbp)
	movq	-488(%rbp), %rcx
	movq	%rcx, -480(%rbp)
	movq	-480(%rbp), %rcx
	movq	(%rcx), %rcx
	movq	%rax, (%rcx,%rsi,8)
	movq	-712(%rbp), %rax
	movq	%rax, -704(%rbp)
	movq	-720(%rbp), %rax
	movq	%rax, -728(%rbp)
	jmp	LBB20_30
LBB20_23:                               ##   in Loop: Header=BB20_15 Depth=1
	movq	-712(%rbp), %rax
	movq	%rax, -736(%rbp)
LBB20_24:                               ##   Parent Loop BB20_15 Depth=1
                                        ## =>  This Inner Loop Header: Depth=2
	xorl	%eax, %eax
	movb	%al, %cl
	movq	-736(%rbp), %rdx
	cmpq	$0, (%rdx)
	movb	%cl, -777(%rbp)         ## 1-byte Spill
	je	LBB20_26
## BB#25:                               ##   in Loop: Header=BB20_24 Depth=2
	movq	-744(%rbp), %rax        ## 8-byte Reload
	movq	%rax, -528(%rbp)
	movq	-528(%rbp), %rcx
	addq	$32, %rcx
	movq	%rcx, -520(%rbp)
	movq	-520(%rbp), %rcx
	movq	%rcx, -512(%rbp)
	movq	-512(%rbp), %rcx
	movq	-712(%rbp), %rdx
	addq	$16, %rdx
	movq	-736(%rbp), %rsi
	movq	(%rsi), %rsi
	addq	$16, %rsi
	movq	%rcx, -560(%rbp)
	movq	%rdx, -568(%rbp)
	movq	%rsi, -576(%rbp)
	movq	-560(%rbp), %rcx
	movq	-568(%rbp), %rdx
	movq	-576(%rbp), %rsi
	movq	%rcx, -536(%rbp)
	movq	%rdx, -544(%rbp)
	movq	%rsi, -552(%rbp)
	movq	-544(%rbp), %rcx
	movl	(%rcx), %edi
	movq	-552(%rbp), %rcx
	cmpl	(%rcx), %edi
	sete	%r8b
	movb	%r8b, -777(%rbp)        ## 1-byte Spill
LBB20_26:                               ##   in Loop: Header=BB20_24 Depth=2
	movb	-777(%rbp), %al         ## 1-byte Reload
	testb	$1, %al
	jne	LBB20_27
	jmp	LBB20_29
LBB20_27:                               ##   in Loop: Header=BB20_24 Depth=2
	jmp	LBB20_28
LBB20_28:                               ##   in Loop: Header=BB20_24 Depth=2
	movq	-736(%rbp), %rax
	movq	(%rax), %rax
	movq	%rax, -736(%rbp)
	jmp	LBB20_24
LBB20_29:                               ##   in Loop: Header=BB20_15 Depth=1
	movq	-736(%rbp), %rax
	movq	(%rax), %rax
	movq	-704(%rbp), %rcx
	movq	%rax, (%rcx)
	movq	-720(%rbp), %rax
	movq	-744(%rbp), %rcx        ## 8-byte Reload
	movq	%rcx, -600(%rbp)
	movq	%rax, -608(%rbp)
	movq	-600(%rbp), %rax
	movq	-608(%rbp), %rdx
	movq	%rax, -592(%rbp)
	movq	-592(%rbp), %rax
	movq	%rax, -584(%rbp)
	movq	-584(%rbp), %rax
	movq	(%rax), %rax
	movq	(%rax,%rdx,8), %rax
	movq	(%rax), %rax
	movq	-736(%rbp), %rdx
	movq	%rax, (%rdx)
	movq	-712(%rbp), %rax
	movq	-720(%rbp), %rdx
	movq	%rcx, -632(%rbp)
	movq	%rdx, -640(%rbp)
	movq	-632(%rbp), %rdx
	movq	-640(%rbp), %rsi
	movq	%rdx, -624(%rbp)
	movq	-624(%rbp), %rdx
	movq	%rdx, -616(%rbp)
	movq	-616(%rbp), %rdx
	movq	(%rdx), %rdx
	movq	(%rdx,%rsi,8), %rdx
	movq	%rax, (%rdx)
LBB20_30:                               ##   in Loop: Header=BB20_15 Depth=1
	jmp	LBB20_31
LBB20_31:                               ##   in Loop: Header=BB20_15 Depth=1
	jmp	LBB20_32
LBB20_32:                               ##   in Loop: Header=BB20_15 Depth=1
	movq	-704(%rbp), %rax
	movq	(%rax), %rax
	movq	%rax, -712(%rbp)
	jmp	LBB20_15
LBB20_33:
	jmp	LBB20_34
LBB20_34:
	jmp	LBB20_35
LBB20_35:
	addq	$784, %rsp              ## imm = 0x310
	popq	%rbp
	retq
	.cfi_endproc

	.globl	__ZNSt3__112__hash_tableINS_17__hash_value_typeIiNS_12basic_stringIcNS_11char_traitsIcEENS_9allocatorIcEEEEEENS_22__unordered_map_hasherIiS8_NS_4hashIiEELb1EEENS_21__unordered_map_equalIiS8_NS_8equal_toIiEELb1EEENS5_IS8_EEE15__insert_uniqueINS_4pairIKiS7_EEEENSK_INS_15__hash_iteratorIPNS_11__hash_nodeIS8_PvEEEEbEEOT_
	.weak_def_can_be_hidden	__ZNSt3__112__hash_tableINS_17__hash_value_typeIiNS_12basic_stringIcNS_11char_traitsIcEENS_9allocatorIcEEEEEENS_22__unordered_map_hasherIiS8_NS_4hashIiEELb1EEENS_21__unordered_map_equalIiS8_NS_8equal_toIiEELb1EEENS5_IS8_EEE15__insert_uniqueINS_4pairIKiS7_EEEENSK_INS_15__hash_iteratorIPNS_11__hash_nodeIS8_PvEEEEbEEOT_
	.align	4, 0x90
__ZNSt3__112__hash_tableINS_17__hash_value_typeIiNS_12basic_stringIcNS_11char_traitsIcEENS_9allocatorIcEEEEEENS_22__unordered_map_hasherIiS8_NS_4hashIiEELb1EEENS_21__unordered_map_equalIiS8_NS_8equal_toIiEELb1EEENS5_IS8_EEE15__insert_uniqueINS_4pairIKiS7_EEEENSK_INS_15__hash_iteratorIPNS_11__hash_nodeIS8_PvEEEEbEEOT_: ## @_ZNSt3__112__hash_tableINS_17__hash_value_typeIiNS_12basic_stringIcNS_11char_traitsIcEENS_9allocatorIcEEEEEENS_22__unordered_map_hasherIiS8_NS_4hashIiEELb1EEENS_21__unordered_map_equalIiS8_NS_8equal_toIiEELb1EEENS5_IS8_EEE15__insert_uniqueINS_4pairIKiS7_EEEENSK_INS_15__hash_iteratorIPNS_11__hash_nodeIS8_PvEEEEbEEOT_
Lfunc_begin21:
	.cfi_startproc
	.cfi_personality 155, ___gxx_personality_v0
	.cfi_lsda 16, Lexception21
## BB#0:
	pushq	%rbp
Ltmp145:
	.cfi_def_cfa_offset 16
Ltmp146:
	.cfi_offset %rbp, -16
	movq	%rsp, %rbp
Ltmp147:
	.cfi_def_cfa_register %rbp
	subq	$704, %rsp              ## imm = 0x2C0
	movq	%rdi, -584(%rbp)
	movq	%rsi, -592(%rbp)
	movq	-584(%rbp), %rdi
	movq	%rsi, -560(%rbp)
	leaq	-616(%rbp), %rax
	movq	%rdi, -640(%rbp)        ## 8-byte Spill
	movq	%rax, %rdi
	movq	-640(%rbp), %rcx        ## 8-byte Reload
	movq	%rsi, -648(%rbp)        ## 8-byte Spill
	movq	%rcx, %rsi
	movq	-648(%rbp), %rdx        ## 8-byte Reload
	movq	%rax, -656(%rbp)        ## 8-byte Spill
	callq	__ZNSt3__112__hash_tableINS_17__hash_value_typeIiNS_12basic_stringIcNS_11char_traitsIcEENS_9allocatorIcEEEEEENS_22__unordered_map_hasherIiS8_NS_4hashIiEELb1EEENS_21__unordered_map_equalIiS8_NS_8equal_toIiEELb1EEENS5_IS8_EEE16__construct_nodeIJNS_4pairIKiS7_EEEEENS_10unique_ptrINS_11__hash_nodeIS8_PvEENS_22__hash_node_destructorINS5_ISQ_EEEEEEDpOT_
	movq	-656(%rbp), %rax        ## 8-byte Reload
	movq	%rax, -312(%rbp)
	movq	%rax, -304(%rbp)
	movq	%rax, -296(%rbp)
	movq	-616(%rbp), %rsi
Ltmp142:
	movq	-640(%rbp), %rdi        ## 8-byte Reload
	callq	__ZNSt3__112__hash_tableINS_17__hash_value_typeIiNS_12basic_stringIcNS_11char_traitsIcEENS_9allocatorIcEEEEEENS_22__unordered_map_hasherIiS8_NS_4hashIiEELb1EEENS_21__unordered_map_equalIiS8_NS_8equal_toIiEELb1EEENS5_IS8_EEE20__node_insert_uniqueEPNS_11__hash_nodeIS8_PvEE
Ltmp143:
	movb	%dl, -657(%rbp)         ## 1-byte Spill
	movq	%rax, -672(%rbp)        ## 8-byte Spill
	jmp	LBB21_1
LBB21_1:
	movq	-672(%rbp), %rax        ## 8-byte Reload
	movq	%rax, -576(%rbp)
	movb	-657(%rbp), %cl         ## 1-byte Reload
	movb	%cl, -568(%rbp)
	testb	$1, -568(%rbp)
	je	LBB21_10
## BB#2:
	leaq	-616(%rbp), %rax
	movq	%rax, -280(%rbp)
	movq	-280(%rbp), %rax
	movq	%rax, -272(%rbp)
	movq	-272(%rbp), %rcx
	movq	%rcx, -264(%rbp)
	movq	-264(%rbp), %rcx
	movq	(%rcx), %rcx
	movq	%rcx, -288(%rbp)
	movq	%rax, -256(%rbp)
	movq	-256(%rbp), %rax
	movq	%rax, -248(%rbp)
	movq	-248(%rbp), %rax
	movq	$0, (%rax)
	jmp	LBB21_10
LBB21_3:
Ltmp144:
	leaq	-616(%rbp), %rcx
	movl	%edx, %esi
	movq	%rax, -624(%rbp)
	movl	%esi, -628(%rbp)
	movq	%rcx, -240(%rbp)
	movq	-240(%rbp), %rax
	movq	%rax, -232(%rbp)
	movq	-232(%rbp), %rax
	movq	%rax, -208(%rbp)
	movq	$0, -216(%rbp)
	movq	-208(%rbp), %rax
	movq	%rax, -200(%rbp)
	movq	-200(%rbp), %rcx
	movq	%rcx, -192(%rbp)
	movq	-192(%rbp), %rcx
	movq	(%rcx), %rcx
	movq	%rcx, -224(%rbp)
	movq	-216(%rbp), %rcx
	movq	%rax, -32(%rbp)
	movq	-32(%rbp), %rdx
	movq	%rdx, -24(%rbp)
	movq	-24(%rbp), %rdx
	movq	%rcx, (%rdx)
	cmpq	$0, -224(%rbp)
	movq	%rax, -680(%rbp)        ## 8-byte Spill
	je	LBB21_9
## BB#4:
	movq	-680(%rbp), %rax        ## 8-byte Reload
	movq	%rax, -16(%rbp)
	movq	-16(%rbp), %rcx
	movq	%rcx, -8(%rbp)
	movq	-8(%rbp), %rcx
	addq	$8, %rcx
	movq	-224(%rbp), %rdx
	movq	%rcx, -176(%rbp)
	movq	%rdx, -184(%rbp)
	movq	-176(%rbp), %rcx
	testb	$1, 8(%rcx)
	movq	%rcx, -688(%rbp)        ## 8-byte Spill
	je	LBB21_6
## BB#5:
	movq	-688(%rbp), %rax        ## 8-byte Reload
	movq	(%rax), %rcx
	movq	-184(%rbp), %rdx
	addq	$16, %rdx
	movq	%rdx, -168(%rbp)
	movq	-168(%rbp), %rdx
	movq	%rcx, -136(%rbp)
	movq	%rdx, -144(%rbp)
	movq	-136(%rbp), %rcx
	movq	-144(%rbp), %rdx
	movq	%rcx, -120(%rbp)
	movq	%rdx, -128(%rbp)
	movq	-128(%rbp), %rcx
	movq	%rcx, -104(%rbp)
	movq	-104(%rbp), %rcx
	movq	%rcx, -96(%rbp)
	movq	-96(%rbp), %rcx
	movq	%rcx, %rdi
	callq	__ZNSt3__14pairIKiNS_12basic_stringIcNS_11char_traitsIcEENS_9allocatorIcEEEEED1Ev
LBB21_6:
	cmpq	$0, -184(%rbp)
	je	LBB21_8
## BB#7:
	movq	-688(%rbp), %rax        ## 8-byte Reload
	movq	(%rax), %rcx
	movq	-184(%rbp), %rdx
	movq	%rcx, -72(%rbp)
	movq	%rdx, -80(%rbp)
	movq	$1, -88(%rbp)
	movq	-72(%rbp), %rcx
	movq	-80(%rbp), %rdx
	movq	-88(%rbp), %rsi
	movq	%rcx, -48(%rbp)
	movq	%rdx, -56(%rbp)
	movq	%rsi, -64(%rbp)
	movq	-56(%rbp), %rcx
	movq	%rcx, -40(%rbp)
	movq	-40(%rbp), %rdi
	callq	__ZdlPv
LBB21_8:                                ## %_ZNSt3__122__hash_node_destructorINS_9allocatorINS_11__hash_nodeINS_17__hash_value_typeIiNS_12basic_stringIcNS_11char_traitsIcEENS1_IcEEEEEEPvEEEEEclEPSB_.exit.i.i.i2
	jmp	LBB21_9
LBB21_9:                                ## %_ZNSt3__110unique_ptrINS_11__hash_nodeINS_17__hash_value_typeIiNS_12basic_stringIcNS_11char_traitsIcEENS_9allocatorIcEEEEEEPvEENS_22__hash_node_destructorINS6_ISB_EEEEED1Ev.exit3
	jmp	LBB21_17
LBB21_10:
	leaq	-616(%rbp), %rax
	movl	$1, -632(%rbp)
	movq	%rax, -552(%rbp)
	movq	-552(%rbp), %rax
	movq	%rax, -544(%rbp)
	movq	-544(%rbp), %rax
	movq	%rax, -520(%rbp)
	movq	$0, -528(%rbp)
	movq	-520(%rbp), %rax
	movq	%rax, -512(%rbp)
	movq	-512(%rbp), %rcx
	movq	%rcx, -504(%rbp)
	movq	-504(%rbp), %rcx
	movq	(%rcx), %rcx
	movq	%rcx, -536(%rbp)
	movq	-528(%rbp), %rcx
	movq	%rax, -344(%rbp)
	movq	-344(%rbp), %rdx
	movq	%rdx, -336(%rbp)
	movq	-336(%rbp), %rdx
	movq	%rcx, (%rdx)
	cmpq	$0, -536(%rbp)
	movq	%rax, -696(%rbp)        ## 8-byte Spill
	je	LBB21_16
## BB#11:
	movq	-696(%rbp), %rax        ## 8-byte Reload
	movq	%rax, -328(%rbp)
	movq	-328(%rbp), %rcx
	movq	%rcx, -320(%rbp)
	movq	-320(%rbp), %rcx
	addq	$8, %rcx
	movq	-536(%rbp), %rdx
	movq	%rcx, -488(%rbp)
	movq	%rdx, -496(%rbp)
	movq	-488(%rbp), %rcx
	testb	$1, 8(%rcx)
	movq	%rcx, -704(%rbp)        ## 8-byte Spill
	je	LBB21_13
## BB#12:
	movq	-704(%rbp), %rax        ## 8-byte Reload
	movq	(%rax), %rcx
	movq	-496(%rbp), %rdx
	addq	$16, %rdx
	movq	%rdx, -480(%rbp)
	movq	-480(%rbp), %rdx
	movq	%rcx, -448(%rbp)
	movq	%rdx, -456(%rbp)
	movq	-448(%rbp), %rcx
	movq	-456(%rbp), %rdx
	movq	%rcx, -432(%rbp)
	movq	%rdx, -440(%rbp)
	movq	-440(%rbp), %rcx
	movq	%rcx, -416(%rbp)
	movq	-416(%rbp), %rcx
	movq	%rcx, -408(%rbp)
	movq	-408(%rbp), %rcx
	movq	%rcx, %rdi
	callq	__ZNSt3__14pairIKiNS_12basic_stringIcNS_11char_traitsIcEENS_9allocatorIcEEEEED1Ev
LBB21_13:
	cmpq	$0, -496(%rbp)
	je	LBB21_15
## BB#14:
	movq	-704(%rbp), %rax        ## 8-byte Reload
	movq	(%rax), %rcx
	movq	-496(%rbp), %rdx
	movq	%rcx, -384(%rbp)
	movq	%rdx, -392(%rbp)
	movq	$1, -400(%rbp)
	movq	-384(%rbp), %rcx
	movq	-392(%rbp), %rdx
	movq	-400(%rbp), %rsi
	movq	%rcx, -360(%rbp)
	movq	%rdx, -368(%rbp)
	movq	%rsi, -376(%rbp)
	movq	-368(%rbp), %rcx
	movq	%rcx, -352(%rbp)
	movq	-352(%rbp), %rdi
	callq	__ZdlPv
LBB21_15:                               ## %_ZNSt3__122__hash_node_destructorINS_9allocatorINS_11__hash_nodeINS_17__hash_value_typeIiNS_12basic_stringIcNS_11char_traitsIcEENS1_IcEEEEEEPvEEEEEclEPSB_.exit.i.i.i
	jmp	LBB21_16
LBB21_16:                               ## %_ZNSt3__110unique_ptrINS_11__hash_nodeINS_17__hash_value_typeIiNS_12basic_stringIcNS_11char_traitsIcEENS_9allocatorIcEEEEEEPvEENS_22__hash_node_destructorINS6_ISB_EEEEED1Ev.exit
	movq	-576(%rbp), %rax
	movb	-568(%rbp), %dl
	addq	$704, %rsp              ## imm = 0x2C0
	popq	%rbp
	retq
LBB21_17:
	movq	-624(%rbp), %rdi
	callq	__Unwind_Resume
Lfunc_end21:
	.cfi_endproc
	.section	__TEXT,__gcc_except_tab
	.align	2
GCC_except_table21:
Lexception21:
	.byte	255                     ## @LPStart Encoding = omit
	.byte	155                     ## @TType Encoding = indirect pcrel sdata4
	.byte	41                      ## @TType base offset
	.byte	3                       ## Call site Encoding = udata4
	.byte	39                      ## Call site table length
Lset50 = Lfunc_begin21-Lfunc_begin21    ## >> Call Site 1 <<
	.long	Lset50
Lset51 = Ltmp142-Lfunc_begin21          ##   Call between Lfunc_begin21 and Ltmp142
	.long	Lset51
	.long	0                       ##     has no landing pad
	.byte	0                       ##   On action: cleanup
Lset52 = Ltmp142-Lfunc_begin21          ## >> Call Site 2 <<
	.long	Lset52
Lset53 = Ltmp143-Ltmp142                ##   Call between Ltmp142 and Ltmp143
	.long	Lset53
Lset54 = Ltmp144-Lfunc_begin21          ##     jumps to Ltmp144
	.long	Lset54
	.byte	0                       ##   On action: cleanup
Lset55 = Ltmp143-Lfunc_begin21          ## >> Call Site 3 <<
	.long	Lset55
Lset56 = Lfunc_end21-Ltmp143            ##   Call between Ltmp143 and Lfunc_end21
	.long	Lset56
	.long	0                       ##     has no landing pad
	.byte	0                       ##   On action: cleanup
	.align	2

	.section	__TEXT,__textcoal_nt,coalesced,pure_instructions
	.globl	__ZNSt3__112__hash_tableINS_17__hash_value_typeIiNS_12basic_stringIcNS_11char_traitsIcEENS_9allocatorIcEEEEEENS_22__unordered_map_hasherIiS8_NS_4hashIiEELb1EEENS_21__unordered_map_equalIiS8_NS_8equal_toIiEELb1EEENS5_IS8_EEE16__construct_nodeIJNS_4pairIKiS7_EEEEENS_10unique_ptrINS_11__hash_nodeIS8_PvEENS_22__hash_node_destructorINS5_ISQ_EEEEEEDpOT_
	.weak_def_can_be_hidden	__ZNSt3__112__hash_tableINS_17__hash_value_typeIiNS_12basic_stringIcNS_11char_traitsIcEENS_9allocatorIcEEEEEENS_22__unordered_map_hasherIiS8_NS_4hashIiEELb1EEENS_21__unordered_map_equalIiS8_NS_8equal_toIiEELb1EEENS5_IS8_EEE16__construct_nodeIJNS_4pairIKiS7_EEEEENS_10unique_ptrINS_11__hash_nodeIS8_PvEENS_22__hash_node_destructorINS5_ISQ_EEEEEEDpOT_
	.align	4, 0x90
__ZNSt3__112__hash_tableINS_17__hash_value_typeIiNS_12basic_stringIcNS_11char_traitsIcEENS_9allocatorIcEEEEEENS_22__unordered_map_hasherIiS8_NS_4hashIiEELb1EEENS_21__unordered_map_equalIiS8_NS_8equal_toIiEELb1EEENS5_IS8_EEE16__construct_nodeIJNS_4pairIKiS7_EEEEENS_10unique_ptrINS_11__hash_nodeIS8_PvEENS_22__hash_node_destructorINS5_ISQ_EEEEEEDpOT_: ## @_ZNSt3__112__hash_tableINS_17__hash_value_typeIiNS_12basic_stringIcNS_11char_traitsIcEENS_9allocatorIcEEEEEENS_22__unordered_map_hasherIiS8_NS_4hashIiEELb1EEENS_21__unordered_map_equalIiS8_NS_8equal_toIiEELb1EEENS5_IS8_EEE16__construct_nodeIJNS_4pairIKiS7_EEEEENS_10unique_ptrINS_11__hash_nodeIS8_PvEENS_22__hash_node_destructorINS5_ISQ_EEEEEEDpOT_
	.cfi_startproc
## BB#0:
	pushq	%rbp
Ltmp148:
	.cfi_def_cfa_offset 16
Ltmp149:
	.cfi_offset %rbp, -16
	movq	%rsp, %rbp
Ltmp150:
	.cfi_def_cfa_register %rbp
	pushq	%r14
	pushq	%rbx
	subq	$1408, %rsp             ## imm = 0x580
Ltmp151:
	.cfi_offset %rbx, -32
Ltmp152:
	.cfi_offset %r14, -24
	movq	%rdi, %rax
	movq	%rsi, -1304(%rbp)
	movq	%rdx, -1312(%rbp)
	movq	-1304(%rbp), %rdx
	movq	%rdx, -1296(%rbp)
	movq	-1296(%rbp), %rsi
	addq	$16, %rsi
	movq	%rsi, -1288(%rbp)
	movq	-1288(%rbp), %rsi
	movq	%rsi, -1280(%rbp)
	movq	-1280(%rbp), %rsi
	movq	%rsi, -1320(%rbp)
	movb	$0, -1321(%rbp)
	movq	-1320(%rbp), %rsi
	movq	%rsi, -1024(%rbp)
	movq	$1, -1032(%rbp)
	movq	-1024(%rbp), %rsi
	movq	-1032(%rbp), %rcx
	movq	%rsi, -1000(%rbp)
	movq	%rcx, -1008(%rbp)
	movq	$0, -1016(%rbp)
	imulq	$48, -1008(%rbp), %rcx
	movq	%rcx, -992(%rbp)
	movq	-992(%rbp), %rcx
	movq	%rdi, -1368(%rbp)       ## 8-byte Spill
	movq	%rcx, %rdi
	movq	%rax, -1376(%rbp)       ## 8-byte Spill
	movq	%rdx, -1384(%rbp)       ## 8-byte Spill
	callq	__Znwm
	leaq	-760(%rbp), %rcx
	leaq	-776(%rbp), %rdx
	leaq	-800(%rbp), %rsi
	leaq	-816(%rbp), %rdi
	leaq	-1344(%rbp), %r8
	movq	-1320(%rbp), %r9
	movq	%r8, -968(%rbp)
	movq	%r9, -976(%rbp)
	movb	$0, -977(%rbp)
	movq	-968(%rbp), %r9
	movb	-977(%rbp), %r10b
	movq	-976(%rbp), %r11
	movq	%r9, -944(%rbp)
	movq	%r11, -952(%rbp)
	andb	$1, %r10b
	movb	%r10b, -953(%rbp)
	movq	-944(%rbp), %r9
	movq	-952(%rbp), %r11
	movq	%r11, (%r9)
	movb	-953(%rbp), %r10b
	andb	$1, %r10b
	movb	%r10b, 8(%r9)
	movq	-1368(%rbp), %r9        ## 8-byte Reload
	movq	%r9, -920(%rbp)
	movq	%rax, -928(%rbp)
	movq	%r8, -936(%rbp)
	movq	-920(%rbp), %rax
	movq	-928(%rbp), %r8
	movq	-936(%rbp), %r11
	movq	%rax, -880(%rbp)
	movq	%r8, -888(%rbp)
	movq	%r11, -896(%rbp)
	movq	-880(%rbp), %rax
	movq	-888(%rbp), %r8
	movq	-896(%rbp), %r11
	movq	%r11, -872(%rbp)
	movq	-872(%rbp), %r11
	movq	(%r11), %rbx
	movq	%rbx, -912(%rbp)
	movq	8(%r11), %r11
	movq	%r11, -904(%rbp)
	movq	-912(%rbp), %r11
	movb	-904(%rbp), %r10b
	movq	%r11, -848(%rbp)
	movb	%r10b, -840(%rbp)
	movq	%rax, -856(%rbp)
	movq	%r8, -864(%rbp)
	movq	-856(%rbp), %rax
	movq	-864(%rbp), %r8
	movq	-848(%rbp), %r11
	movb	-840(%rbp), %r10b
	movq	%r11, -800(%rbp)
	movb	%r10b, -792(%rbp)
	movq	%rax, -808(%rbp)
	movq	%r8, -816(%rbp)
	movq	-808(%rbp), %rax
	movq	%rdi, -784(%rbp)
	movq	-784(%rbp), %rdi
	movq	(%rdi), %rdi
	movq	%rsi, -728(%rbp)
	movq	-728(%rbp), %rsi
	movq	(%rsi), %r8
	movq	%r8, -832(%rbp)
	movq	8(%rsi), %rsi
	movq	%rsi, -824(%rbp)
	movq	-832(%rbp), %rsi
	movb	-824(%rbp), %r10b
	movq	%rsi, -760(%rbp)
	movb	%r10b, -752(%rbp)
	movq	%rax, -768(%rbp)
	movq	%rdi, -776(%rbp)
	movq	-768(%rbp), %rax
	movq	%rdx, -744(%rbp)
	movq	-744(%rbp), %rdx
	movq	(%rdx), %rdx
	movq	%rdx, (%rax)
	movq	%rcx, -736(%rbp)
	movq	-736(%rbp), %rcx
	movq	(%rcx), %rdx
	movq	%rdx, 8(%rax)
	movq	8(%rcx), %rcx
	movq	%rcx, 16(%rax)
	movq	-1320(%rbp), %rax
	movq	%r9, -480(%rbp)
	movq	-480(%rbp), %rcx
	movq	%rcx, -472(%rbp)
	movq	-472(%rbp), %rcx
	movq	%rcx, -464(%rbp)
	movq	-464(%rbp), %rcx
	movq	(%rcx), %rcx
	addq	$16, %rcx
	movq	%rcx, -456(%rbp)
	movq	-456(%rbp), %rcx
	movq	-1312(%rbp), %rdx
	movq	%rdx, -24(%rbp)
	movq	-24(%rbp), %rdx
	movq	%rax, -264(%rbp)
	movq	%rcx, -272(%rbp)
	movq	%rdx, -280(%rbp)
	movq	-264(%rbp), %rax
	movq	-272(%rbp), %rcx
	movq	-280(%rbp), %rdx
	movq	%rdx, -256(%rbp)
	movq	-256(%rbp), %rdx
	movq	%rax, -232(%rbp)
	movq	%rcx, -240(%rbp)
	movq	%rdx, -248(%rbp)
	movq	-232(%rbp), %rax
	movq	-240(%rbp), %rcx
	movq	-248(%rbp), %rdx
	movq	%rdx, -216(%rbp)
	movq	-216(%rbp), %rdx
	movq	%rax, -192(%rbp)
	movq	%rcx, -200(%rbp)
	movq	%rdx, -208(%rbp)
	movq	-200(%rbp), %rax
	movq	-208(%rbp), %rcx
	movq	%rcx, -184(%rbp)
	movq	-184(%rbp), %rcx
	movq	%rax, -168(%rbp)
	movq	%rcx, -176(%rbp)
	movq	-168(%rbp), %rax
	movq	-176(%rbp), %rcx
	movq	%rax, -152(%rbp)
	movq	%rcx, -160(%rbp)
	movq	-152(%rbp), %rax
	movq	-160(%rbp), %rcx
	movq	%rcx, -144(%rbp)
	movq	-144(%rbp), %rcx
	movq	%rax, -128(%rbp)
	movq	%rcx, -136(%rbp)
	movq	-128(%rbp), %rax
	movq	-136(%rbp), %rcx
	movq	%rax, -112(%rbp)
	movq	%rcx, -120(%rbp)
	movq	-112(%rbp), %rax
	movq	-120(%rbp), %rcx
	movl	(%rcx), %r14d
	movl	%r14d, (%rax)
	movq	%rax, %rcx
	addq	$8, %rcx
	movq	-120(%rbp), %rdx
	addq	$8, %rdx
	movq	%rcx, -96(%rbp)
	movq	%rdx, -104(%rbp)
	movq	-96(%rbp), %rcx
	movq	-104(%rbp), %rdx
	movq	%rcx, -80(%rbp)
	movq	%rdx, -88(%rbp)
	movq	-80(%rbp), %rcx
	movq	-88(%rbp), %rdx
	movq	%rdx, -72(%rbp)
	movq	-72(%rbp), %rdx
	movq	(%rdx), %rsi
	movq	%rsi, (%rcx)
	movq	8(%rdx), %rsi
	movq	%rsi, 8(%rcx)
	movq	16(%rdx), %rdx
	movq	%rdx, 16(%rcx)
	movq	-88(%rbp), %rcx
	movq	%rcx, -48(%rbp)
	movq	-48(%rbp), %rcx
	movq	%rcx, -40(%rbp)
	movq	-40(%rbp), %rcx
	movq	%rcx, -32(%rbp)
	movq	-32(%rbp), %rcx
	movq	%rcx, -56(%rbp)
	movl	$0, -60(%rbp)
	movq	%rax, -1392(%rbp)       ## 8-byte Spill
LBB22_1:                                ## =>This Inner Loop Header: Depth=1
	cmpl	$3, -60(%rbp)
	jae	LBB22_3
## BB#2:                                ##   in Loop: Header=BB22_1 Depth=1
	movl	-60(%rbp), %eax
	movl	%eax, %ecx
	movq	-56(%rbp), %rdx
	movq	$0, (%rdx,%rcx,8)
	movl	-60(%rbp), %eax
	addl	$1, %eax
	movl	%eax, -60(%rbp)
	jmp	LBB22_1
LBB22_3:                                ## %_ZNSt3__116allocator_traitsINS_9allocatorINS_11__hash_nodeINS_17__hash_value_typeIiNS_12basic_stringIcNS_11char_traitsIcEENS1_IcEEEEEEPvEEEEE9constructIS9_JNS_4pairIKiS8_EEEEEvRSC_PT_DpOT0_.exit
	movq	-120(%rbp), %rax
	movl	(%rax), %ecx
	movq	-1392(%rbp), %rax       ## 8-byte Reload
	movl	%ecx, (%rax)
## BB#4:
	movq	-1368(%rbp), %rax       ## 8-byte Reload
	movq	%rax, -320(%rbp)
	movq	-320(%rbp), %rcx
	movq	%rcx, -312(%rbp)
	movq	-312(%rbp), %rcx
	movq	%rcx, -304(%rbp)
	movq	-304(%rbp), %rcx
	movb	$1, 16(%rcx)
	movq	-1384(%rbp), %rcx       ## 8-byte Reload
	movq	%rcx, -344(%rbp)
	movq	-344(%rbp), %rdx
	addq	$24, %rdx
	movq	%rdx, -336(%rbp)
	movq	-336(%rbp), %rdx
	movq	%rdx, -328(%rbp)
	movq	-328(%rbp), %rdx
	movq	%rax, -368(%rbp)
	movq	-368(%rbp), %rsi
	movq	%rsi, -360(%rbp)
	movq	-360(%rbp), %rsi
	movq	%rsi, -352(%rbp)
	movq	-352(%rbp), %rsi
	movq	(%rsi), %rsi
	addq	$16, %rsi
	movq	%rdx, -392(%rbp)
	movq	%rsi, -400(%rbp)
	movq	-392(%rbp), %rdx
	movq	-400(%rbp), %rsi
	movl	(%rsi), %edi
	movq	%rdx, -376(%rbp)
	movl	%edi, -380(%rbp)
	movslq	-380(%rbp), %rdx
	movq	%rdx, -1400(%rbp)       ## 8-byte Spill
## BB#5:
	movq	-1368(%rbp), %rax       ## 8-byte Reload
	movq	%rax, -424(%rbp)
	movq	-424(%rbp), %rcx
	movq	%rcx, -416(%rbp)
	movq	-416(%rbp), %rcx
	movq	%rcx, -408(%rbp)
	movq	-408(%rbp), %rcx
	movq	(%rcx), %rcx
	movq	-1400(%rbp), %rdx       ## 8-byte Reload
	movq	%rdx, 8(%rcx)
	movq	%rax, -448(%rbp)
	movq	-448(%rbp), %rcx
	movq	%rcx, -440(%rbp)
	movq	-440(%rbp), %rcx
	movq	%rcx, -432(%rbp)
	movq	-432(%rbp), %rcx
	movq	(%rcx), %rcx
	movq	$0, (%rcx)
	movb	$1, -1321(%rbp)
	movl	$1, -1360(%rbp)
	testb	$1, -1321(%rbp)
	jne	LBB22_13
## BB#6:
	movq	-1368(%rbp), %rax       ## 8-byte Reload
	movq	%rax, -1272(%rbp)
	movq	-1272(%rbp), %rcx
	movq	%rcx, -1264(%rbp)
	movq	-1264(%rbp), %rcx
	movq	%rcx, -1240(%rbp)
	movq	$0, -1248(%rbp)
	movq	-1240(%rbp), %rcx
	movq	%rcx, -1232(%rbp)
	movq	-1232(%rbp), %rdx
	movq	%rdx, -1224(%rbp)
	movq	-1224(%rbp), %rdx
	movq	(%rdx), %rdx
	movq	%rdx, -1256(%rbp)
	movq	-1248(%rbp), %rdx
	movq	%rcx, -1064(%rbp)
	movq	-1064(%rbp), %rsi
	movq	%rsi, -1056(%rbp)
	movq	-1056(%rbp), %rsi
	movq	%rdx, (%rsi)
	cmpq	$0, -1256(%rbp)
	movq	%rcx, -1408(%rbp)       ## 8-byte Spill
	je	LBB22_12
## BB#7:
	movq	-1408(%rbp), %rax       ## 8-byte Reload
	movq	%rax, -1048(%rbp)
	movq	-1048(%rbp), %rcx
	movq	%rcx, -1040(%rbp)
	movq	-1040(%rbp), %rcx
	addq	$8, %rcx
	movq	-1256(%rbp), %rdx
	movq	%rcx, -1208(%rbp)
	movq	%rdx, -1216(%rbp)
	movq	-1208(%rbp), %rcx
	testb	$1, 8(%rcx)
	movq	%rcx, -1416(%rbp)       ## 8-byte Spill
	je	LBB22_9
## BB#8:
	movq	-1416(%rbp), %rax       ## 8-byte Reload
	movq	(%rax), %rcx
	movq	-1216(%rbp), %rdx
	addq	$16, %rdx
	movq	%rdx, -1200(%rbp)
	movq	-1200(%rbp), %rdx
	movq	%rcx, -1168(%rbp)
	movq	%rdx, -1176(%rbp)
	movq	-1168(%rbp), %rcx
	movq	-1176(%rbp), %rdx
	movq	%rcx, -1152(%rbp)
	movq	%rdx, -1160(%rbp)
	movq	-1160(%rbp), %rcx
	movq	%rcx, -1136(%rbp)
	movq	-1136(%rbp), %rcx
	movq	%rcx, -1128(%rbp)
	movq	-1128(%rbp), %rcx
	movq	%rcx, %rdi
	callq	__ZNSt3__14pairIKiNS_12basic_stringIcNS_11char_traitsIcEENS_9allocatorIcEEEEED1Ev
LBB22_9:
	cmpq	$0, -1216(%rbp)
	je	LBB22_11
## BB#10:
	movq	-1416(%rbp), %rax       ## 8-byte Reload
	movq	(%rax), %rcx
	movq	-1216(%rbp), %rdx
	movq	%rcx, -1104(%rbp)
	movq	%rdx, -1112(%rbp)
	movq	$1, -1120(%rbp)
	movq	-1104(%rbp), %rcx
	movq	-1112(%rbp), %rdx
	movq	-1120(%rbp), %rsi
	movq	%rcx, -1080(%rbp)
	movq	%rdx, -1088(%rbp)
	movq	%rsi, -1096(%rbp)
	movq	-1088(%rbp), %rcx
	movq	%rcx, -1072(%rbp)
	movq	-1072(%rbp), %rdi
	callq	__ZdlPv
LBB22_11:                               ## %_ZNSt3__122__hash_node_destructorINS_9allocatorINS_11__hash_nodeINS_17__hash_value_typeIiNS_12basic_stringIcNS_11char_traitsIcEENS1_IcEEEEEEPvEEEEEclEPSB_.exit.i.i.i
	jmp	LBB22_12
LBB22_12:                               ## %_ZNSt3__110unique_ptrINS_11__hash_nodeINS_17__hash_value_typeIiNS_12basic_stringIcNS_11char_traitsIcEENS_9allocatorIcEEEEEEPvEENS_22__hash_node_destructorINS6_ISB_EEEEED1Ev.exit
	jmp	LBB22_13
LBB22_13:
	movq	-1376(%rbp), %rax       ## 8-byte Reload
	addq	$1408, %rsp             ## imm = 0x580
	popq	%rbx
	popq	%r14
	popq	%rbp
	retq
	.cfi_endproc

	.globl	__ZNSt3__112__hash_tableINS_17__hash_value_typeIiNS_12basic_stringIcNS_11char_traitsIcEENS_9allocatorIcEEEEEENS_22__unordered_map_hasherIiS8_NS_4hashIiEELb1EEENS_21__unordered_map_equalIiS8_NS_8equal_toIiEELb1EEENS5_IS8_EEE15__insert_uniqueINS_4pairIiS7_EEEENSK_INS_15__hash_iteratorIPNS_11__hash_nodeIS8_PvEEEEbEEOT_
	.weak_def_can_be_hidden	__ZNSt3__112__hash_tableINS_17__hash_value_typeIiNS_12basic_stringIcNS_11char_traitsIcEENS_9allocatorIcEEEEEENS_22__unordered_map_hasherIiS8_NS_4hashIiEELb1EEENS_21__unordered_map_equalIiS8_NS_8equal_toIiEELb1EEENS5_IS8_EEE15__insert_uniqueINS_4pairIiS7_EEEENSK_INS_15__hash_iteratorIPNS_11__hash_nodeIS8_PvEEEEbEEOT_
	.align	4, 0x90
__ZNSt3__112__hash_tableINS_17__hash_value_typeIiNS_12basic_stringIcNS_11char_traitsIcEENS_9allocatorIcEEEEEENS_22__unordered_map_hasherIiS8_NS_4hashIiEELb1EEENS_21__unordered_map_equalIiS8_NS_8equal_toIiEELb1EEENS5_IS8_EEE15__insert_uniqueINS_4pairIiS7_EEEENSK_INS_15__hash_iteratorIPNS_11__hash_nodeIS8_PvEEEEbEEOT_: ## @_ZNSt3__112__hash_tableINS_17__hash_value_typeIiNS_12basic_stringIcNS_11char_traitsIcEENS_9allocatorIcEEEEEENS_22__unordered_map_hasherIiS8_NS_4hashIiEELb1EEENS_21__unordered_map_equalIiS8_NS_8equal_toIiEELb1EEENS5_IS8_EEE15__insert_uniqueINS_4pairIiS7_EEEENSK_INS_15__hash_iteratorIPNS_11__hash_nodeIS8_PvEEEEbEEOT_
Lfunc_begin23:
	.cfi_startproc
	.cfi_personality 155, ___gxx_personality_v0
	.cfi_lsda 16, Lexception23
## BB#0:
	pushq	%rbp
Ltmp156:
	.cfi_def_cfa_offset 16
Ltmp157:
	.cfi_offset %rbp, -16
	movq	%rsp, %rbp
Ltmp158:
	.cfi_def_cfa_register %rbp
	subq	$704, %rsp              ## imm = 0x2C0
	movq	%rdi, -584(%rbp)
	movq	%rsi, -592(%rbp)
	movq	-584(%rbp), %rdi
	movq	%rsi, -560(%rbp)
	leaq	-616(%rbp), %rax
	movq	%rdi, -640(%rbp)        ## 8-byte Spill
	movq	%rax, %rdi
	movq	-640(%rbp), %rcx        ## 8-byte Reload
	movq	%rsi, -648(%rbp)        ## 8-byte Spill
	movq	%rcx, %rsi
	movq	-648(%rbp), %rdx        ## 8-byte Reload
	movq	%rax, -656(%rbp)        ## 8-byte Spill
	callq	__ZNSt3__112__hash_tableINS_17__hash_value_typeIiNS_12basic_stringIcNS_11char_traitsIcEENS_9allocatorIcEEEEEENS_22__unordered_map_hasherIiS8_NS_4hashIiEELb1EEENS_21__unordered_map_equalIiS8_NS_8equal_toIiEELb1EEENS5_IS8_EEE16__construct_nodeIJNS_4pairIiS7_EEEEENS_10unique_ptrINS_11__hash_nodeIS8_PvEENS_22__hash_node_destructorINS5_ISP_EEEEEEDpOT_
	movq	-656(%rbp), %rax        ## 8-byte Reload
	movq	%rax, -312(%rbp)
	movq	%rax, -304(%rbp)
	movq	%rax, -296(%rbp)
	movq	-616(%rbp), %rsi
Ltmp153:
	movq	-640(%rbp), %rdi        ## 8-byte Reload
	callq	__ZNSt3__112__hash_tableINS_17__hash_value_typeIiNS_12basic_stringIcNS_11char_traitsIcEENS_9allocatorIcEEEEEENS_22__unordered_map_hasherIiS8_NS_4hashIiEELb1EEENS_21__unordered_map_equalIiS8_NS_8equal_toIiEELb1EEENS5_IS8_EEE20__node_insert_uniqueEPNS_11__hash_nodeIS8_PvEE
Ltmp154:
	movb	%dl, -657(%rbp)         ## 1-byte Spill
	movq	%rax, -672(%rbp)        ## 8-byte Spill
	jmp	LBB23_1
LBB23_1:
	movq	-672(%rbp), %rax        ## 8-byte Reload
	movq	%rax, -576(%rbp)
	movb	-657(%rbp), %cl         ## 1-byte Reload
	movb	%cl, -568(%rbp)
	testb	$1, -568(%rbp)
	je	LBB23_10
## BB#2:
	leaq	-616(%rbp), %rax
	movq	%rax, -280(%rbp)
	movq	-280(%rbp), %rax
	movq	%rax, -272(%rbp)
	movq	-272(%rbp), %rcx
	movq	%rcx, -264(%rbp)
	movq	-264(%rbp), %rcx
	movq	(%rcx), %rcx
	movq	%rcx, -288(%rbp)
	movq	%rax, -256(%rbp)
	movq	-256(%rbp), %rax
	movq	%rax, -248(%rbp)
	movq	-248(%rbp), %rax
	movq	$0, (%rax)
	jmp	LBB23_10
LBB23_3:
Ltmp155:
	leaq	-616(%rbp), %rcx
	movl	%edx, %esi
	movq	%rax, -624(%rbp)
	movl	%esi, -628(%rbp)
	movq	%rcx, -240(%rbp)
	movq	-240(%rbp), %rax
	movq	%rax, -232(%rbp)
	movq	-232(%rbp), %rax
	movq	%rax, -208(%rbp)
	movq	$0, -216(%rbp)
	movq	-208(%rbp), %rax
	movq	%rax, -200(%rbp)
	movq	-200(%rbp), %rcx
	movq	%rcx, -192(%rbp)
	movq	-192(%rbp), %rcx
	movq	(%rcx), %rcx
	movq	%rcx, -224(%rbp)
	movq	-216(%rbp), %rcx
	movq	%rax, -32(%rbp)
	movq	-32(%rbp), %rdx
	movq	%rdx, -24(%rbp)
	movq	-24(%rbp), %rdx
	movq	%rcx, (%rdx)
	cmpq	$0, -224(%rbp)
	movq	%rax, -680(%rbp)        ## 8-byte Spill
	je	LBB23_9
## BB#4:
	movq	-680(%rbp), %rax        ## 8-byte Reload
	movq	%rax, -16(%rbp)
	movq	-16(%rbp), %rcx
	movq	%rcx, -8(%rbp)
	movq	-8(%rbp), %rcx
	addq	$8, %rcx
	movq	-224(%rbp), %rdx
	movq	%rcx, -176(%rbp)
	movq	%rdx, -184(%rbp)
	movq	-176(%rbp), %rcx
	testb	$1, 8(%rcx)
	movq	%rcx, -688(%rbp)        ## 8-byte Spill
	je	LBB23_6
## BB#5:
	movq	-688(%rbp), %rax        ## 8-byte Reload
	movq	(%rax), %rcx
	movq	-184(%rbp), %rdx
	addq	$16, %rdx
	movq	%rdx, -168(%rbp)
	movq	-168(%rbp), %rdx
	movq	%rcx, -136(%rbp)
	movq	%rdx, -144(%rbp)
	movq	-136(%rbp), %rcx
	movq	-144(%rbp), %rdx
	movq	%rcx, -120(%rbp)
	movq	%rdx, -128(%rbp)
	movq	-128(%rbp), %rcx
	movq	%rcx, -104(%rbp)
	movq	-104(%rbp), %rcx
	movq	%rcx, -96(%rbp)
	movq	-96(%rbp), %rcx
	movq	%rcx, %rdi
	callq	__ZNSt3__14pairIKiNS_12basic_stringIcNS_11char_traitsIcEENS_9allocatorIcEEEEED1Ev
LBB23_6:
	cmpq	$0, -184(%rbp)
	je	LBB23_8
## BB#7:
	movq	-688(%rbp), %rax        ## 8-byte Reload
	movq	(%rax), %rcx
	movq	-184(%rbp), %rdx
	movq	%rcx, -72(%rbp)
	movq	%rdx, -80(%rbp)
	movq	$1, -88(%rbp)
	movq	-72(%rbp), %rcx
	movq	-80(%rbp), %rdx
	movq	-88(%rbp), %rsi
	movq	%rcx, -48(%rbp)
	movq	%rdx, -56(%rbp)
	movq	%rsi, -64(%rbp)
	movq	-56(%rbp), %rcx
	movq	%rcx, -40(%rbp)
	movq	-40(%rbp), %rdi
	callq	__ZdlPv
LBB23_8:                                ## %_ZNSt3__122__hash_node_destructorINS_9allocatorINS_11__hash_nodeINS_17__hash_value_typeIiNS_12basic_stringIcNS_11char_traitsIcEENS1_IcEEEEEEPvEEEEEclEPSB_.exit.i.i.i2
	jmp	LBB23_9
LBB23_9:                                ## %_ZNSt3__110unique_ptrINS_11__hash_nodeINS_17__hash_value_typeIiNS_12basic_stringIcNS_11char_traitsIcEENS_9allocatorIcEEEEEEPvEENS_22__hash_node_destructorINS6_ISB_EEEEED1Ev.exit3
	jmp	LBB23_17
LBB23_10:
	leaq	-616(%rbp), %rax
	movl	$1, -632(%rbp)
	movq	%rax, -552(%rbp)
	movq	-552(%rbp), %rax
	movq	%rax, -544(%rbp)
	movq	-544(%rbp), %rax
	movq	%rax, -520(%rbp)
	movq	$0, -528(%rbp)
	movq	-520(%rbp), %rax
	movq	%rax, -512(%rbp)
	movq	-512(%rbp), %rcx
	movq	%rcx, -504(%rbp)
	movq	-504(%rbp), %rcx
	movq	(%rcx), %rcx
	movq	%rcx, -536(%rbp)
	movq	-528(%rbp), %rcx
	movq	%rax, -344(%rbp)
	movq	-344(%rbp), %rdx
	movq	%rdx, -336(%rbp)
	movq	-336(%rbp), %rdx
	movq	%rcx, (%rdx)
	cmpq	$0, -536(%rbp)
	movq	%rax, -696(%rbp)        ## 8-byte Spill
	je	LBB23_16
## BB#11:
	movq	-696(%rbp), %rax        ## 8-byte Reload
	movq	%rax, -328(%rbp)
	movq	-328(%rbp), %rcx
	movq	%rcx, -320(%rbp)
	movq	-320(%rbp), %rcx
	addq	$8, %rcx
	movq	-536(%rbp), %rdx
	movq	%rcx, -488(%rbp)
	movq	%rdx, -496(%rbp)
	movq	-488(%rbp), %rcx
	testb	$1, 8(%rcx)
	movq	%rcx, -704(%rbp)        ## 8-byte Spill
	je	LBB23_13
## BB#12:
	movq	-704(%rbp), %rax        ## 8-byte Reload
	movq	(%rax), %rcx
	movq	-496(%rbp), %rdx
	addq	$16, %rdx
	movq	%rdx, -480(%rbp)
	movq	-480(%rbp), %rdx
	movq	%rcx, -448(%rbp)
	movq	%rdx, -456(%rbp)
	movq	-448(%rbp), %rcx
	movq	-456(%rbp), %rdx
	movq	%rcx, -432(%rbp)
	movq	%rdx, -440(%rbp)
	movq	-440(%rbp), %rcx
	movq	%rcx, -416(%rbp)
	movq	-416(%rbp), %rcx
	movq	%rcx, -408(%rbp)
	movq	-408(%rbp), %rcx
	movq	%rcx, %rdi
	callq	__ZNSt3__14pairIKiNS_12basic_stringIcNS_11char_traitsIcEENS_9allocatorIcEEEEED1Ev
LBB23_13:
	cmpq	$0, -496(%rbp)
	je	LBB23_15
## BB#14:
	movq	-704(%rbp), %rax        ## 8-byte Reload
	movq	(%rax), %rcx
	movq	-496(%rbp), %rdx
	movq	%rcx, -384(%rbp)
	movq	%rdx, -392(%rbp)
	movq	$1, -400(%rbp)
	movq	-384(%rbp), %rcx
	movq	-392(%rbp), %rdx
	movq	-400(%rbp), %rsi
	movq	%rcx, -360(%rbp)
	movq	%rdx, -368(%rbp)
	movq	%rsi, -376(%rbp)
	movq	-368(%rbp), %rcx
	movq	%rcx, -352(%rbp)
	movq	-352(%rbp), %rdi
	callq	__ZdlPv
LBB23_15:                               ## %_ZNSt3__122__hash_node_destructorINS_9allocatorINS_11__hash_nodeINS_17__hash_value_typeIiNS_12basic_stringIcNS_11char_traitsIcEENS1_IcEEEEEEPvEEEEEclEPSB_.exit.i.i.i
	jmp	LBB23_16
LBB23_16:                               ## %_ZNSt3__110unique_ptrINS_11__hash_nodeINS_17__hash_value_typeIiNS_12basic_stringIcNS_11char_traitsIcEENS_9allocatorIcEEEEEEPvEENS_22__hash_node_destructorINS6_ISB_EEEEED1Ev.exit
	movq	-576(%rbp), %rax
	movb	-568(%rbp), %dl
	addq	$704, %rsp              ## imm = 0x2C0
	popq	%rbp
	retq
LBB23_17:
	movq	-624(%rbp), %rdi
	callq	__Unwind_Resume
Lfunc_end23:
	.cfi_endproc
	.section	__TEXT,__gcc_except_tab
	.align	2
GCC_except_table23:
Lexception23:
	.byte	255                     ## @LPStart Encoding = omit
	.byte	155                     ## @TType Encoding = indirect pcrel sdata4
	.byte	41                      ## @TType base offset
	.byte	3                       ## Call site Encoding = udata4
	.byte	39                      ## Call site table length
Lset57 = Lfunc_begin23-Lfunc_begin23    ## >> Call Site 1 <<
	.long	Lset57
Lset58 = Ltmp153-Lfunc_begin23          ##   Call between Lfunc_begin23 and Ltmp153
	.long	Lset58
	.long	0                       ##     has no landing pad
	.byte	0                       ##   On action: cleanup
Lset59 = Ltmp153-Lfunc_begin23          ## >> Call Site 2 <<
	.long	Lset59
Lset60 = Ltmp154-Ltmp153                ##   Call between Ltmp153 and Ltmp154
	.long	Lset60
Lset61 = Ltmp155-Lfunc_begin23          ##     jumps to Ltmp155
	.long	Lset61
	.byte	0                       ##   On action: cleanup
Lset62 = Ltmp154-Lfunc_begin23          ## >> Call Site 3 <<
	.long	Lset62
Lset63 = Lfunc_end23-Ltmp154            ##   Call between Ltmp154 and Lfunc_end23
	.long	Lset63
	.long	0                       ##     has no landing pad
	.byte	0                       ##   On action: cleanup
	.align	2

	.section	__TEXT,__textcoal_nt,coalesced,pure_instructions
	.globl	__ZNSt3__112__hash_tableINS_17__hash_value_typeIiNS_12basic_stringIcNS_11char_traitsIcEENS_9allocatorIcEEEEEENS_22__unordered_map_hasherIiS8_NS_4hashIiEELb1EEENS_21__unordered_map_equalIiS8_NS_8equal_toIiEELb1EEENS5_IS8_EEE16__construct_nodeIJNS_4pairIiS7_EEEEENS_10unique_ptrINS_11__hash_nodeIS8_PvEENS_22__hash_node_destructorINS5_ISP_EEEEEEDpOT_
	.weak_def_can_be_hidden	__ZNSt3__112__hash_tableINS_17__hash_value_typeIiNS_12basic_stringIcNS_11char_traitsIcEENS_9allocatorIcEEEEEENS_22__unordered_map_hasherIiS8_NS_4hashIiEELb1EEENS_21__unordered_map_equalIiS8_NS_8equal_toIiEELb1EEENS5_IS8_EEE16__construct_nodeIJNS_4pairIiS7_EEEEENS_10unique_ptrINS_11__hash_nodeIS8_PvEENS_22__hash_node_destructorINS5_ISP_EEEEEEDpOT_
	.align	4, 0x90
__ZNSt3__112__hash_tableINS_17__hash_value_typeIiNS_12basic_stringIcNS_11char_traitsIcEENS_9allocatorIcEEEEEENS_22__unordered_map_hasherIiS8_NS_4hashIiEELb1EEENS_21__unordered_map_equalIiS8_NS_8equal_toIiEELb1EEENS5_IS8_EEE16__construct_nodeIJNS_4pairIiS7_EEEEENS_10unique_ptrINS_11__hash_nodeIS8_PvEENS_22__hash_node_destructorINS5_ISP_EEEEEEDpOT_: ## @_ZNSt3__112__hash_tableINS_17__hash_value_typeIiNS_12basic_stringIcNS_11char_traitsIcEENS_9allocatorIcEEEEEENS_22__unordered_map_hasherIiS8_NS_4hashIiEELb1EEENS_21__unordered_map_equalIiS8_NS_8equal_toIiEELb1EEENS5_IS8_EEE16__construct_nodeIJNS_4pairIiS7_EEEEENS_10unique_ptrINS_11__hash_nodeIS8_PvEENS_22__hash_node_destructorINS5_ISP_EEEEEEDpOT_
	.cfi_startproc
## BB#0:
	pushq	%rbp
Ltmp159:
	.cfi_def_cfa_offset 16
Ltmp160:
	.cfi_offset %rbp, -16
	movq	%rsp, %rbp
Ltmp161:
	.cfi_def_cfa_register %rbp
	pushq	%r14
	pushq	%rbx
	subq	$1424, %rsp             ## imm = 0x590
Ltmp162:
	.cfi_offset %rbx, -32
Ltmp163:
	.cfi_offset %r14, -24
	movq	%rdi, %rax
	movq	%rsi, -1336(%rbp)
	movq	%rdx, -1344(%rbp)
	movq	-1336(%rbp), %rdx
	movq	%rdx, -1328(%rbp)
	movq	-1328(%rbp), %rsi
	addq	$16, %rsi
	movq	%rsi, -1320(%rbp)
	movq	-1320(%rbp), %rsi
	movq	%rsi, -1312(%rbp)
	movq	-1312(%rbp), %rsi
	movq	%rsi, -1352(%rbp)
	movb	$0, -1353(%rbp)
	movq	-1352(%rbp), %rsi
	movq	%rsi, -1056(%rbp)
	movq	$1, -1064(%rbp)
	movq	-1056(%rbp), %rsi
	movq	-1064(%rbp), %rcx
	movq	%rsi, -1032(%rbp)
	movq	%rcx, -1040(%rbp)
	movq	$0, -1048(%rbp)
	imulq	$48, -1040(%rbp), %rcx
	movq	%rcx, -1024(%rbp)
	movq	-1024(%rbp), %rcx
	movq	%rdi, -1400(%rbp)       ## 8-byte Spill
	movq	%rcx, %rdi
	movq	%rax, -1408(%rbp)       ## 8-byte Spill
	movq	%rdx, -1416(%rbp)       ## 8-byte Spill
	callq	__Znwm
	leaq	-792(%rbp), %rcx
	leaq	-808(%rbp), %rdx
	leaq	-832(%rbp), %rsi
	leaq	-848(%rbp), %rdi
	leaq	-1376(%rbp), %r8
	movq	-1352(%rbp), %r9
	movq	%r8, -1000(%rbp)
	movq	%r9, -1008(%rbp)
	movb	$0, -1009(%rbp)
	movq	-1000(%rbp), %r9
	movb	-1009(%rbp), %r10b
	movq	-1008(%rbp), %r11
	movq	%r9, -976(%rbp)
	movq	%r11, -984(%rbp)
	andb	$1, %r10b
	movb	%r10b, -985(%rbp)
	movq	-976(%rbp), %r9
	movq	-984(%rbp), %r11
	movq	%r11, (%r9)
	movb	-985(%rbp), %r10b
	andb	$1, %r10b
	movb	%r10b, 8(%r9)
	movq	-1400(%rbp), %r9        ## 8-byte Reload
	movq	%r9, -952(%rbp)
	movq	%rax, -960(%rbp)
	movq	%r8, -968(%rbp)
	movq	-952(%rbp), %rax
	movq	-960(%rbp), %r8
	movq	-968(%rbp), %r11
	movq	%rax, -912(%rbp)
	movq	%r8, -920(%rbp)
	movq	%r11, -928(%rbp)
	movq	-912(%rbp), %rax
	movq	-920(%rbp), %r8
	movq	-928(%rbp), %r11
	movq	%r11, -904(%rbp)
	movq	-904(%rbp), %r11
	movq	(%r11), %rbx
	movq	%rbx, -944(%rbp)
	movq	8(%r11), %r11
	movq	%r11, -936(%rbp)
	movq	-944(%rbp), %r11
	movb	-936(%rbp), %r10b
	movq	%r11, -880(%rbp)
	movb	%r10b, -872(%rbp)
	movq	%rax, -888(%rbp)
	movq	%r8, -896(%rbp)
	movq	-888(%rbp), %rax
	movq	-896(%rbp), %r8
	movq	-880(%rbp), %r11
	movb	-872(%rbp), %r10b
	movq	%r11, -832(%rbp)
	movb	%r10b, -824(%rbp)
	movq	%rax, -840(%rbp)
	movq	%r8, -848(%rbp)
	movq	-840(%rbp), %rax
	movq	%rdi, -816(%rbp)
	movq	-816(%rbp), %rdi
	movq	(%rdi), %rdi
	movq	%rsi, -760(%rbp)
	movq	-760(%rbp), %rsi
	movq	(%rsi), %r8
	movq	%r8, -864(%rbp)
	movq	8(%rsi), %rsi
	movq	%rsi, -856(%rbp)
	movq	-864(%rbp), %rsi
	movb	-856(%rbp), %r10b
	movq	%rsi, -792(%rbp)
	movb	%r10b, -784(%rbp)
	movq	%rax, -800(%rbp)
	movq	%rdi, -808(%rbp)
	movq	-800(%rbp), %rax
	movq	%rdx, -776(%rbp)
	movq	-776(%rbp), %rdx
	movq	(%rdx), %rdx
	movq	%rdx, (%rax)
	movq	%rcx, -768(%rbp)
	movq	-768(%rbp), %rcx
	movq	(%rcx), %rdx
	movq	%rdx, 8(%rax)
	movq	8(%rcx), %rcx
	movq	%rcx, 16(%rax)
	movq	-1352(%rbp), %rax
	movq	%r9, -512(%rbp)
	movq	-512(%rbp), %rcx
	movq	%rcx, -504(%rbp)
	movq	-504(%rbp), %rcx
	movq	%rcx, -496(%rbp)
	movq	-496(%rbp), %rcx
	movq	(%rcx), %rcx
	addq	$16, %rcx
	movq	%rcx, -488(%rbp)
	movq	-488(%rbp), %rcx
	movq	-1344(%rbp), %rdx
	movq	%rdx, -24(%rbp)
	movq	-24(%rbp), %rdx
	movq	%rax, -296(%rbp)
	movq	%rcx, -304(%rbp)
	movq	%rdx, -312(%rbp)
	movq	-296(%rbp), %rax
	movq	-304(%rbp), %rcx
	movq	-312(%rbp), %rdx
	movq	%rdx, -288(%rbp)
	movq	-288(%rbp), %rdx
	movq	%rax, -264(%rbp)
	movq	%rcx, -272(%rbp)
	movq	%rdx, -280(%rbp)
	movq	-264(%rbp), %rax
	movq	-272(%rbp), %rcx
	movq	-280(%rbp), %rdx
	movq	%rdx, -248(%rbp)
	movq	-248(%rbp), %rdx
	movq	%rax, -224(%rbp)
	movq	%rcx, -232(%rbp)
	movq	%rdx, -240(%rbp)
	movq	-232(%rbp), %rax
	movq	-240(%rbp), %rcx
	movq	%rcx, -216(%rbp)
	movq	-216(%rbp), %rcx
	movq	%rax, -200(%rbp)
	movq	%rcx, -208(%rbp)
	movq	-200(%rbp), %rax
	movq	-208(%rbp), %rcx
	movq	%rax, -184(%rbp)
	movq	%rcx, -192(%rbp)
	movq	-184(%rbp), %rax
	movq	-192(%rbp), %rcx
	movq	%rcx, -176(%rbp)
	movq	-176(%rbp), %rcx
	movq	%rax, -152(%rbp)
	movq	%rcx, -160(%rbp)
	movq	$0, -168(%rbp)
	movq	-152(%rbp), %rax
	movq	-168(%rbp), %rcx
	movq	-160(%rbp), %rdx
	movq	%rax, -128(%rbp)
	movq	%rdx, -136(%rbp)
	movq	%rcx, -144(%rbp)
	movq	-128(%rbp), %rax
	movq	-136(%rbp), %rcx
	movq	%rcx, -120(%rbp)
	movq	-120(%rbp), %rcx
	movl	(%rcx), %r14d
	movl	%r14d, (%rax)
	addq	$8, %rax
	movq	-136(%rbp), %rcx
	addq	$8, %rcx
	movq	%rcx, -32(%rbp)
	movq	-32(%rbp), %rcx
	movq	%rax, -104(%rbp)
	movq	%rcx, -112(%rbp)
	movq	-104(%rbp), %rax
	movq	-112(%rbp), %rcx
	movq	%rax, -88(%rbp)
	movq	%rcx, -96(%rbp)
	movq	-88(%rbp), %rax
	movq	-96(%rbp), %rcx
	movq	%rcx, -80(%rbp)
	movq	-80(%rbp), %rcx
	movq	(%rcx), %rdx
	movq	%rdx, (%rax)
	movq	8(%rcx), %rdx
	movq	%rdx, 8(%rax)
	movq	16(%rcx), %rcx
	movq	%rcx, 16(%rax)
	movq	-96(%rbp), %rax
	movq	%rax, -56(%rbp)
	movq	-56(%rbp), %rax
	movq	%rax, -48(%rbp)
	movq	-48(%rbp), %rax
	movq	%rax, -40(%rbp)
	movq	-40(%rbp), %rax
	movq	%rax, -64(%rbp)
	movl	$0, -68(%rbp)
LBB24_1:                                ## =>This Inner Loop Header: Depth=1
	cmpl	$3, -68(%rbp)
	jae	LBB24_3
## BB#2:                                ##   in Loop: Header=BB24_1 Depth=1
	movl	-68(%rbp), %eax
	movl	%eax, %ecx
	movq	-64(%rbp), %rdx
	movq	$0, (%rdx,%rcx,8)
	movl	-68(%rbp), %eax
	addl	$1, %eax
	movl	%eax, -68(%rbp)
	jmp	LBB24_1
LBB24_3:                                ## %_ZNSt3__116allocator_traitsINS_9allocatorINS_11__hash_nodeINS_17__hash_value_typeIiNS_12basic_stringIcNS_11char_traitsIcEENS1_IcEEEEEEPvEEEEE9constructIS9_JNS_4pairIiS8_EEEEEvRSC_PT_DpOT0_.exit
	jmp	LBB24_4
LBB24_4:
	movq	-1400(%rbp), %rax       ## 8-byte Reload
	movq	%rax, -352(%rbp)
	movq	-352(%rbp), %rcx
	movq	%rcx, -344(%rbp)
	movq	-344(%rbp), %rcx
	movq	%rcx, -336(%rbp)
	movq	-336(%rbp), %rcx
	movb	$1, 16(%rcx)
	movq	-1416(%rbp), %rcx       ## 8-byte Reload
	movq	%rcx, -376(%rbp)
	movq	-376(%rbp), %rdx
	addq	$24, %rdx
	movq	%rdx, -368(%rbp)
	movq	-368(%rbp), %rdx
	movq	%rdx, -360(%rbp)
	movq	-360(%rbp), %rdx
	movq	%rax, -400(%rbp)
	movq	-400(%rbp), %rsi
	movq	%rsi, -392(%rbp)
	movq	-392(%rbp), %rsi
	movq	%rsi, -384(%rbp)
	movq	-384(%rbp), %rsi
	movq	(%rsi), %rsi
	addq	$16, %rsi
	movq	%rdx, -424(%rbp)
	movq	%rsi, -432(%rbp)
	movq	-424(%rbp), %rdx
	movq	-432(%rbp), %rsi
	movl	(%rsi), %edi
	movq	%rdx, -408(%rbp)
	movl	%edi, -412(%rbp)
	movslq	-412(%rbp), %rdx
	movq	%rdx, -1424(%rbp)       ## 8-byte Spill
## BB#5:
	movq	-1400(%rbp), %rax       ## 8-byte Reload
	movq	%rax, -456(%rbp)
	movq	-456(%rbp), %rcx
	movq	%rcx, -448(%rbp)
	movq	-448(%rbp), %rcx
	movq	%rcx, -440(%rbp)
	movq	-440(%rbp), %rcx
	movq	(%rcx), %rcx
	movq	-1424(%rbp), %rdx       ## 8-byte Reload
	movq	%rdx, 8(%rcx)
	movq	%rax, -480(%rbp)
	movq	-480(%rbp), %rcx
	movq	%rcx, -472(%rbp)
	movq	-472(%rbp), %rcx
	movq	%rcx, -464(%rbp)
	movq	-464(%rbp), %rcx
	movq	(%rcx), %rcx
	movq	$0, (%rcx)
	movb	$1, -1353(%rbp)
	movl	$1, -1392(%rbp)
	testb	$1, -1353(%rbp)
	jne	LBB24_13
## BB#6:
	movq	-1400(%rbp), %rax       ## 8-byte Reload
	movq	%rax, -1304(%rbp)
	movq	-1304(%rbp), %rcx
	movq	%rcx, -1296(%rbp)
	movq	-1296(%rbp), %rcx
	movq	%rcx, -1272(%rbp)
	movq	$0, -1280(%rbp)
	movq	-1272(%rbp), %rcx
	movq	%rcx, -1264(%rbp)
	movq	-1264(%rbp), %rdx
	movq	%rdx, -1256(%rbp)
	movq	-1256(%rbp), %rdx
	movq	(%rdx), %rdx
	movq	%rdx, -1288(%rbp)
	movq	-1280(%rbp), %rdx
	movq	%rcx, -1096(%rbp)
	movq	-1096(%rbp), %rsi
	movq	%rsi, -1088(%rbp)
	movq	-1088(%rbp), %rsi
	movq	%rdx, (%rsi)
	cmpq	$0, -1288(%rbp)
	movq	%rcx, -1432(%rbp)       ## 8-byte Spill
	je	LBB24_12
## BB#7:
	movq	-1432(%rbp), %rax       ## 8-byte Reload
	movq	%rax, -1080(%rbp)
	movq	-1080(%rbp), %rcx
	movq	%rcx, -1072(%rbp)
	movq	-1072(%rbp), %rcx
	addq	$8, %rcx
	movq	-1288(%rbp), %rdx
	movq	%rcx, -1240(%rbp)
	movq	%rdx, -1248(%rbp)
	movq	-1240(%rbp), %rcx
	testb	$1, 8(%rcx)
	movq	%rcx, -1440(%rbp)       ## 8-byte Spill
	je	LBB24_9
## BB#8:
	movq	-1440(%rbp), %rax       ## 8-byte Reload
	movq	(%rax), %rcx
	movq	-1248(%rbp), %rdx
	addq	$16, %rdx
	movq	%rdx, -1232(%rbp)
	movq	-1232(%rbp), %rdx
	movq	%rcx, -1200(%rbp)
	movq	%rdx, -1208(%rbp)
	movq	-1200(%rbp), %rcx
	movq	-1208(%rbp), %rdx
	movq	%rcx, -1184(%rbp)
	movq	%rdx, -1192(%rbp)
	movq	-1192(%rbp), %rcx
	movq	%rcx, -1168(%rbp)
	movq	-1168(%rbp), %rcx
	movq	%rcx, -1160(%rbp)
	movq	-1160(%rbp), %rcx
	movq	%rcx, %rdi
	callq	__ZNSt3__14pairIKiNS_12basic_stringIcNS_11char_traitsIcEENS_9allocatorIcEEEEED1Ev
LBB24_9:
	cmpq	$0, -1248(%rbp)
	je	LBB24_11
## BB#10:
	movq	-1440(%rbp), %rax       ## 8-byte Reload
	movq	(%rax), %rcx
	movq	-1248(%rbp), %rdx
	movq	%rcx, -1136(%rbp)
	movq	%rdx, -1144(%rbp)
	movq	$1, -1152(%rbp)
	movq	-1136(%rbp), %rcx
	movq	-1144(%rbp), %rdx
	movq	-1152(%rbp), %rsi
	movq	%rcx, -1112(%rbp)
	movq	%rdx, -1120(%rbp)
	movq	%rsi, -1128(%rbp)
	movq	-1120(%rbp), %rcx
	movq	%rcx, -1104(%rbp)
	movq	-1104(%rbp), %rdi
	callq	__ZdlPv
LBB24_11:                               ## %_ZNSt3__122__hash_node_destructorINS_9allocatorINS_11__hash_nodeINS_17__hash_value_typeIiNS_12basic_stringIcNS_11char_traitsIcEENS1_IcEEEEEEPvEEEEEclEPSB_.exit.i.i.i
	jmp	LBB24_12
LBB24_12:                               ## %_ZNSt3__110unique_ptrINS_11__hash_nodeINS_17__hash_value_typeIiNS_12basic_stringIcNS_11char_traitsIcEENS_9allocatorIcEEEEEEPvEENS_22__hash_node_destructorINS6_ISB_EEEEED1Ev.exit
	jmp	LBB24_13
LBB24_13:
	movq	-1408(%rbp), %rax       ## 8-byte Reload
	addq	$1424, %rsp             ## imm = 0x590
	popq	%rbx
	popq	%r14
	popq	%rbp
	retq
	.cfi_endproc

	.globl	__ZNSt3__124__put_character_sequenceIcNS_11char_traitsIcEEEERNS_13basic_ostreamIT_T0_EES7_PKS4_m
	.weak_def_can_be_hidden	__ZNSt3__124__put_character_sequenceIcNS_11char_traitsIcEEEERNS_13basic_ostreamIT_T0_EES7_PKS4_m
	.align	4, 0x90
__ZNSt3__124__put_character_sequenceIcNS_11char_traitsIcEEEERNS_13basic_ostreamIT_T0_EES7_PKS4_m: ## @_ZNSt3__124__put_character_sequenceIcNS_11char_traitsIcEEEERNS_13basic_ostreamIT_T0_EES7_PKS4_m
Lfunc_begin25:
	.cfi_startproc
	.cfi_personality 155, ___gxx_personality_v0
	.cfi_lsda 16, Lexception25
## BB#0:
	pushq	%rbp
Ltmp185:
	.cfi_def_cfa_offset 16
Ltmp186:
	.cfi_offset %rbp, -16
	movq	%rsp, %rbp
Ltmp187:
	.cfi_def_cfa_register %rbp
	subq	$384, %rsp              ## imm = 0x180
	movq	%rdi, -184(%rbp)
	movq	%rsi, -192(%rbp)
	movq	%rdx, -200(%rbp)
	movq	-184(%rbp), %rsi
Ltmp164:
	leaq	-216(%rbp), %rdi
	callq	__ZNSt3__113basic_ostreamIcNS_11char_traitsIcEEE6sentryC1ERS3_
Ltmp165:
	jmp	LBB25_1
LBB25_1:
	leaq	-216(%rbp), %rax
	movq	%rax, -176(%rbp)
	movq	-176(%rbp), %rax
	movb	(%rax), %cl
	movb	%cl, -249(%rbp)         ## 1-byte Spill
## BB#2:
	movb	-249(%rbp), %al         ## 1-byte Reload
	testb	$1, %al
	jne	LBB25_3
	jmp	LBB25_26
LBB25_3:
	leaq	-240(%rbp), %rax
	movq	-184(%rbp), %rcx
	movq	%rax, -160(%rbp)
	movq	%rcx, -168(%rbp)
	movq	-160(%rbp), %rax
	movq	-168(%rbp), %rcx
	movq	%rax, -144(%rbp)
	movq	%rcx, -152(%rbp)
	movq	-144(%rbp), %rax
	movq	-152(%rbp), %rcx
	movq	(%rcx), %rdx
	movq	-24(%rdx), %rdx
	addq	%rdx, %rcx
	movq	%rcx, -136(%rbp)
	movq	-136(%rbp), %rcx
	movq	%rcx, -128(%rbp)
	movq	-128(%rbp), %rcx
	movq	40(%rcx), %rcx
	movq	%rcx, (%rax)
	movq	-192(%rbp), %rsi
	movq	-184(%rbp), %rax
	movq	(%rax), %rcx
	movq	-24(%rcx), %rcx
	addq	%rcx, %rax
	movq	%rax, -88(%rbp)
	movq	-88(%rbp), %rax
	movl	8(%rax), %edi
	movq	%rsi, -264(%rbp)        ## 8-byte Spill
	movl	%edi, -268(%rbp)        ## 4-byte Spill
## BB#4:
	movl	-268(%rbp), %eax        ## 4-byte Reload
	andl	$176, %eax
	cmpl	$32, %eax
	jne	LBB25_6
## BB#5:
	movq	-192(%rbp), %rax
	addq	-200(%rbp), %rax
	movq	%rax, -280(%rbp)        ## 8-byte Spill
	jmp	LBB25_7
LBB25_6:
	movq	-192(%rbp), %rax
	movq	%rax, -280(%rbp)        ## 8-byte Spill
LBB25_7:
	movq	-280(%rbp), %rax        ## 8-byte Reload
	movq	-192(%rbp), %rcx
	addq	-200(%rbp), %rcx
	movq	-184(%rbp), %rdx
	movq	(%rdx), %rsi
	movq	-24(%rsi), %rsi
	addq	%rsi, %rdx
	movq	-184(%rbp), %rsi
	movq	(%rsi), %rdi
	movq	-24(%rdi), %rdi
	addq	%rdi, %rsi
	movq	%rsi, -72(%rbp)
	movq	-72(%rbp), %rsi
	movq	%rax, -288(%rbp)        ## 8-byte Spill
	movq	%rcx, -296(%rbp)        ## 8-byte Spill
	movq	%rdx, -304(%rbp)        ## 8-byte Spill
	movq	%rsi, -312(%rbp)        ## 8-byte Spill
	callq	__ZNSt3__111char_traitsIcE3eofEv
	movq	-312(%rbp), %rcx        ## 8-byte Reload
	movl	144(%rcx), %esi
	movl	%eax, %edi
	callq	__ZNSt3__111char_traitsIcE11eq_int_typeEii
	testb	$1, %al
	jne	LBB25_8
	jmp	LBB25_13
LBB25_8:
	movq	-312(%rbp), %rax        ## 8-byte Reload
	movq	%rax, -32(%rbp)
	movb	$32, -33(%rbp)
	movq	-32(%rbp), %rsi
Ltmp167:
	leaq	-48(%rbp), %rdi
	callq	__ZNKSt3__18ios_base6getlocEv
Ltmp168:
	jmp	LBB25_9
LBB25_9:                                ## %.noexc
	leaq	-48(%rbp), %rax
	movq	%rax, -24(%rbp)
Ltmp169:
	movq	__ZNSt3__15ctypeIcE2idE@GOTPCREL(%rip), %rsi
	movq	%rax, %rdi
	callq	__ZNKSt3__16locale9use_facetERNS0_2idE
Ltmp170:
	movq	%rax, -320(%rbp)        ## 8-byte Spill
	jmp	LBB25_10
LBB25_10:                               ## %_ZNSt3__19use_facetINS_5ctypeIcEEEERKT_RKNS_6localeE.exit.i.i
	movb	-33(%rbp), %al
	movq	-320(%rbp), %rcx        ## 8-byte Reload
	movq	%rcx, -8(%rbp)
	movb	%al, -9(%rbp)
	movq	-8(%rbp), %rdx
	movq	(%rdx), %rsi
	movq	56(%rsi), %rsi
	movsbl	-9(%rbp), %edi
Ltmp171:
	movl	%edi, -324(%rbp)        ## 4-byte Spill
	movq	%rdx, %rdi
	movl	-324(%rbp), %r8d        ## 4-byte Reload
	movq	%rsi, -336(%rbp)        ## 8-byte Spill
	movl	%r8d, %esi
	movq	-336(%rbp), %rdx        ## 8-byte Reload
	callq	*%rdx
Ltmp172:
	movb	%al, -337(%rbp)         ## 1-byte Spill
	jmp	LBB25_12
LBB25_11:
Ltmp173:
	movl	%edx, %ecx
	movq	%rax, -56(%rbp)
	movl	%ecx, -60(%rbp)
	leaq	-48(%rbp), %rdi
	callq	__ZNSt3__16localeD1Ev
	movq	-56(%rbp), %rax
	movl	-60(%rbp), %ecx
	movq	%rax, -352(%rbp)        ## 8-byte Spill
	movl	%ecx, -356(%rbp)        ## 4-byte Spill
	jmp	LBB25_21
LBB25_12:                               ## %_ZNKSt3__19basic_iosIcNS_11char_traitsIcEEE5widenEc.exit.i
	leaq	-48(%rbp), %rdi
	callq	__ZNSt3__16localeD1Ev
	movb	-337(%rbp), %al         ## 1-byte Reload
	movsbl	%al, %ecx
	movq	-312(%rbp), %rdi        ## 8-byte Reload
	movl	%ecx, 144(%rdi)
LBB25_13:                               ## %_ZNKSt3__19basic_iosIcNS_11char_traitsIcEEE4fillEv.exit
	movq	-312(%rbp), %rax        ## 8-byte Reload
	movl	144(%rax), %ecx
	movb	%cl, %dl
	movb	%dl, -357(%rbp)         ## 1-byte Spill
## BB#14:
	movq	-240(%rbp), %rdi
Ltmp174:
	movb	-357(%rbp), %al         ## 1-byte Reload
	movsbl	%al, %r9d
	movq	-264(%rbp), %rsi        ## 8-byte Reload
	movq	-288(%rbp), %rdx        ## 8-byte Reload
	movq	-296(%rbp), %rcx        ## 8-byte Reload
	movq	-304(%rbp), %r8         ## 8-byte Reload
	callq	__ZNSt3__116__pad_and_outputIcNS_11char_traitsIcEEEENS_19ostreambuf_iteratorIT_T0_EES6_PKS4_S8_S8_RNS_8ios_baseES4_
Ltmp175:
	movq	%rax, -368(%rbp)        ## 8-byte Spill
	jmp	LBB25_15
LBB25_15:
	leaq	-248(%rbp), %rax
	movq	-368(%rbp), %rcx        ## 8-byte Reload
	movq	%rcx, -248(%rbp)
	movq	%rax, -80(%rbp)
	movq	-80(%rbp), %rax
	cmpq	$0, (%rax)
	jne	LBB25_25
## BB#16:
	movq	-184(%rbp), %rax
	movq	(%rax), %rcx
	movq	-24(%rcx), %rcx
	addq	%rcx, %rax
	movq	%rax, -112(%rbp)
	movl	$5, -116(%rbp)
	movq	-112(%rbp), %rax
	movq	%rax, -96(%rbp)
	movl	$5, -100(%rbp)
	movq	-96(%rbp), %rax
	movl	32(%rax), %edx
	orl	$5, %edx
Ltmp176:
	movq	%rax, %rdi
	movl	%edx, %esi
	callq	__ZNSt3__18ios_base5clearEj
Ltmp177:
	jmp	LBB25_17
LBB25_17:                               ## %_ZNSt3__19basic_iosIcNS_11char_traitsIcEEE8setstateEj.exit
	jmp	LBB25_18
LBB25_18:
	jmp	LBB25_25
LBB25_19:
Ltmp166:
	movl	%edx, %ecx
	movq	%rax, -224(%rbp)
	movl	%ecx, -228(%rbp)
	jmp	LBB25_22
LBB25_20:
Ltmp178:
	movl	%edx, %ecx
	movq	%rax, -352(%rbp)        ## 8-byte Spill
	movl	%ecx, -356(%rbp)        ## 4-byte Spill
	jmp	LBB25_21
LBB25_21:                               ## %.body
	movl	-356(%rbp), %eax        ## 4-byte Reload
	movq	-352(%rbp), %rcx        ## 8-byte Reload
	leaq	-216(%rbp), %rdi
	movq	%rcx, -224(%rbp)
	movl	%eax, -228(%rbp)
	callq	__ZNSt3__113basic_ostreamIcNS_11char_traitsIcEEE6sentryD1Ev
LBB25_22:
	movq	-224(%rbp), %rdi
	callq	___cxa_begin_catch
	movq	-184(%rbp), %rdi
	movq	(%rdi), %rcx
	movq	-24(%rcx), %rcx
	addq	%rcx, %rdi
Ltmp179:
	movq	%rax, -376(%rbp)        ## 8-byte Spill
	callq	__ZNSt3__18ios_base33__set_badbit_and_consider_rethrowEv
Ltmp180:
	jmp	LBB25_23
LBB25_23:
	callq	___cxa_end_catch
LBB25_24:
	movq	-184(%rbp), %rax
	addq	$384, %rsp              ## imm = 0x180
	popq	%rbp
	retq
LBB25_25:
	jmp	LBB25_26
LBB25_26:
	leaq	-216(%rbp), %rdi
	callq	__ZNSt3__113basic_ostreamIcNS_11char_traitsIcEEE6sentryD1Ev
	jmp	LBB25_24
LBB25_27:
Ltmp181:
	movl	%edx, %ecx
	movq	%rax, -224(%rbp)
	movl	%ecx, -228(%rbp)
Ltmp182:
	callq	___cxa_end_catch
Ltmp183:
	jmp	LBB25_28
LBB25_28:
	jmp	LBB25_29
LBB25_29:
	movq	-224(%rbp), %rdi
	callq	__Unwind_Resume
LBB25_30:
Ltmp184:
	movl	%edx, %ecx
	movq	%rax, %rdi
	movl	%ecx, -380(%rbp)        ## 4-byte Spill
	callq	___clang_call_terminate
Lfunc_end25:
	.cfi_endproc
	.section	__TEXT,__gcc_except_tab
	.align	2
GCC_except_table25:
Lexception25:
	.byte	255                     ## @LPStart Encoding = omit
	.byte	155                     ## @TType Encoding = indirect pcrel sdata4
	.asciz	"\201\201\200\200"      ## @TType base offset
	.byte	3                       ## Call site Encoding = udata4
	.byte	117                     ## Call site table length
Lset64 = Ltmp164-Lfunc_begin25          ## >> Call Site 1 <<
	.long	Lset64
Lset65 = Ltmp165-Ltmp164                ##   Call between Ltmp164 and Ltmp165
	.long	Lset65
Lset66 = Ltmp166-Lfunc_begin25          ##     jumps to Ltmp166
	.long	Lset66
	.byte	5                       ##   On action: 3
Lset67 = Ltmp167-Lfunc_begin25          ## >> Call Site 2 <<
	.long	Lset67
Lset68 = Ltmp168-Ltmp167                ##   Call between Ltmp167 and Ltmp168
	.long	Lset68
Lset69 = Ltmp178-Lfunc_begin25          ##     jumps to Ltmp178
	.long	Lset69
	.byte	5                       ##   On action: 3
Lset70 = Ltmp169-Lfunc_begin25          ## >> Call Site 3 <<
	.long	Lset70
Lset71 = Ltmp172-Ltmp169                ##   Call between Ltmp169 and Ltmp172
	.long	Lset71
Lset72 = Ltmp173-Lfunc_begin25          ##     jumps to Ltmp173
	.long	Lset72
	.byte	3                       ##   On action: 2
Lset73 = Ltmp174-Lfunc_begin25          ## >> Call Site 4 <<
	.long	Lset73
Lset74 = Ltmp177-Ltmp174                ##   Call between Ltmp174 and Ltmp177
	.long	Lset74
Lset75 = Ltmp178-Lfunc_begin25          ##     jumps to Ltmp178
	.long	Lset75
	.byte	5                       ##   On action: 3
Lset76 = Ltmp177-Lfunc_begin25          ## >> Call Site 5 <<
	.long	Lset76
Lset77 = Ltmp179-Ltmp177                ##   Call between Ltmp177 and Ltmp179
	.long	Lset77
	.long	0                       ##     has no landing pad
	.byte	0                       ##   On action: cleanup
Lset78 = Ltmp179-Lfunc_begin25          ## >> Call Site 6 <<
	.long	Lset78
Lset79 = Ltmp180-Ltmp179                ##   Call between Ltmp179 and Ltmp180
	.long	Lset79
Lset80 = Ltmp181-Lfunc_begin25          ##     jumps to Ltmp181
	.long	Lset80
	.byte	0                       ##   On action: cleanup
Lset81 = Ltmp180-Lfunc_begin25          ## >> Call Site 7 <<
	.long	Lset81
Lset82 = Ltmp182-Ltmp180                ##   Call between Ltmp180 and Ltmp182
	.long	Lset82
	.long	0                       ##     has no landing pad
	.byte	0                       ##   On action: cleanup
Lset83 = Ltmp182-Lfunc_begin25          ## >> Call Site 8 <<
	.long	Lset83
Lset84 = Ltmp183-Ltmp182                ##   Call between Ltmp182 and Ltmp183
	.long	Lset84
Lset85 = Ltmp184-Lfunc_begin25          ##     jumps to Ltmp184
	.long	Lset85
	.byte	5                       ##   On action: 3
Lset86 = Ltmp183-Lfunc_begin25          ## >> Call Site 9 <<
	.long	Lset86
Lset87 = Lfunc_end25-Ltmp183            ##   Call between Ltmp183 and Lfunc_end25
	.long	Lset87
	.long	0                       ##     has no landing pad
	.byte	0                       ##   On action: cleanup
	.byte	0                       ## >> Action Record 1 <<
                                        ##   Cleanup
	.byte	0                       ##   No further actions
	.byte	1                       ## >> Action Record 2 <<
                                        ##   Catch TypeInfo 1
	.byte	125                     ##   Continue to action 1
	.byte	1                       ## >> Action Record 3 <<
                                        ##   Catch TypeInfo 1
	.byte	0                       ##   No further actions
                                        ## >> Catch TypeInfos <<
	.long	0                       ## TypeInfo 1
	.align	2

	.section	__TEXT,__textcoal_nt,coalesced,pure_instructions
	.private_extern	__ZNSt3__116__pad_and_outputIcNS_11char_traitsIcEEEENS_19ostreambuf_iteratorIT_T0_EES6_PKS4_S8_S8_RNS_8ios_baseES4_
	.globl	__ZNSt3__116__pad_and_outputIcNS_11char_traitsIcEEEENS_19ostreambuf_iteratorIT_T0_EES6_PKS4_S8_S8_RNS_8ios_baseES4_
	.weak_def_can_be_hidden	__ZNSt3__116__pad_and_outputIcNS_11char_traitsIcEEEENS_19ostreambuf_iteratorIT_T0_EES6_PKS4_S8_S8_RNS_8ios_baseES4_
	.align	4, 0x90
__ZNSt3__116__pad_and_outputIcNS_11char_traitsIcEEEENS_19ostreambuf_iteratorIT_T0_EES6_PKS4_S8_S8_RNS_8ios_baseES4_: ## @_ZNSt3__116__pad_and_outputIcNS_11char_traitsIcEEEENS_19ostreambuf_iteratorIT_T0_EES6_PKS4_S8_S8_RNS_8ios_baseES4_
Lfunc_begin26:
	.cfi_startproc
	.cfi_personality 155, ___gxx_personality_v0
	.cfi_lsda 16, Lexception26
## BB#0:
	pushq	%rbp
Ltmp191:
	.cfi_def_cfa_offset 16
Ltmp192:
	.cfi_offset %rbp, -16
	movq	%rsp, %rbp
Ltmp193:
	.cfi_def_cfa_register %rbp
	subq	$480, %rsp              ## imm = 0x1E0
	movb	%r9b, %al
	movq	%rdi, -312(%rbp)
	movq	%rsi, -320(%rbp)
	movq	%rdx, -328(%rbp)
	movq	%rcx, -336(%rbp)
	movq	%r8, -344(%rbp)
	movb	%al, -345(%rbp)
	cmpq	$0, -312(%rbp)
	jne	LBB26_2
## BB#1:
	movq	-312(%rbp), %rax
	movq	%rax, -304(%rbp)
	jmp	LBB26_26
LBB26_2:
	movq	-336(%rbp), %rax
	movq	-320(%rbp), %rcx
	subq	%rcx, %rax
	movq	%rax, -360(%rbp)
	movq	-344(%rbp), %rax
	movq	%rax, -296(%rbp)
	movq	-296(%rbp), %rax
	movq	24(%rax), %rax
	movq	%rax, -368(%rbp)
	movq	-368(%rbp), %rax
	cmpq	-360(%rbp), %rax
	jle	LBB26_4
## BB#3:
	movq	-360(%rbp), %rax
	movq	-368(%rbp), %rcx
	subq	%rax, %rcx
	movq	%rcx, -368(%rbp)
	jmp	LBB26_5
LBB26_4:
	movq	$0, -368(%rbp)
LBB26_5:
	movq	-328(%rbp), %rax
	movq	-320(%rbp), %rcx
	subq	%rcx, %rax
	movq	%rax, -376(%rbp)
	cmpq	$0, -376(%rbp)
	jle	LBB26_9
## BB#6:
	movq	-312(%rbp), %rax
	movq	-320(%rbp), %rcx
	movq	-376(%rbp), %rdx
	movq	%rax, -224(%rbp)
	movq	%rcx, -232(%rbp)
	movq	%rdx, -240(%rbp)
	movq	-224(%rbp), %rax
	movq	(%rax), %rcx
	movq	96(%rcx), %rcx
	movq	-232(%rbp), %rsi
	movq	-240(%rbp), %rdx
	movq	%rax, %rdi
	callq	*%rcx
	cmpq	-376(%rbp), %rax
	je	LBB26_8
## BB#7:
	movq	$0, -312(%rbp)
	movq	-312(%rbp), %rax
	movq	%rax, -304(%rbp)
	jmp	LBB26_26
LBB26_8:
	jmp	LBB26_9
LBB26_9:
	cmpq	$0, -368(%rbp)
	jle	LBB26_21
## BB#10:
	leaq	-400(%rbp), %rax
	movq	-368(%rbp), %rcx
	movb	-345(%rbp), %dl
	movq	%rax, -200(%rbp)
	movq	%rcx, -208(%rbp)
	movb	%dl, -209(%rbp)
	movq	-200(%rbp), %rax
	movq	-208(%rbp), %rcx
	movb	-209(%rbp), %dl
	movq	%rax, -176(%rbp)
	movq	%rcx, -184(%rbp)
	movb	%dl, -185(%rbp)
	movq	-176(%rbp), %rax
	movq	%rax, -168(%rbp)
	movq	-168(%rbp), %rcx
	movq	%rcx, -160(%rbp)
	movq	-160(%rbp), %rcx
	movq	%rcx, -152(%rbp)
	movq	-152(%rbp), %rcx
	movq	%rcx, -144(%rbp)
	movq	-184(%rbp), %rsi
	movq	%rax, %rdi
	movsbl	-185(%rbp), %edx
	callq	__ZNSt3__112basic_stringIcNS_11char_traitsIcEENS_9allocatorIcEEE6__initEmc
	leaq	-400(%rbp), %rax
	movq	-312(%rbp), %rcx
	movq	%rax, -136(%rbp)
	movq	-136(%rbp), %rax
	movq	%rax, -128(%rbp)
	movq	-128(%rbp), %rax
	movq	%rax, -120(%rbp)
	movq	-120(%rbp), %rsi
	movq	%rsi, -112(%rbp)
	movq	-112(%rbp), %rsi
	movq	%rsi, -104(%rbp)
	movq	-104(%rbp), %rsi
	movzbl	(%rsi), %edx
	andl	$1, %edx
	cmpl	$0, %edx
	movq	%rcx, -424(%rbp)        ## 8-byte Spill
	movq	%rax, -432(%rbp)        ## 8-byte Spill
	je	LBB26_12
## BB#11:
	movq	-432(%rbp), %rax        ## 8-byte Reload
	movq	%rax, -56(%rbp)
	movq	-56(%rbp), %rcx
	movq	%rcx, -48(%rbp)
	movq	-48(%rbp), %rcx
	movq	%rcx, -40(%rbp)
	movq	-40(%rbp), %rcx
	movq	16(%rcx), %rcx
	movq	%rcx, -440(%rbp)        ## 8-byte Spill
	jmp	LBB26_13
LBB26_12:
	movq	-432(%rbp), %rax        ## 8-byte Reload
	movq	%rax, -96(%rbp)
	movq	-96(%rbp), %rcx
	movq	%rcx, -88(%rbp)
	movq	-88(%rbp), %rcx
	movq	%rcx, -80(%rbp)
	movq	-80(%rbp), %rcx
	addq	$1, %rcx
	movq	%rcx, -72(%rbp)
	movq	-72(%rbp), %rcx
	movq	%rcx, -64(%rbp)
	movq	-64(%rbp), %rcx
	movq	%rcx, -440(%rbp)        ## 8-byte Spill
LBB26_13:                               ## %_ZNKSt3__112basic_stringIcNS_11char_traitsIcEENS_9allocatorIcEEE4dataEv.exit
	movq	-440(%rbp), %rax        ## 8-byte Reload
	movq	%rax, -32(%rbp)
	movq	-368(%rbp), %rcx
	movq	-424(%rbp), %rdx        ## 8-byte Reload
	movq	%rdx, -8(%rbp)
	movq	%rax, -16(%rbp)
	movq	%rcx, -24(%rbp)
	movq	-8(%rbp), %rax
	movq	(%rax), %rsi
	movq	96(%rsi), %rsi
	movq	-16(%rbp), %rdi
Ltmp188:
	movq	%rdi, -448(%rbp)        ## 8-byte Spill
	movq	%rax, %rdi
	movq	-448(%rbp), %rax        ## 8-byte Reload
	movq	%rsi, -456(%rbp)        ## 8-byte Spill
	movq	%rax, %rsi
	movq	%rcx, %rdx
	movq	-456(%rbp), %rcx        ## 8-byte Reload
	callq	*%rcx
Ltmp189:
	movq	%rax, -464(%rbp)        ## 8-byte Spill
	jmp	LBB26_14
LBB26_14:                               ## %_ZNSt3__115basic_streambufIcNS_11char_traitsIcEEE5sputnEPKcl.exit
	jmp	LBB26_15
LBB26_15:
	movq	-464(%rbp), %rax        ## 8-byte Reload
	cmpq	-368(%rbp), %rax
	je	LBB26_18
## BB#16:
	movq	$0, -312(%rbp)
	movq	-312(%rbp), %rax
	movq	%rax, -304(%rbp)
	movl	$1, -416(%rbp)
	jmp	LBB26_19
LBB26_17:
Ltmp190:
	leaq	-400(%rbp), %rdi
	movl	%edx, %ecx
	movq	%rax, -408(%rbp)
	movl	%ecx, -412(%rbp)
	callq	__ZNSt3__112basic_stringIcNS_11char_traitsIcEENS_9allocatorIcEEED1Ev
	jmp	LBB26_27
LBB26_18:
	movl	$0, -416(%rbp)
LBB26_19:
	leaq	-400(%rbp), %rdi
	callq	__ZNSt3__112basic_stringIcNS_11char_traitsIcEENS_9allocatorIcEEED1Ev
	movl	-416(%rbp), %eax
	subl	$1, %eax
	movl	%eax, -468(%rbp)        ## 4-byte Spill
	je	LBB26_26
	jmp	LBB26_20
LBB26_20:
	jmp	LBB26_21
LBB26_21:
	movq	-336(%rbp), %rax
	movq	-328(%rbp), %rcx
	subq	%rcx, %rax
	movq	%rax, -376(%rbp)
	cmpq	$0, -376(%rbp)
	jle	LBB26_25
## BB#22:
	movq	-312(%rbp), %rax
	movq	-328(%rbp), %rcx
	movq	-376(%rbp), %rdx
	movq	%rax, -248(%rbp)
	movq	%rcx, -256(%rbp)
	movq	%rdx, -264(%rbp)
	movq	-248(%rbp), %rax
	movq	(%rax), %rcx
	movq	96(%rcx), %rcx
	movq	-256(%rbp), %rsi
	movq	-264(%rbp), %rdx
	movq	%rax, %rdi
	callq	*%rcx
	cmpq	-376(%rbp), %rax
	je	LBB26_24
## BB#23:
	movq	$0, -312(%rbp)
	movq	-312(%rbp), %rax
	movq	%rax, -304(%rbp)
	jmp	LBB26_26
LBB26_24:
	jmp	LBB26_25
LBB26_25:
	movq	-344(%rbp), %rax
	movq	%rax, -272(%rbp)
	movq	$0, -280(%rbp)
	movq	-272(%rbp), %rax
	movq	24(%rax), %rcx
	movq	%rcx, -288(%rbp)
	movq	-280(%rbp), %rcx
	movq	%rcx, 24(%rax)
	movq	-312(%rbp), %rax
	movq	%rax, -304(%rbp)
LBB26_26:
	movq	-304(%rbp), %rax
	addq	$480, %rsp              ## imm = 0x1E0
	popq	%rbp
	retq
LBB26_27:
	movq	-408(%rbp), %rdi
	callq	__Unwind_Resume
## BB#28:
Lfunc_end26:
	.cfi_endproc
	.section	__TEXT,__gcc_except_tab
	.align	2
GCC_except_table26:
Lexception26:
	.byte	255                     ## @LPStart Encoding = omit
	.byte	155                     ## @TType Encoding = indirect pcrel sdata4
	.byte	41                      ## @TType base offset
	.byte	3                       ## Call site Encoding = udata4
	.byte	39                      ## Call site table length
Lset88 = Lfunc_begin26-Lfunc_begin26    ## >> Call Site 1 <<
	.long	Lset88
Lset89 = Ltmp188-Lfunc_begin26          ##   Call between Lfunc_begin26 and Ltmp188
	.long	Lset89
	.long	0                       ##     has no landing pad
	.byte	0                       ##   On action: cleanup
Lset90 = Ltmp188-Lfunc_begin26          ## >> Call Site 2 <<
	.long	Lset90
Lset91 = Ltmp189-Ltmp188                ##   Call between Ltmp188 and Ltmp189
	.long	Lset91
Lset92 = Ltmp190-Lfunc_begin26          ##     jumps to Ltmp190
	.long	Lset92
	.byte	0                       ##   On action: cleanup
Lset93 = Ltmp189-Lfunc_begin26          ## >> Call Site 3 <<
	.long	Lset93
Lset94 = Lfunc_end26-Ltmp189            ##   Call between Ltmp189 and Lfunc_end26
	.long	Lset94
	.long	0                       ##     has no landing pad
	.byte	0                       ##   On action: cleanup
	.align	2

	.section	__TEXT,__textcoal_nt,coalesced,pure_instructions
	.globl	__ZNSt3__111char_traitsIcE11eq_int_typeEii
	.weak_def_can_be_hidden	__ZNSt3__111char_traitsIcE11eq_int_typeEii
	.align	4, 0x90
__ZNSt3__111char_traitsIcE11eq_int_typeEii: ## @_ZNSt3__111char_traitsIcE11eq_int_typeEii
	.cfi_startproc
## BB#0:
	pushq	%rbp
Ltmp194:
	.cfi_def_cfa_offset 16
Ltmp195:
	.cfi_offset %rbp, -16
	movq	%rsp, %rbp
Ltmp196:
	.cfi_def_cfa_register %rbp
	movl	%edi, -4(%rbp)
	movl	%esi, -8(%rbp)
	movl	-4(%rbp), %esi
	cmpl	-8(%rbp), %esi
	sete	%al
	andb	$1, %al
	movzbl	%al, %eax
	popq	%rbp
	retq
	.cfi_endproc

	.globl	__ZNSt3__111char_traitsIcE3eofEv
	.weak_def_can_be_hidden	__ZNSt3__111char_traitsIcE3eofEv
	.align	4, 0x90
__ZNSt3__111char_traitsIcE3eofEv:       ## @_ZNSt3__111char_traitsIcE3eofEv
	.cfi_startproc
## BB#0:
	pushq	%rbp
Ltmp197:
	.cfi_def_cfa_offset 16
Ltmp198:
	.cfi_offset %rbp, -16
	movq	%rsp, %rbp
Ltmp199:
	.cfi_def_cfa_register %rbp
	movl	$4294967295, %eax       ## imm = 0xFFFFFFFF
	popq	%rbp
	retq
	.cfi_endproc

	.globl	__ZNSt3__112__hash_tableINS_17__hash_value_typeIiNS_12basic_stringIcNS_11char_traitsIcEENS_9allocatorIcEEEEEENS_22__unordered_map_hasherIiS8_NS_4hashIiEELb1EEENS_21__unordered_map_equalIiS8_NS_8equal_toIiEELb1EEENS5_IS8_EEE4findIiEENS_15__hash_iteratorIPNS_11__hash_nodeIS8_PvEEEERKT_
	.weak_def_can_be_hidden	__ZNSt3__112__hash_tableINS_17__hash_value_typeIiNS_12basic_stringIcNS_11char_traitsIcEENS_9allocatorIcEEEEEENS_22__unordered_map_hasherIiS8_NS_4hashIiEELb1EEENS_21__unordered_map_equalIiS8_NS_8equal_toIiEELb1EEENS5_IS8_EEE4findIiEENS_15__hash_iteratorIPNS_11__hash_nodeIS8_PvEEEERKT_
	.align	4, 0x90
__ZNSt3__112__hash_tableINS_17__hash_value_typeIiNS_12basic_stringIcNS_11char_traitsIcEENS_9allocatorIcEEEEEENS_22__unordered_map_hasherIiS8_NS_4hashIiEELb1EEENS_21__unordered_map_equalIiS8_NS_8equal_toIiEELb1EEENS5_IS8_EEE4findIiEENS_15__hash_iteratorIPNS_11__hash_nodeIS8_PvEEEERKT_: ## @_ZNSt3__112__hash_tableINS_17__hash_value_typeIiNS_12basic_stringIcNS_11char_traitsIcEENS_9allocatorIcEEEEEENS_22__unordered_map_hasherIiS8_NS_4hashIiEELb1EEENS_21__unordered_map_equalIiS8_NS_8equal_toIiEELb1EEENS5_IS8_EEE4findIiEENS_15__hash_iteratorIPNS_11__hash_nodeIS8_PvEEEERKT_
	.cfi_startproc
## BB#0:
	pushq	%rbp
Ltmp200:
	.cfi_def_cfa_offset 16
Ltmp201:
	.cfi_offset %rbp, -16
	movq	%rsp, %rbp
Ltmp202:
	.cfi_def_cfa_register %rbp
	subq	$288, %rsp              ## imm = 0x120
	movq	%rdi, -344(%rbp)
	movq	%rsi, -352(%rbp)
	movq	-344(%rbp), %rsi
	movq	%rsi, -328(%rbp)
	movq	-328(%rbp), %rdi
	addq	$24, %rdi
	movq	%rdi, -320(%rbp)
	movq	-320(%rbp), %rdi
	movq	%rdi, -312(%rbp)
	movq	-312(%rbp), %rdi
	movq	-352(%rbp), %rax
	movq	%rdi, -24(%rbp)
	movq	%rax, -32(%rbp)
	movq	-24(%rbp), %rax
	movq	-32(%rbp), %rdi
	movl	(%rdi), %ecx
	movq	%rax, -8(%rbp)
	movl	%ecx, -12(%rbp)
	movslq	-12(%rbp), %rax
	movq	%rax, -360(%rbp)
	movq	%rsi, -88(%rbp)
	movq	-88(%rbp), %rax
	movq	%rax, -80(%rbp)
	movq	-80(%rbp), %rax
	movq	%rax, -72(%rbp)
	movq	-72(%rbp), %rax
	movq	%rax, -64(%rbp)
	movq	-64(%rbp), %rax
	addq	$8, %rax
	movq	%rax, -56(%rbp)
	movq	-56(%rbp), %rax
	movq	%rax, -48(%rbp)
	movq	-48(%rbp), %rax
	movq	%rax, -40(%rbp)
	movq	-40(%rbp), %rax
	movq	(%rax), %rax
	movq	%rax, -368(%rbp)
	cmpq	$0, -368(%rbp)
	movq	%rsi, -392(%rbp)        ## 8-byte Spill
	je	LBB29_18
## BB#1:
	movq	-360(%rbp), %rax
	movq	-368(%rbp), %rcx
	movq	%rax, -96(%rbp)
	movq	%rcx, -104(%rbp)
	movq	-104(%rbp), %rax
	movq	-104(%rbp), %rcx
	subq	$1, %rcx
	andq	%rcx, %rax
	cmpq	$0, %rax
	jne	LBB29_3
## BB#2:
	movq	-96(%rbp), %rax
	movq	-104(%rbp), %rcx
	subq	$1, %rcx
	andq	%rcx, %rax
	movq	%rax, -400(%rbp)        ## 8-byte Spill
	jmp	LBB29_4
LBB29_3:
	movq	-96(%rbp), %rax
	xorl	%ecx, %ecx
	movl	%ecx, %edx
	divq	-104(%rbp)
	movq	%rdx, -400(%rbp)        ## 8-byte Spill
LBB29_4:                                ## %_ZNSt3__116__constrain_hashEmm.exit1
	movq	-400(%rbp), %rax        ## 8-byte Reload
	movq	%rax, -376(%rbp)
	movq	-376(%rbp), %rax
	movq	-392(%rbp), %rcx        ## 8-byte Reload
	movq	%rcx, -128(%rbp)
	movq	%rax, -136(%rbp)
	movq	-128(%rbp), %rax
	movq	-136(%rbp), %rdx
	movq	%rax, -120(%rbp)
	movq	-120(%rbp), %rax
	movq	%rax, -112(%rbp)
	movq	-112(%rbp), %rax
	movq	(%rax), %rax
	movq	(%rax,%rdx,8), %rax
	movq	%rax, -384(%rbp)
	cmpq	$0, -384(%rbp)
	je	LBB29_17
## BB#5:
	movq	-384(%rbp), %rax
	movq	(%rax), %rax
	movq	%rax, -384(%rbp)
LBB29_6:                                ## =>This Inner Loop Header: Depth=1
	xorl	%eax, %eax
	movb	%al, %cl
	cmpq	$0, -384(%rbp)
	movb	%cl, -401(%rbp)         ## 1-byte Spill
	je	LBB29_11
## BB#7:                                ##   in Loop: Header=BB29_6 Depth=1
	movq	-384(%rbp), %rax
	movq	8(%rax), %rax
	movq	-368(%rbp), %rcx
	movq	%rax, -144(%rbp)
	movq	%rcx, -152(%rbp)
	movq	-152(%rbp), %rax
	movq	-152(%rbp), %rcx
	subq	$1, %rcx
	andq	%rcx, %rax
	cmpq	$0, %rax
	jne	LBB29_9
## BB#8:                                ##   in Loop: Header=BB29_6 Depth=1
	movq	-144(%rbp), %rax
	movq	-152(%rbp), %rcx
	subq	$1, %rcx
	andq	%rcx, %rax
	movq	%rax, -416(%rbp)        ## 8-byte Spill
	jmp	LBB29_10
LBB29_9:                                ##   in Loop: Header=BB29_6 Depth=1
	movq	-144(%rbp), %rax
	xorl	%ecx, %ecx
	movl	%ecx, %edx
	divq	-152(%rbp)
	movq	%rdx, -416(%rbp)        ## 8-byte Spill
LBB29_10:                               ## %_ZNSt3__116__constrain_hashEmm.exit
                                        ##   in Loop: Header=BB29_6 Depth=1
	movq	-416(%rbp), %rax        ## 8-byte Reload
	cmpq	-376(%rbp), %rax
	sete	%cl
	movb	%cl, -401(%rbp)         ## 1-byte Spill
LBB29_11:                               ##   in Loop: Header=BB29_6 Depth=1
	movb	-401(%rbp), %al         ## 1-byte Reload
	testb	$1, %al
	jne	LBB29_12
	jmp	LBB29_16
LBB29_12:                               ##   in Loop: Header=BB29_6 Depth=1
	movq	-392(%rbp), %rax        ## 8-byte Reload
	movq	%rax, -176(%rbp)
	movq	-176(%rbp), %rcx
	addq	$32, %rcx
	movq	%rcx, -168(%rbp)
	movq	-168(%rbp), %rcx
	movq	%rcx, -160(%rbp)
	movq	-160(%rbp), %rcx
	movq	-384(%rbp), %rdx
	addq	$16, %rdx
	movq	-352(%rbp), %rsi
	movq	%rcx, -208(%rbp)
	movq	%rdx, -216(%rbp)
	movq	%rsi, -224(%rbp)
	movq	-208(%rbp), %rcx
	movq	-216(%rbp), %rdx
	movq	-224(%rbp), %rsi
	movq	%rcx, -184(%rbp)
	movq	%rdx, -192(%rbp)
	movq	%rsi, -200(%rbp)
	movq	-192(%rbp), %rcx
	movl	(%rcx), %edi
	movq	-200(%rbp), %rcx
	cmpl	(%rcx), %edi
	jne	LBB29_14
## BB#13:
	leaq	-336(%rbp), %rax
	movq	-384(%rbp), %rcx
	movq	%rax, -248(%rbp)
	movq	%rcx, -256(%rbp)
	movq	-248(%rbp), %rax
	movq	-256(%rbp), %rcx
	movq	%rax, -232(%rbp)
	movq	%rcx, -240(%rbp)
	movq	-232(%rbp), %rax
	movq	-240(%rbp), %rcx
	movq	%rcx, (%rax)
	jmp	LBB29_19
LBB29_14:                               ##   in Loop: Header=BB29_6 Depth=1
	jmp	LBB29_15
LBB29_15:                               ##   in Loop: Header=BB29_6 Depth=1
	movq	-384(%rbp), %rax
	movq	(%rax), %rax
	movq	%rax, -384(%rbp)
	jmp	LBB29_6
LBB29_16:
	jmp	LBB29_17
LBB29_17:
	jmp	LBB29_18
LBB29_18:
	leaq	-296(%rbp), %rax
	movq	-392(%rbp), %rcx        ## 8-byte Reload
	movq	%rcx, -304(%rbp)
	movq	%rax, -280(%rbp)
	movq	$0, -288(%rbp)
	movq	-280(%rbp), %rax
	movq	-288(%rbp), %rdx
	movq	%rax, -264(%rbp)
	movq	%rdx, -272(%rbp)
	movq	-264(%rbp), %rax
	movq	-272(%rbp), %rdx
	movq	%rdx, (%rax)
	movq	-296(%rbp), %rax
	movq	%rax, -336(%rbp)
LBB29_19:
	movq	-336(%rbp), %rax
	addq	$288, %rsp              ## imm = 0x120
	popq	%rbp
	retq
	.cfi_endproc

	.section	__TEXT,__cstring,cstring_literals
L_.str:                                 ## @.str
	.asciz	"One"

L_.str1:                                ## @.str1
	.asciz	"Forty Five"

L_.str2:                                ## @.str2
	.asciz	"Thousand One"

L_.str3:                                ## @.str3
	.asciz	"Minus Tow"

L_.str4:                                ## @.str4
	.asciz	"Minus One Thousand"

L_.str5:                                ## @.str5
	.asciz	"One Hundred"

L_.str6:                                ## @.str6
	.asciz	"Twelve"

L_.str7:                                ## @.str7
	.asciz	"Minus One Hundred"

L_.str8:                                ## @.str8
	.asciz	"Inserting one more element"

L_.str9:                                ## @.str9
	.asciz	"Three thousand"

L_.str10:                               ## @.str10
	.asciz	"Enter key to find for: "

L_.str11:                               ## @.str11
	.asciz	"Found! key "

L_.str12:                               ## @.str12
	.asciz	" points to value"

L_.str13:                               ## @.str13
	.asciz	"Key has no corresponding value in unordered map!"

L_.str14:                               ## @.str14
	.asciz	"Number of pairs, size(): "

L_.str15:                               ## @.str15
	.asciz	"Max bucket cout = "

L_.str16:                               ## @.str16
	.asciz	"Load factor: "

L_.str17:                               ## @.str17
	.asciz	"Max load factor = "

L_.str18:                               ## @.str18
	.asciz	"Unordered Map contains: "

L_.str19:                               ## @.str19
	.asciz	" ->"


.subsections_via_symbols
